 FirmwareUpdate

 Timestamp is 65fce370 (Fri Mar 22 09:48:32 2024)

 Preferred load address is 00000000

 Start         Length     Name                   Class
 0001:00000000 00001297H .text                   CODE
 0001:00001297 00021fb8H .text$mn                CODE
 0002:00000000 0000d540H .rdata                  DATA
 0002:0000d540 00000298H .rdata$voltmd           DATA
 0002:0000d7d8 00000144H .rdata$zzzdbg           DATA
 0003:00000000 000012a0H .data                   DATA
 0003:000012a0 000011b4H .bss                    DATA

  Address         Publics by Value              Rva+Base       Lib:Object

 0000:00000000       ___arm64x_native_entrypoint 00000000     <absolute>
 0000:00000000       ___hybrid_code_map         00000000     <absolute>
 0000:00000000       ___guard_longjmp_table     00000000     <absolute>
 0000:00000000       ___guard_eh_cont_table     00000000     <absolute>
 0000:00000000       ___arm64x_extra_rfe_table_size 00000000     <absolute>
 0000:00000000       ___guard_iat_count         00000000     <absolute>
 0000:00000000       ___arm64x_extra_rfe_table  00000000     <absolute>
 0000:00000000       ___arm64x_redirection_metadata 00000000     <absolute>
 0000:00000000       ___x64_code_ranges_to_entry_points_count 00000000     <absolute>
 0000:00000000       ___guard_iat_table         00000000     <absolute>
 0000:00000000       ___hybrid_auxiliary_iat_copy 00000000     <absolute>
 0000:00000000       ___guard_fids_count        00000000     <absolute>
 0000:00000000       ___hybrid_code_map_count   00000000     <absolute>
 0000:00000000       ___guard_eh_cont_count     00000000     <absolute>
 0000:00000000       ___guard_longjmp_count     00000000     <absolute>
 0000:00000000       ___hybrid_auxiliary_iat    00000000     <absolute>
 0000:00000000       ___dynamic_value_reloc_table 00000000     <absolute>
 0000:00000000       ___x64_code_ranges_to_entry_points 00000000     <absolute>
 0000:00000000       ___guard_check_icall_a64n_fptr 00000000     <absolute>
 0000:00000000       ___arm64x_redirection_metadata_count 00000000     <absolute>
 0000:00000000       ___guard_flags             00000000     <absolute>
 0000:00000000       ___AbsoluteZero            00000000     <absolute>
 0000:00000000       ___enclave_config          00000000     <absolute>
 0000:00000000       ___guard_fids_table        00000000     <absolute>
 0001:00000000       __ModuleEntryPoint         00000260     ModuleEntryLib:SecEntry.obj
 0001:00000010       _InternalMemCopyMem        00000270     BaseMemoryLibSse2:CopyMem.obj
 0001:00000080       _InternalMemSetMem32       000002e0     BaseMemoryLibSse2:SetMem32.obj
 0001:000000e0       _InternalMemZeroMem        00000340     BaseMemoryLibSse2:ZeroMem.obj
 0001:00000130       _InternalMemCompareMem     00000390     BaseMemoryLibSse2:CompareMem.obj
 0001:00000150       _InternalMemSetMem64       000003b0     BaseMemoryLibSse2:SetMem64.obj
 0001:000001b0       _InternalMemSetMem         00000410     BaseMemoryLibSse2:SetMem.obj
 0001:00000220       _InternalMathDivRemU64x64  00000480     BaseLib:DivU64x64Remainder.obj
 0001:000002a0       _InternalLongJump          00000500     BaseLib:LongJump.obj
 0001:000002e0       _InternalX86RdRand16       00000540     BaseLib:RdRand.obj
 0001:000002f5       _InternalX86RdRand32       00000555     BaseLib:RdRand.obj
 0001:00000309       _InternalX86RdRand64       00000569     BaseLib:RdRand.obj
 0001:00000330       _UpdateSHA256Ni            00000590     IppCryptoLib:pcpsha256nias.obj
 0001:000006c0       _UpdateSHA512W7            00000920     IppCryptoLib:pcpsha512w7as.obj
 0001:000011e0       _InternalMemIsZeroBuffer   00001440     BaseMemoryLibSse2:IsZeroBuffer.obj
 0001:00001240       _AsmFlushCacheRange        000014a0     ExtraBaseLib:CpuSupport.obj
 0001:00001267       _AsmEnableAvx              000014c7     ExtraBaseLib:CpuSupport.obj
 0001:000014d9       _SecStartup                00001739 f   PayloadEntryLib:PayloadEntryLib.obj
 0001:0000173e       _VerifySblVersion          0000199e f   FirmwareUpdate:FirmwareUpdate.obj
 0001:0000181e       _VerifyFwVersion           00001a7e f   FirmwareUpdate:FirmwareUpdate.obj
 0001:000018bc       _ValidThenDecFwuRetryCount 00001b1c f   FirmwareUpdate:FirmwareUpdate.obj
 0001:00001956       _GetStateMachineFlag       00001bb6 f   FirmwareUpdate:FirmwareUpdate.obj
 0001:00001999       _SetStateMachineFlag       00001bf9 f   FirmwareUpdate:FirmwareUpdate.obj
 0001:000019fd       _EnforceFwUpdatePolicy     00001c5d f   FirmwareUpdate:FirmwareUpdate.obj
 0001:00001b51       _AfterUpdateEnforceFwUpdatePolicy 00001db1 f   FirmwareUpdate:FirmwareUpdate.obj
 0001:00001bda       _UpdateStatus              00001e3a f   FirmwareUpdate:FirmwareUpdate.obj
 0001:00001dae       _AuthenticateCapsule       0000200e f   FirmwareUpdate:FirmwareUpdate.obj
 0001:00001e92       _GetFwImageOrder           000020f2 f   FirmwareUpdate:FirmwareUpdate.obj
 0001:00001ece       _IsValidPayloadBoundary    0000212e f   FirmwareUpdate:FirmwareUpdate.obj
 0001:00001f95       _GetPayloadHeaderByIndex   000021f5 f   FirmwareUpdate:FirmwareUpdate.obj
 0001:00002005       _IsCritCompUpdateFailed    00002265 f   FirmwareUpdate:FirmwareUpdate.obj
 0001:0000202e       _ProcessCapsule            0000228e f   FirmwareUpdate:FirmwareUpdate.obj
 0001:000023be       _CheckCapsuleForRedundant  0000261e f   FirmwareUpdate:FirmwareUpdate.obj
 0001:00002431       _FindImage                 00002691 f   FirmwareUpdate:FirmwareUpdate.obj
 0001:000024a2       _IsRedundantComponent      00002702 f   FirmwareUpdate:FirmwareUpdate.obj
 0001:000024d2       _InitFirmwareUpdate        00002732 f   FirmwareUpdate:FirmwareUpdate.obj
 0001:00002d2e       _GetRegionInfo             00002f8e f   FirmwareUpdate:FirmwareUpdate.obj
 0001:00002d86       _PayloadMain               00002fe6 f   FirmwareUpdate:FirmwareUpdate.obj
 0001:00002ef7       _BootMediaRead             00003157 f   FirmwareUpdate:FirmwareUpdateHelper.obj
 0001:00002f0b       _BootMediaWrite            0000316b f   FirmwareUpdate:FirmwareUpdateHelper.obj
 0001:00002f1f       _BootMediaErase            0000317f f   FirmwareUpdate:FirmwareUpdateHelper.obj
 0001:00002f36       _GetSvn                    00003196 f   FirmwareUpdate:FirmwareUpdateHelper.obj
 0001:00002f8d       _GetVersionfromFv          000031ed f   FirmwareUpdate:FirmwareUpdateHelper.obj
 0001:00003067       _UpdateRegionBlock         000032c7 f   FirmwareUpdate:FirmwareUpdateHelper.obj
 0001:0000323e       _UpdateBootRegion          0000349e f   FirmwareUpdate:FirmwareUpdateHelper.obj
 0001:000032fe       _UpdateBootPartition       0000355e f   FirmwareUpdate:FirmwareUpdateHelper.obj
 0001:000033a9       _UpdateFullBiosRegion      00003609 f   FirmwareUpdate:FirmwareUpdateHelper.obj
 0001:00003454       _UpdateSystemFirmware      000036b4 f   FirmwareUpdate:FirmwareUpdateHelper.obj
 0001:00003502       _UpdateSingleComponent     00003762 f   FirmwareUpdate:FirmwareUpdateHelper.obj
 0001:000035ca       _UpdateNonRedundantComp    0000382a f   FirmwareUpdate:FirmwareUpdateHelper.obj
 0001:00003614       _UpdateContainerComp       00003874 f   FirmwareUpdate:FirmwareUpdateHelper.obj
 0001:000036d8       _CheckSblContainerSvn      00003938 f   FirmwareUpdate:FirmwareUpdateHelper.obj
 0001:0000385a       _CheckSblConfigDataSvn     00003aba f   FirmwareUpdate:FirmwareUpdateHelper.obj
 0001:000038f0       _CheckAcmSvn               00003b50 f   FirmwareUpdate:FirmwareUpdateHelper.obj
 0001:00003952       _UpdateSblComponent        00003bb2 f   FirmwareUpdate:FirmwareUpdateHelper.obj
 0001:00003a48       _ReadCsmeNeedResetFlag     00003ca8 f   FirmwareUpdate:FirmwareUpdateHelper.obj
 0001:00003a93       _WriteCsmeNeedResetFlag    00003cf3 f   FirmwareUpdate:FirmwareUpdateHelper.obj
 0001:00003b11       _Reboot                    00003d71 f   FirmwareUpdate:FirmwareUpdateHelper.obj
 0001:00003b53       _VerifyUcodeStruct         00003db3 f   FirmwareUpdate:FirmwareUpdateHelper.obj
 0001:00003bbc       _InitBootDevice            00003e1c f   FirmwareUpdate:GetCapsuleImage.obj
 0001:00003c96       _LoadCapsuleImage          00003ef6 f   FirmwareUpdate:GetCapsuleImage.obj
 0001:000042d0       _GetCapsuleImage           00004530 f   FirmwareUpdate:GetCapsuleImage.obj
 0001:00004429       _FwUpdateCmdHandler        00004689 f   FirmwareUpdate:CmdFwUpdate.obj
 0001:000044cf       _ParseCommandStringBuf     0000472f f   FirmwareUpdate:CmdFwUpdate.obj
 0001:00004551       _CsmePciReadBuffer         000047b1 f   FirmwareUpdate:CsmeFwUpdate.obj
 0001:0000463a       _StartCsmeUpdate           0000489a f   FirmwareUpdate:CsmeFwUpdate.obj
 0001:0000489a       _BltGlyphToFrameBuffer     00004afa f   GraphicsLib:GraphicsLib.obj
 0001:00004992       _InitFrameBufferConsole    00004bf2 f   GraphicsLib:GraphicsLib.obj
 0001:00004aee       _FrameBufferConsoleScroll  00004d4e f   GraphicsLib:GraphicsLib.obj
 0001:00004bf8       _FrameBufferWrite          00004e58 f   GraphicsLib:GraphicsLib.obj
 0001:00004d93       _ConsolePrint              00004ff3 f   ConsoleOutLib:ConsoleOutLib.obj
 0001:00004df0       _ConsolePrintUnicode       00005050 f   ConsoleOutLib:ConsoleOutLib.obj
 0001:00004e4d       _SerialPortReadRegister    000050ad f   SerialPortLib:SerialPortLib.obj
 0001:00004e87       _SerialPortWriteRegister   000050e7 f   SerialPortLib:SerialPortLib.obj
 0001:00004ecb       _GetTimeStampAccurateFrequency 0000512b f   TimeStampLib:TimeStampLib.obj
 0001:00004f5f       _MicroSecondToTimeStampTick 000051bf f   TimeStampLib:TimeStampLib.obj
 0001:00004f94       _GetNextHob                000051f4 f   HobLib:HobLib.obj
 0001:00004fdb       _GetNextGuidHob            0000523b f   HobLib:HobLib.obj
 0001:0000500e       _GetHobListPtr             0000526e f   PayloadLib:PayloadLib.obj
 0001:00005030       _GetFlashMapPtr            00005290 f   PayloadLib:PayloadLib.obj
 0001:00005049       _GetPlatformId             000052a9 f   PayloadLib:PayloadLib.obj
 0001:0000506e       _GetCurrentBootPartition   000052ce f   PayloadLib:PayloadLib.obj
 0001:00005089       _CpuHalt                   000052e9 f   BootloaderCommonLib:BootloaderCommonLib.obj
 0001:000050a9       _DumpHex                   00005309 f   BootloaderCommonLib:BootloaderCommonLib.obj
 0001:0000518a       _GetLibraryData            000053ea f   BootloaderCommonLib:BootloaderCommonLib.obj
 0001:000051b9       _SetLibraryData            00005419 f   BootloaderCommonLib:BootloaderCommonLib.obj
 0001:000051ec       _GetServiceBySignature     0000544c f   BootloaderCommonLib:BootloaderCommonLib.obj
 0001:00005218       _GetComponentEntryByPartition 00005478 f   BootloaderCommonLib:BootloaderCommonLib.obj
 0001:00005276       _GetComponentInfoByPartition 000054d6 f   BootloaderCommonLib:BootloaderCommonLib.obj
 0001:000052b3       _GetComponentInfo          00005513 f   BootloaderCommonLib:BootloaderCommonLib.obj
 0001:000052d9       _GetRegionOffsetSize       00005539 f   BootloaderCommonLib:BootloaderCommonLib.obj
 0001:00005339       _GetGuidHobData            00005599 f   BootloaderCommonLib:BootloaderCommonLib.obj
 0001:00005354       _MatchHashInStore          000055b4 f   BootloaderCommonLib:BootloaderCommonLib.obj
 0001:000053ce       _IoRead32                  0000562e f   BaseIoLibIntrinsic:IoLibMsc.obj
 0001:000053f3       _IoWrite32                 00005653 f   BaseIoLibIntrinsic:IoLibMsc.obj
 0001:0000541e       _MmioRead16                0000567e f   BaseIoLibIntrinsic:IoLib.obj
 0001:00005443       _MmioWrite16               000056a3 f   BaseIoLibIntrinsic:IoLib.obj
 0001:0000546d       _MmioRead32                000056cd f   BaseIoLibIntrinsic:IoLib.obj
 0001:0000548e       _MmioWrite32               000056ee f   BaseIoLibIntrinsic:IoLib.obj
 0001:000054b5       _MmioRead64                00005715 f   BaseIoLibIntrinsic:IoLib.obj
 0001:000054d9       _MmioWrite64               00005739 f   BaseIoLibIntrinsic:IoLib.obj
 0001:00005505       _InternalAcpiDelay         00005765 f   AcpiTimerLib:AcpiTimerLib.obj
 0001:00005552       _MicroSecondDelay          000057b2 f   AcpiTimerLib:AcpiTimerLib.obj
 0001:000055a5       _NanoSecondDelay           00005805 f   AcpiTimerLib:AcpiTimerLib.obj
 0001:000055ea       _CopyMem                   0000584a f   BaseMemoryLibSse2:CopyMemWrapper.obj
 0001:00005651       _SetMem32                  000058b1 f   BaseMemoryLibSse2:SetMem32Wrapper.obj
 0001:000056df       _ZeroMem                   0000593f f   BaseMemoryLibSse2:ZeroMemWrapper.obj
 0001:0000572c       _CompareMem                0000598c f   BaseMemoryLibSse2:CompareMemWrapper.obj
 0001:000057c3       _CopyGuid                  00005a23 f   BaseMemoryLibSse2:MemLibGuid.obj
 0001:00005850       _CompareGuid               00005ab0 f   BaseMemoryLibSse2:MemLibGuid.obj
 0001:00005902       _SetMem64                  00005b62 f   BaseMemoryLibSse2:SetMem64Wrapper.obj
 0001:00005991       _SetMem                    00005bf1 f   BaseMemoryLibSse2:SetMemWrapper.obj
 0001:000059cd       _SwitchStack               00005c2d f   BaseLib:SwitchStack.obj
 0001:00005a6b       _CpuDeadLoop               00005ccb f   BaseLib:CpuDeadLoop.obj
 0001:00005a7f       _InternalSafeStringIsOverlap 00005cdf f   BaseLib:SafeString.obj
 0001:00005aa5       _InternalSafeStringNoStrOverlap 00005d05 f   BaseLib:SafeString.obj
 0001:00005ac4       _StrnLenS                  00005d24 f   BaseLib:SafeString.obj
 0001:00005b0c       _StrCatS                   00005d6c f   BaseLib:SafeString.obj
 0001:00005c2a       _StrnCatS                  00005e8a f   BaseLib:SafeString.obj
 0001:00005da9       _AsciiStrnLenS             00006009 f   BaseLib:SafeString.obj
 0001:00005dd0       _AsciiStrCpyS              00006030 f   BaseLib:SafeString.obj
 0001:00005e91       _AsciiStrCatS              000060f1 f   BaseLib:SafeString.obj
 0001:00005f7e       _UnicodeStrToAsciiStrS     000061de f   BaseLib:SafeString.obj
 0001:000060cc       _AsciiStrToUnicodeStrS     0000632c f   BaseLib:SafeString.obj
 0001:000061ab       _StrLen                    0000640b f   BaseLib:String.obj
 0001:00006206       _StrSize                   00006466 f   BaseLib:String.obj
 0001:00006215       _StrCmp                    00006475 f   BaseLib:String.obj
 0001:00006283       _AsciiStrLen               000064e3 f   BaseLib:String.obj
 0001:000062ce       _AsciiStrCmp               0000652e f   BaseLib:String.obj
 0001:0000633a       _AsciiStrnCmp              0000659a f   BaseLib:String.obj
 0001:000063ce       _AsciiStrStr               0000662e f   BaseLib:String.obj
 0001:0000644a       _MultU64x64                000066aa f   BaseLib:MultU64x64.obj
 0001:00006463       _AsmCpuid                  000066c3 f   BaseLib:CpuId.obj
 0001:000064a1       _DivU64x32                 00006701 f   BaseLib:DivU64x32.obj
 0001:000064d1       _DivU64x64Remainder        00006731 f   BaseLib:DivU64x64Remainder.obj
 0001:000064ea       _SwapBytes32               0000674a f   BaseLib:SwapBytes32.obj
 0001:00006503       _InternalMathMultU64x64    00006763 f   BaseLib:MultU64x64.obj
 0001:00006522       _HighBitSet32              00006782 f   BaseLib:HighBitSet32.obj
 0001:00006539       _InternalMathDivRemU64x32  00006799 f   BaseLib:DivU64x32Remainder.obj
 0001:00006556       _AddMemoryResourceRange    000067b6 f   FullMemoryAllocationLib:FullMemoryAllocationLib.obj
 0001:00006641       _InternalAllocatePages     000068a1 f   FullMemoryAllocationLib:FullMemoryAllocationLib.obj
 0001:00006665       _FreePages                 000068c5 f   FullMemoryAllocationLib:FullMemoryAllocationLib.obj
 0001:000066ce       _InternalAllocatePool      0000692e f   FullMemoryAllocationLib:FullMemoryAllocationLib.obj
 0001:000066fa       _AllocatePool              0000695a f   FullMemoryAllocationLib:FullMemoryAllocationLib.obj
 0001:00006703       _AllocateZeroPool          00006963 f   FullMemoryAllocationLib:FullMemoryAllocationLib.obj
 0001:0000671c       _FreePool                  0000697c f   FullMemoryAllocationLib:FullMemoryAllocationLib.obj
 0001:00006775       _CoreAcquireMemoryLock     000069d5 f   FullMemoryAllocationLib:Page.obj
 0001:0000679e       _CoreReleaseMemoryLock     000069fe f   FullMemoryAllocationLib:Page.obj
 0001:000067c4       _RemoveMemoryMapEntry      00006a24 f   FullMemoryAllocationLib:Page.obj
 0001:000067ec       _CoreAddRange              00006a4c f   FullMemoryAllocationLib:Page.obj
 0001:000069e0       _AllocateMemoryMapEntry    00006c40 f   FullMemoryAllocationLib:Page.obj
 0001:00006a60       _CoreFreeMemoryMapStack    00006cc0 f   FullMemoryAllocationLib:Page.obj
 0001:00006b65       _CoreAddMemoryDescriptor   00006dc5 f   FullMemoryAllocationLib:Page.obj
 0001:00006c16       _CoreConvertPagesEx        00006e76 f   FullMemoryAllocationLib:Page.obj
 0001:0000702d       _CoreConvertPages          0000728d f   FullMemoryAllocationLib:Page.obj
 0001:00007050       _CoreFindFreePagesI        000072b0 f   FullMemoryAllocationLib:Page.obj
 0001:000071fb       _FindFreePages             0000745b f   FullMemoryAllocationLib:Page.obj
 0001:00007248       _CoreInternalAllocatePages 000074a8 f   FullMemoryAllocationLib:Page.obj
 0001:000072ce       _CoreInternalFreePages     0000752e f   FullMemoryAllocationLib:Page.obj
 0001:00007388       _CoreAllocatePoolPages     000075e8 f   FullMemoryAllocationLib:Page.obj
 0001:000073ff       _LookupPoolHead            0000765f f   FullMemoryAllocationLib:Pool.obj
 0001:000074c2       _CoreAllocatePoolI         00007722 f   FullMemoryAllocationLib:Pool.obj
 0001:00007744       _CoreFreePoolI             000079a4 f   FullMemoryAllocationLib:Pool.obj
 0001:000079a5       _UnicodeSPrintAsciiFormat  00007c05 f   BasePrintLib:PrintLib.obj
 0001:000079e3       _AsciiVSPrint              00007c43 f   BasePrintLib:PrintLib.obj
 0001:000079fd       _AsciiVSPrintUnicodeFormat 00007c5d f   BasePrintLib:PrintLib.obj
 0001:00007a38       _BasePrintLibFillBuffer    00007c98 f   BasePrintLib:PrintLibInternal.obj
 0001:00007a6c       _BasePrintLibValueToString 00007ccc f   BasePrintLib:PrintLibInternal.obj
 0001:00007aa4       _BasePrintLibConvertValueToStringS 00007d04 f   BasePrintLib:PrintLibInternal.obj
 0001:00007b3e       _BasePrintLibSPrintMarker  00007d9e f   BasePrintLib:PrintLibInternal.obj
 0001:00008799       _BasePrintLibSPrint        000089f9 f   BasePrintLib:PrintLibInternal.obj
 0001:000087b8       _DebugPrint                00008a18 f   BaseFspDebugLibSerialPort:DebugLib.obj
 0001:0000884b       _DebugAssert               00008aab f   BaseFspDebugLibSerialPort:DebugLib.obj
 0001:00008876       _PlatformHookSerialPortInitialize 00008ad6 f   PlatformHookLib:PlatformHookLib.obj
 0001:000088d2       _MediaSetInterfaceType     00008b32 f   MediaAccessLib:MediaAccessLib.obj
 0001:00008a47       _MediaReadBlocks           00008ca7 f   MediaAccessLib:MediaAccessLib.obj
 0001:00008a7e       _MediaGetMediaInfo         00008cde f   MediaAccessLib:MediaAccessLib.obj
 0001:00008aa8       _AddMeasurePointTimestamp  00008d08 f   LoaderPerformanceLib:LoaderPerformanceAddLib.obj
 0001:00008ad6       _ResetSystem               00008d36 f   ResetSystemLib:ResetSystemLib.obj
 0001:00008b1e       _PartitionValidMbr         00008d7e f   PartitionLib:PartitionLib.obj
 0001:00008c49       _FindMbrPartitions         00008ea9 f   PartitionLib:PartitionLib.obj
 0001:00008db2       _PartitionValidGptEntryArray 00009012 f   PartitionLib:PartitionLib.obj
 0001:00008dfc       _PartitionValidGpt         0000905c f   PartitionLib:PartitionLib.obj
 0001:00008e6c       _FindGptPartitions         000090cc f   PartitionLib:PartitionLib.obj
 0001:00009115       _FindPartitions            00009375 f   PartitionLib:PartitionLib.obj
 0001:00009253       _AddSpiPartition           000094b3 f   PartitionLib:SpiPartition.obj
 0001:000092fd       _FindSpiPartitions         0000955d f   PartitionLib:SpiPartition.obj
 0001:00009440       _GetFileSystemType         000096a0 f   FileSystemLib:FileSystemLib.obj
 0001:00009489       _InitFileSystem            000096e9 f   FileSystemLib:FileSystemLib.obj
 0001:00009556       _GetFileSize               000097b6 f   FileSystemLib:FileSystemLib.obj
 0001:000095f0       _CloseFile                 00009850 f   FileSystemLib:FileSystemLib.obj
 0001:0000969c       _IsTePe32Image             000098fc f   LitePeCoffLib:LitePeCoffLib.obj
 0001:000096d6       _PeCoffLoaderGetEntryPoint 00009936 f   LitePeCoffLib:LitePeCoffLib.obj
 0001:00009732       _PeCoffRelocateImage       00009992 f   LitePeCoffLib:LitePeCoffLib.obj
 0001:00009986       _WdtClearScratchpad        00009be6 f   WatchDogTimerLib:WatchDogTimerLib.obj
 0001:000099c7       _WdtSetScratchpad          00009c27 f   WatchDogTimerLib:WatchDogTimerLib.obj
 0001:000099fc       _GetLoaderPlatformInfoPtr  00009c5c f   PayloadSupportLib:PayloadSupportLib.obj
 0001:00009a15       _ParseAcpiTableInfo        00009c75 f   PayloadSupportLib:PayloadSupportLib.obj
 0001:00009ad6       _GetMemoryMapInfo          00009d36 f   PayloadSupportLib:PayloadSupportLib.obj
 0001:00009b06       _DoRsaVerify               00009d66 f   SecureBootLib:SecureBootRsa.obj
 0001:00009cfb       _CalculateHash             00009f5b f   SecureBootLib:SecureBootHash.obj
 0001:00009d56       _DoHashVerify              00009fb6 f   SecureBootLib:SecureBootHash.obj
 0001:00009eb7       _InitCsmeUpdInputData      0000a117 f   FirmwareUpdateLib:FirmwareUpdateLib.obj
 0001:00009f43       _SetBootPartition          0000a1a3 f   FirmwareUpdateLib:FirmwareUpdateLib.obj
 0001:00009f5b       _GetFirmwareUpdateInfo     0000a1bb f   FirmwareUpdateLib:FirmwareUpdateLib.obj
 0001:0000a1bb       _SetArbSvnCommit           0000a41b f   FirmwareUpdateLib:FirmwareUpdateLib.obj
 0001:0000a264       _FindConfigHdrByPidMaskTag 0000a4c4 f   ConfigDataLib:ConfigDataLib.obj
 0001:0000a333       _FindConfigHdrByTag        0000a593 f   ConfigDataLib:ConfigDataLib.obj
 0001:0000a459       _UnregisterContainer       0000a6b9 f   ContainerLib:ContainerLib.obj
 0001:0000a4cf       _LocateComponentEntryFromContainer 0000a72f f   ContainerLib:ContainerLib.obj
 0001:0000a4ff       _GetHashAlg                0000a75f f   ContainerLib:ContainerLib.obj
 0001:0000a5aa       _GetContainerKeyUsageBySig 0000a80a f   ContainerLib:ContainerLib.obj
 0001:0000a5ed       _AutheticateContainerInternal 0000a84d f   ContainerLib:ContainerLib.obj
 0001:0000a6d8       _RegisterContainer         0000a938 f   ContainerLib:ContainerLib.obj
 0001:0000a734       _LocateComponentEntry      0000a994 f   ContainerLib:ContainerLib.obj
 0001:0000a7b9       _GetNextAvailableComponent 0000aa19 f   ContainerLib:ContainerLib.obj
 0001:0000a848       _FindFitEntryData          0000aaa8 f   BootGuardLibCBnT:BootGuardTpmEventLogLib.obj
 0001:0000a8cf       _UsbBlkCallback            0000ab2f f   UsbBlockIoLib:UsbBlockIoLib.obj
 0001:0000a8ef       _UsbDeInitBot              0000ab4f f   UsbBlockIoLib:UsbBlockIoLib.obj
 0001:0000a95e       _InitializeUsb             0000abbe f   UsbBlockIoLib:UsbBlockIoLib.obj
 0001:0000aa93       _UsbGetMediaInfo           0000acf3 f   UsbBlockIoLib:UsbBlockIoLib.obj
 0001:0000aae4       _UsbReadBlocks             0000ad44 f   UsbBlockIoLib:UsbBlockIoLib.obj
 0001:0000ab18       _InitUsbBot                0000ad78 f   UsbBlockIoLib:UsbBotPeim.obj
 0001:0000aca9       _BotGetNumberOfBlockDevices 0000af09 f   UsbBlockIoLib:UsbBotPeim.obj
 0001:0000acb6       _BotGetMediaInfo           0000af16 f   UsbBlockIoLib:UsbBotPeim.obj
 0001:0000ad15       _BotReadBlocks             0000af75 f   UsbBlockIoLib:UsbBotPeim.obj
 0001:0000ae96       _PeiBotDetectMedia         0000b0f6 f   UsbBlockIoLib:UsbBotPeim.obj
 0001:0000b00b       _PeiUsbInquiry             0000b26b f   UsbBlockIoLib:PeiAtapi.obj
 0001:0000b09c       _PeiUsbTestUnitReady       0000b2fc f   UsbBlockIoLib:PeiAtapi.obj
 0001:0000b0e3       _PeiUsbRequestSense        0000b343 f   UsbBlockIoLib:PeiAtapi.obj
 0001:0000b155       _PeiUsbReadCapacity        0000b3b5 f   UsbBlockIoLib:PeiAtapi.obj
 0001:0000b1e6       _PeiUsbReadFormattedCapacity 0000b446 f   UsbBlockIoLib:PeiAtapi.obj
 0001:0000b290       _PeiUsbRead10              0000b4f0 f   UsbBlockIoLib:PeiAtapi.obj
 0001:0000b364       _IsNoMedia                 0000b5c4 f   UsbBlockIoLib:PeiAtapi.obj
 0001:0000b38e       _IsMediaError              0000b5ee f   UsbBlockIoLib:PeiAtapi.obj
 0001:0000b3d4       _BotRecoveryReset          0000b634 f   UsbBlockIoLib:BotPeim.obj
 0001:0000b44c       _BotCommandPhase           0000b6ac f   UsbBlockIoLib:BotPeim.obj
 0001:0000b4df       _BotDataPhase              0000b73f f   UsbBlockIoLib:BotPeim.obj
 0001:0000b591       _BotStatusPhase            0000b7f1 f   UsbBlockIoLib:BotPeim.obj
 0001:0000b5f7       _PeiAtapiCommand           0000b857 f   UsbBlockIoLib:BotPeim.obj
 0001:0000b68b       _PeiUsbClearEndpointHalt   0000b8eb f   UsbBlockIoLib:PeiUsbLib.obj
 0001:0000b719       _DebugLogBufferWrite       0000b979 f   DebugLogBufferLib:DebugLogBufferLib.obj
 0001:0000b7a4       _LibPcdGet32               0000ba04 f   PcdLib:PcdLib.obj
 0001:0000b7c9       _PeiPcdGetSize             0000ba29 f   PcdLib:Pcd.obj
 0001:0000b80f       _GetPtrTypeSize            0000ba6f f   PcdLib:Pcd.obj
 0001:0000b857       _GetWorker                 0000bab7 f   PcdLib:Service.obj
 0001:0000b8e5       _GetSizeTableIndex         0000bb45 f   PcdLib:Service.obj
 0001:0000b903       _MmioOr16                  0000bb63 f   BaseIoLibIntrinsic:IoHighLevel.obj
 0001:0000b919       _MmioAnd16                 0000bb79 f   BaseIoLibIntrinsic:IoHighLevel.obj
 0001:0000b934       _MmioOr32                  0000bb94 f   BaseIoLibIntrinsic:IoHighLevel.obj
 0001:0000b952       _InternalBaseLibIsListValid 0000bbb2 f   BaseLib:LinkedList.obj
 0001:0000b9b6       _InsertHeadList            0000bc16 f   BaseLib:LinkedList.obj
 0001:0000b9ed       _InsertTailList            0000bc4d f   BaseLib:LinkedList.obj
 0001:0000ba25       _IsListEmpty               0000bc85 f   BaseLib:LinkedList.obj
 0001:0000ba4d       _IsNull                    0000bcad f   BaseLib:LinkedList.obj
 0001:0000ba7b       _RemoveEntryList           0000bcdb f   BaseLib:LinkedList.obj
 0001:0000baaf       _DivU64x32Remainder        0000bd0f f   BaseLib:DivU64x32Remainder.obj
 0001:0000baeb       _PciExpressRead8           0000bd4b f   BasePciExpressLib:PciExpressLib.obj
 0001:0000bb27       _PciExpressRead16          0000bd87 f   BasePciExpressLib:PciExpressLib.obj
 0001:0000bb70       _PciExpressRead32          0000bdd0 f   BasePciExpressLib:PciExpressLib.obj
 0001:0000bbb7       _PciExpressReadBuffer      0000be17 f   BasePciExpressLib:PciExpressLib.obj
 0001:0000bd10       _SetEmmcDllTuningLibData   0000bf70 f   MmcTuningLib:MmcTuningLib.obj
 0001:0000bd68       _GetEmmcDllTuningLibData   0000bfc8 f   MmcTuningLib:MmcTuningLib.obj
 0001:0000bd97       _EmmcRxHs400Tuning         0000bff7 f   MmcTuningLib:MmcTuningLib.obj
 0001:0000c0a9       _EmmcTxHs400Tuning         0000c309 f   MmcTuningLib:MmcTuningLib.obj
 0001:0000c3a2       _EmmcWriteHs400TuningPattern 0000c602 f   MmcTuningLib:MmcTuningLib.obj
 0001:0000c43a       _ConfigureEmmcHs400Mode    0000c69a f   MmcTuningLib:MmcTuningLib.obj
 0001:0000c569       _MmcSetDlls                0000c7c9 f   MmcTuningLib:MmcTuningLib.obj
 0001:0000c5b9       _DoMmcTuneDlls             0000c819 f   MmcTuningLib:MmcTuningLib.obj
 0001:0000c6a0       _MmcTuning                 0000c900 f   MmcTuningLib:MmcTuningLib.obj
 0001:0000c845       _CreateNewDeviceInfo       0000caa5 f   AhciLib:AhciBlkIo.obj
 0001:0000c905       _AhciFindDeviceData        0000cb65 f   AhciLib:AhciBlkIo.obj
 0001:0000c959       _AhciReadBlocks            0000cbb9 f   AhciLib:AhciBlkIo.obj
 0001:0000c9a0       _AhciWriteBlocks           0000cc00 f   AhciLib:AhciBlkIo.obj
 0001:0000c9e7       _AhciGetMediaInfo          0000cc47 f   AhciLib:AhciBlkIo.obj
 0001:0000ca28       _AhciDeinitialize          0000cc88 f   AhciLib:AhciBlkIo.obj
 0001:0000cb0d       _AhciInitialize            0000cd6d f   AhciLib:AhciBlkIo.obj
 0001:0000cc47       _AhciAtaDeviceReadWrite    0000cea7 f   AhciLib:AhciDevice.obj
 0001:0000cd74       _AhciReadWriteBlock        0000cfd4 f   AhciLib:AhciDevice.obj
 0001:0000ce8b       _AhciAndReg                0000d0eb f   AhciLib:AhciMode.obj
 0001:0000cead       _AhciOrReg                 0000d10d f   AhciLib:AhciMode.obj
 0001:0000cecf       _AhciWaitMmioSet           0000d12f f   AhciLib:AhciMode.obj
 0001:0000cf4c       _AhciWaitMemSet            0000d1ac f   AhciLib:AhciMode.obj
 0001:0000cfb6       _AhciClearPortStatus       0000d216 f   AhciLib:AhciMode.obj
 0001:0000d014       _AhciDumpPortStatus        0000d274 f   AhciLib:AhciMode.obj
 0001:0000d08f       _AhciDisableFisReceive     0000d2ef f   AhciLib:AhciMode.obj
 0001:0000d0ec       _AhciBuildCommand          0000d34c f   AhciLib:AhciMode.obj
 0001:0000d25c       _AhciBuildCommandFis       0000d4bc f   AhciLib:AhciMode.obj
 0001:0000d2be       _AhciPioTransfer           0000d51e f   AhciLib:AhciMode.obj
 0001:0000d437       _AhciDmaTransfer           0000d697 f   AhciLib:AhciMode.obj
 0001:0000d553       _AhciNonDataTransfer       0000d7b3 f   AhciLib:AhciMode.obj
 0001:0000d642       _AhciStopCommand           0000d8a2 f   AhciLib:AhciMode.obj
 0001:0000d697       _AhciStartCommand          0000d8f7 f   AhciLib:AhciMode.obj
 0001:0000d770       _AhciReset                 0000d9d0 f   AhciLib:AhciMode.obj
 0001:0000d7f8       _AhciIdentify              0000da58 f   AhciLib:AhciMode.obj
 0001:0000d876       _AhciIdentifyPacket        0000dad6 f   AhciLib:AhciMode.obj
 0001:0000d8ee       _AhciDeviceSetFeature      0000db4e f   AhciLib:AhciMode.obj
 0001:0000d972       _AhciCreateTransferDescriptor 0000dbd2 f   AhciLib:AhciMode.obj
 0001:0000db12       _GetMaxTransferType        0000dd72 f   AhciLib:AhciMode.obj
 0001:0000db25       _AhciModeInitialization    0000dd85 f   AhciLib:AhciMode.obj
 0001:0000df4f       _UfsTestUnitReady          0000e1af f   UfsBlockIoLib:UfsBlockIoLib.obj
 0001:0000dfce       _UfsReadCapacity           0000e22e f   UfsBlockIoLib:UfsBlockIoLib.obj
 0001:0000e07f       _UfsReadCapacity16         0000e2df f   UfsBlockIoLib:UfsBlockIoLib.obj
 0001:0000e137       _UfsRead10                 0000e397 f   UfsBlockIoLib:UfsBlockIoLib.obj
 0001:0000e203       _UfsWrite10                0000e463 f   UfsBlockIoLib:UfsBlockIoLib.obj
 0001:0000e2cf       _UfsRead16                 0000e52f f   UfsBlockIoLib:UfsBlockIoLib.obj
 0001:0000e3ad       _UfsWrite16                0000e60d f   UfsBlockIoLib:UfsBlockIoLib.obj
 0001:0000e48b       _UfsParsingSenseKeys       0000e6eb f   UfsBlockIoLib:UfsBlockIoLib.obj
 0001:0000e549       _UfsGetMediaInfoInternal   0000e7a9 f   UfsBlockIoLib:UfsBlockIoLib.obj
 0001:0000e868       _UfsReadBlocksInternal     0000eac8 f   UfsBlockIoLib:UfsBlockIoLib.obj
 0001:0000e9a4       _UfsReadBlocks             0000ec04 f   UfsBlockIoLib:UfsBlockIoLib.obj
 0001:0000ea33       _UfsWriteBlocks            0000ec93 f   UfsBlockIoLib:UfsBlockIoLib.obj
 0001:0000eb81       _UfsGetMediaInfo           0000ede1 f   UfsBlockIoLib:UfsBlockIoLib.obj
 0001:0000ebd4       _VerifyUfsHcPlatformPostHceSwitchGear 0000ee34 f   UfsBlockIoLib:UfsBlockIoLib.obj
 0001:0000ec31       _InitializeUfs             0000ee91 f   UfsBlockIoLib:UfsBlockIoLib.obj
 0001:0000f054       _UfsWaitMemSet             0000f2b4 f   UfsBlockIoLib:UfsHci.obj
 0001:0000f0cc       _DumpUicCmdExecResult      0000f32c f   UfsBlockIoLib:UfsHci.obj
 0001:0000f190       _DumpQueryResponseResult   0000f3f0 f   UfsBlockIoLib:UfsHci.obj
 0001:0000f238       _SwapLittleEndianToBigEndian 0000f498 f   UfsBlockIoLib:UfsHci.obj
 0001:0000f25d       _UfsFillTsfOfQueryReqUpiu  0000f4bd f   UfsBlockIoLib:UfsHci.obj
 0001:0000f2ed       _UfsInitCommandUpiu        0000f54d f   UfsBlockIoLib:UfsHci.obj
 0001:0000f370       _UfsInitUtpPrdt            0000f5d0 f   UfsBlockIoLib:UfsHci.obj
 0001:0000f47b       _UfsInitQueryRequestUpiu   0000f6db f   UfsBlockIoLib:UfsHci.obj
 0001:0000f540       _UfsCreateScsiCommandDesc  0000f7a0 f   UfsBlockIoLib:UfsHci.obj
 0001:0000f726       _UfsCreateDMCommandDesc    0000f986 f   UfsBlockIoLib:UfsHci.obj
 0001:0000f94c       _UfsCreateNopCommandDesc   0000fbac f   UfsBlockIoLib:UfsHci.obj
 0001:0000fa4c       _UfsFindAvailableSlotInTrl 0000fcac f   UfsBlockIoLib:UfsHci.obj
 0001:0000facb       _UfsStartExecCmd           0000fd2b f   UfsBlockIoLib:UfsHci.obj
 0001:0000fb08       _UfsStopExecCmd            0000fd68 f   UfsBlockIoLib:UfsHci.obj
 0001:0000fb40       _UfsGetReturnDataFromQueryResponse 0000fda0 f   UfsBlockIoLib:UfsHci.obj
 0001:0000fc1c       _UfsSendDmRequestRetry     0000fe7c f   UfsBlockIoLib:UfsHci.obj
 0001:0000fdbe       _UfsSendDmRequest          0001001e f   UfsBlockIoLib:UfsHci.obj
 0001:0000fe01       _UfsRwDeviceDesc           00010061 f   UfsBlockIoLib:UfsHci.obj
 0001:0000fe88       _UfsRwAttributes           000100e8 f   UfsBlockIoLib:UfsHci.obj
 0001:0000fef4       _UfsRwFlags                00010154 f   UfsBlockIoLib:UfsHci.obj
 0001:0000ff7d       _UfsExecNopCmds            000101dd f   UfsBlockIoLib:UfsHci.obj
 0001:000100bf       _UfsExecScsiCmds           0001031f f   UfsBlockIoLib:UfsHci.obj
 0001:000102ab       _UfsExecUicCommands        0001050b f   UfsBlockIoLib:UfsHci.obj
 0001:000103be       _UfsEnableHostController   0001061e f   UfsBlockIoLib:UfsHci.obj
 0001:00010490       _UfsActivateAllLanes       000106f0 f   UfsBlockIoLib:UfsHci.obj
 0001:00010636       _UfsHsRecipieProgramming   00010896 f   UfsBlockIoLib:UfsHci.obj
 0001:00010787       _UfsDumpLinkConfig         000109e7 f   UfsBlockIoLib:UfsHci.obj
 0001:00010eb2       _UfsPowerModeAndGearSwitch 00011112 f   UfsBlockIoLib:UfsHci.obj
 0001:000112fd       _UfsDeviceDetection        0001155d f   UfsBlockIoLib:UfsHci.obj
 0001:000113a1       _UfsInitTaskManagementRequestList 00011601 f   UfsBlockIoLib:UfsHci.obj
 0001:000114b0       _UfsInitTransferRequestList 00011710 f   UfsBlockIoLib:UfsHci.obj
 0001:00011589       _UfsControllerInit         000117e9 f   UfsBlockIoLib:UfsHci.obj
 0001:00011650       _UfsControllerStop         000118b0 f   UfsBlockIoLib:UfsHci.obj
 0001:000116f5       _UfsAllocMemBlock          00011955 f   UfsBlockIoLib:UfsHcMem.obj
 0001:00011788       _UfsFreeMemBlock           000119e8 f   UfsBlockIoLib:UfsHcMem.obj
 0001:000117d0       _UfsAllocMemFromBlock      00011a30 f   UfsBlockIoLib:UfsHcMem.obj
 0001:000118f2       _UfsAllocateMem            00011b52 f   UfsBlockIoLib:UfsHcMem.obj
 0001:000119c9       _UfsFreeMem                00011c29 f   UfsBlockIoLib:UfsHcMem.obj
 0001:00011ae3       _InitializeSpi             00011d43 f   SpiBlockIoLib:SpiBlockIoLib.obj
 0001:00011b09       _SpiReadBlocks             00011d69 f   SpiBlockIoLib:SpiBlockIoLib.obj
 0001:00011b43       _SpiGetMediaInfo           00011da3 f   SpiBlockIoLib:SpiBlockIoLib.obj
 0001:00011b97       _InitializeMemoryDevice    00011df7 f   MemoryDeviceBlockIoLib:MemoryDeviceBlockIoLib.obj
 0001:00011b9a       _MemoryDeviceReadBlocks    00011dfa f   MemoryDeviceBlockIoLib:MemoryDeviceBlockIoLib.obj
 0001:00011bc5       _MemoryDeviceGetMediaInfo  00011e25 f   MemoryDeviceBlockIoLib:MemoryDeviceBlockIoLib.obj
 0001:00011be2       _EnumerateNvmeDevNamespace 00011e42 f   NvmExpressLib:NvmExpress.obj
 0001:00011e4e       _NvmeDeInitialize          000120ae f   NvmExpressLib:NvmExpress.obj
 0001:00011eb4       _NvmeInitialize            00012114 f   NvmExpressLib:NvmExpress.obj
 0001:000120b8       _NvmeGetMediaInfo          00012318 f   NvmExpressLib:NvmExpress.obj
 0001:000120fa       _NvmeReadBlocks            0001235a f   NvmExpressLib:NvmExpress.obj
 0001:0001213f       _NvmeWriteBlocks           0001239f f   NvmExpressLib:NvmExpress.obj
 0001:00012184       _NvmExpressDiskInfoSenseData 000123e4 f   NvmExpressLib:NvmExpressDiskInfo.obj
 0001:00012184       _NvmExpressDiskInfoInquiry 000123e4 f   NvmExpressLib:NvmExpressDiskInfo.obj
 0001:0001218a       _NvmExpressDiskInfoIdentify 000123ea f   NvmExpressLib:NvmExpressDiskInfo.obj
 0001:000121e4       _NvmExpressDiskInfoWhichIde 00012444 f   NvmExpressLib:NvmExpressDiskInfo.obj
 0001:000121ea       _NvmHcRwMmio               0001244a f   NvmExpressLib:NvmExpressHci.obj
 0001:0001229d       _WriteNvmeControllerConfiguration 000124fd f   NvmExpressLib:NvmExpressHci.obj
 0001:0001238c       _ReadNvmeControllerStatus  000125ec f   NvmExpressLib:NvmExpressHci.obj
 0001:000123be       _WriteNvmeAdminQueueAttributes 0001261e f   NvmExpressLib:NvmExpressHci.obj
 0001:0001243a       _WriteNvmeAdminSubmissionQueueBaseAddress 0001269a f   NvmExpressLib:NvmExpressHci.obj
 0001:0001249f       _WriteNvmeAdminCompletionQueueBaseAddress 000126ff f   NvmExpressLib:NvmExpressHci.obj
 0001:00012504       _NvmeDisableController     00012764 f   NvmExpressLib:NvmExpressHci.obj
 0001:000125c8       _NvmeEnableController      00012828 f   NvmExpressLib:NvmExpressHci.obj
 0001:00012661       _NvmeIdentifyController    000128c1 f   NvmExpressLib:NvmExpressHci.obj
 0001:000126fb       _NvmeIdentifyNamespace     0001295b f   NvmExpressLib:NvmExpressHci.obj
 0001:00012794       _NvmeCreateIoCompletionQueue 000129f4 f   NvmExpressLib:NvmExpressHci.obj
 0001:00012888       _NvmeCreateIoSubmissionQueue 00012ae8 f   NvmExpressLib:NvmExpressHci.obj
 0001:000129a5       _NvmeControllerInit        00012c05 f   NvmExpressLib:NvmExpressHci.obj
 0001:00012d9b       _ReadSectors               00012ffb f   NvmExpressLib:NvmExpressBlockIo.obj
 0001:00012e6c       _WriteSectors              000130cc f   NvmExpressLib:NvmExpressBlockIo.obj
 0001:00012f49       _NvmeRead                  000131a9 f   NvmExpressLib:NvmExpressBlockIo.obj
 0001:0001302b       _NvmeWrite                 0001328b f   NvmExpressLib:NvmExpressBlockIo.obj
 0001:0001310d       _NvmeFlush                 0001336d f   NvmExpressLib:NvmExpressBlockIo.obj
 0001:000131a6       _NvmeBlockIoReset          00013406 f   NvmExpressLib:NvmExpressBlockIo.obj
 0001:000131ef       _NvmeBlockIoReadBlocks     0001344f f   NvmExpressLib:NvmExpressBlockIo.obj
 0001:000132a4       _NvmeBlockIoWriteBlocks    00013504 f   NvmExpressLib:NvmExpressBlockIo.obj
 0001:00013359       _NvmeBlockIoFlushBlocks    000135b9 f   NvmExpressLib:NvmExpressBlockIo.obj
 0001:00013395       _TrustTransferNvmeDevice   000135f5 f   NvmExpressLib:NvmExpressBlockIo.obj
 0001:0001345c       _NvmeStorageSecurityReceiveData 000136bc f   NvmExpressLib:NvmExpressBlockIo.obj
 0001:000134eb       _NvmeStorageSecuritySendData 0001374b f   NvmExpressLib:NvmExpressBlockIo.obj
 0001:00013573       _NvmeDumpStatus            000137d3 f   NvmExpressLib:NvmExpressPassthru.obj
 0001:000138bf       _NvmeCreatePrpList         00013b1f f   NvmExpressLib:NvmExpressPassthru.obj
 0001:00013a83       _NvmExpressPassThru        00013ce3 f   NvmExpressLib:NvmExpressPassthru.obj
 0001:00014048       _NvmExpressGetNextNamespace 000142a8 f   NvmExpressLib:NvmExpressPassthru.obj
 0001:0001411d       _DumpCsd                   0001437d f   MmcAccessLib:MmcAccessLibGeneric.obj
 0001:00014411       _DumpExtCsd                00014671 f   MmcAccessLib:MmcAccessLibGeneric.obj
 0001:00014937       _MmcGetAllCid              00014b97 f   MmcAccessLib:MmcAccessLibGeneric.obj
 0001:000149b6       _MmcSetRca                 00014c16 f   MmcAccessLib:MmcAccessLibGeneric.obj
 0001:00014a2a       _MmcGetCsd                 00014c8a f   MmcAccessLib:MmcAccessLibGeneric.obj
 0001:00014ab0       _MmcSelect                 00014d10 f   MmcAccessLib:MmcAccessLibGeneric.obj
 0001:00014b1e       _MmcGetExtCsd              00014d7e f   MmcAccessLib:MmcAccessLibGeneric.obj
 0001:00014b8e       _MmcSetExtCsd              00014dee f   MmcAccessLib:MmcAccessLibGeneric.obj
 0001:00014c00       _MmcSwitch                 00014e60 f   MmcAccessLib:MmcAccessLibGeneric.obj
 0001:00014c7c       _MmcSendStatus             00014edc f   MmcAccessLib:MmcAccessLibGeneric.obj
 0001:00014cf6       _MmcSendTuningBlk          00014f56 f   MmcAccessLib:MmcAccessLibGeneric.obj
 0001:00014d7b       _MmcTuningClkForHs200      00014fdb f   MmcAccessLib:MmcAccessLibGeneric.obj
 0001:00014e3c       _MmcCheckSwitchStatus      0001509c f   MmcAccessLib:MmcAccessLibGeneric.obj
 0001:00014e8f       _MmcSwitchBusWidth         000150ef f   MmcAccessLib:MmcAccessLibGeneric.obj
 0001:00014f2c       _MmcSwitchClockFreq        0001518c f   MmcAccessLib:MmcAccessLibGeneric.obj
 0001:00014fe6       _MmcSwitchBusTiming        00015246 f   MmcAccessLib:MmcAccessLibGeneric.obj
 0001:000150d8       _MmcSwitchToHighSpeed      00015338 f   MmcAccessLib:MmcAccessLibGeneric.obj
 0001:00015168       _MmcSwitchToHS200          000153c8 f   MmcAccessLib:MmcAccessLibGeneric.obj
 0001:000151fb       _MmcSwitchToHS400          0001545b f   MmcAccessLib:MmcAccessLibGeneric.obj
 0001:000152ab       _SdCardSetBusWidth         0001550b f   MmcAccessLib:MmcAccessLibGeneric.obj
 0001:00015339       _SdCardSwitch              00015599 f   MmcAccessLib:MmcAccessLibGeneric.obj
 0001:000153c7       _SdCardSetBusMode          00015627 f   MmcAccessLib:MmcAccessLibGeneric.obj
 0001:0001553e       _MmcSetBusMode             0001579e f   MmcAccessLib:MmcAccessLibGeneric.obj
 0001:0001575c       _MmcStopTransmission       000159bc f   MmcAccessLib:MmcAccessLibGeneric.obj
 0001:000157c3       _MmcRwMultiBlocks          00015a23 f   MmcAccessLib:MmcAccessLibGeneric.obj
 0001:0001587d       _MmcReadWrite              00015add f   MmcAccessLib:MmcAccessLibGeneric.obj
 0001:00015aab       _MmcInitCardInfo           00015d0b f   MmcAccessLib:MmcAccessLibGeneric.obj
 0001:00015d6c       _ContinueMmcInitialize     00015fcc f   MmcAccessLib:MmcAccessLibGeneric.obj
 0001:00015ee7       _MmcIsInitialized          00016147 f   MmcAccessLib:MmcAccessLibGeneric.obj
 0001:00015eff       _MmcSelectPart             0001615f f   MmcAccessLib:MmcAccessLibGeneric.obj
 0001:00015fc6       _MmcReadBlocks             00016226 f   MmcAccessLib:MmcAccessLibGeneric.obj
 0001:0001601e       _MmcWriteBlocksExt         0001627e f   MmcAccessLib:MmcAccessLibGeneric.obj
 0001:00016077       _MmcWriteBlocks            000162d7 f   MmcAccessLib:MmcAccessLibGeneric.obj
 0001:0001609a       _MmcGetMediaInfo           000162fa f   MmcAccessLib:MmcAccessLibGeneric.obj
 0001:000160f9       _EmmcModeSelection         00016359 f   MmcAccessLib:MmcAccessLibGeneric.obj
 0001:000161cd       _EmmcGetSerialNumber       0001642d f   MmcAccessLib:MmcAccessLibGeneric.obj
 0001:000162bb       _MmcGetHcPrivateData       0001651b f   MmcAccessLib:MmcAccessLib.obj
 0001:00016318       _MmcReset                  00016578 f   MmcAccessLib:MmcAccessLib.obj
 0001:00016376       _MmcGetOcr                 000165d6 f   MmcAccessLib:MmcAccessLib.obj
 0001:000163e7       _SdCardVoltageCheck        00016647 f   MmcAccessLib:MmcAccessLib.obj
 0001:0001645e       _SdCardSendOpCond          000166be f   MmcAccessLib:MmcAccessLib.obj
 0001:000164f6       _EarlyMmcInitialize        00016756 f   MmcAccessLib:MmcAccessLib.obj
 0001:0001665d       _SdMmcInitialize           000168bd f   MmcAccessLib:MmcAccessLib.obj
 0001:000167da       _MmcInitialize             00016a3a f   MmcAccessLib:MmcAccessLib.obj
 0001:00016817       _SdInitialize              00016a77 f   MmcAccessLib:MmcAccessLib.obj
 0001:00016848       _DumpCapabilityReg         00016aa8 f   MmcAccessLib:SdMmcPciHci.obj
 0001:00016b42       _SdMmcHcRwMmio             00016da2 f   MmcAccessLib:SdMmcPciHci.obj
 0001:00016c03       _SdMmcHcOrMmio             00016e63 f   MmcAccessLib:SdMmcPciHci.obj
 0001:00016c80       _SdMmcHcAndMmio            00016ee0 f   MmcAccessLib:SdMmcPciHci.obj
 0001:00016cfd       _SdMmcHcCheckMmioSet       00016f5d f   MmcAccessLib:SdMmcPciHci.obj
 0001:00016d40       _SdMmcHcWaitMmioSet        00016fa0 f   MmcAccessLib:SdMmcPciHci.obj
 0001:00016d98       _SdMmcHcReset              00016ff8 f   MmcAccessLib:SdMmcPciHci.obj
 0001:00016e3a       _SdMmcHcStopClock          0001709a f   MmcAccessLib:SdMmcPciHci.obj
 0001:00016e77       _SdMmcHcClockSupply        000170d7 f   MmcAccessLib:SdMmcPciHci.obj
 0001:00017046       _SdMmcHcSetBusWidth        000172a6 f   MmcAccessLib:SdMmcPciHci.obj
 0001:000170e8       _SdMmcHcInitPowerVoltage   00017348 f   MmcAccessLib:SdMmcPciHci.obj
 0001:00017194       _SdMmcHcInitHost           000173f4 f   MmcAccessLib:SdMmcPciHci.obj
 0001:000171f4       _BuildAdmaDescTable        00017454 f   MmcAccessLib:SdMmcPciHci.obj
 0001:0001738d       _SdMmcCreateTrb            000175ed f   MmcAccessLib:SdMmcPciHci.obj
 0001:000174d5       _SdMmcWaitTrbEnv           00017735 f   MmcAccessLib:SdMmcPciHci.obj
 0001:0001755c       _SdMmcExecTrb              000177bc f   MmcAccessLib:SdMmcPciHci.obj
 0001:0001782c       _SdMmcCheckTrbResult       00017a8c f   MmcAccessLib:SdMmcPciHci.obj
 0001:00017ad7       _SdMmcWaitTrbResult        00017d37 f   MmcAccessLib:SdMmcPciHci.obj
 0001:00017b2f       _SdMmcSendCommand          00017d8f f   MmcAccessLib:SdMmcPciHci.obj
 0001:00017bd8       _ReverseBits               00017e38 f   Crc32Lib:Crc32.obj
 0001:00017bfe       _RuntimeDriverInitializeCrc32Table 00017e5e f   Crc32Lib:Crc32.obj
 0001:00017c39       _CalculateCrc32WithType    00017e99 f   Crc32Lib:Crc32.obj
 0001:00017c97       _ExtInitFileSystem         00017ef7 f   Ext23Lib:ExtLib.obj
 0001:00017d82       _ExtCloseFileSystem        00017fe2 f   Ext23Lib:ExtLib.obj
 0001:00017db6       _ExtFsOpenFile             00018016 f   Ext23Lib:ExtLib.obj
 0001:00017e61       _ExtFsGetFileSize          000180c1 f   Ext23Lib:ExtLib.obj
 0001:00017e93       _ExtFsReadFile             000180f3 f   Ext23Lib:ExtLib.obj
 0001:00017f12       _ExtFsCloseFile            00018172 f   Ext23Lib:ExtLib.obj
 0001:00017f28       _ExtFsListDir              00018188 f   Ext23Lib:ExtLib.obj
 0001:00017f6e       _Ext2fsLs                  000181ce f   Ext23Lib:Ext2FsLs.obj
 0001:000181cb       _BDevStrategy              0001842b f   Ext23Lib:Ext2Fs.obj
 0001:00018210       _ReadInode                 00018470 f   Ext23Lib:Ext2Fs.obj
 0001:00018606       _BufReadFile               00018866 f   Ext23Lib:Ext2Fs.obj
 0001:00018790       _Ext2SbValidate            000189f0 f   Ext23Lib:Ext2Fs.obj
 0001:00018871       _ReadSBlock                00018ad1 f   Ext23Lib:Ext2Fs.obj
 0001:0001894f       _ReadGDBlock               00018baf f   Ext23Lib:Ext2Fs.obj
 0001:00018aac       _Ext2fsOpen                00018d0c f   Ext23Lib:Ext2Fs.obj
 0001:00018dcb       _Ext2fsClose               0001902b f   Ext23Lib:Ext2Fs.obj
 0001:00018e10       _Ext2fsRead                00019070 f   Ext23Lib:Ext2Fs.obj
 0001:0001904a       _FatInitFileSystem         000192aa f   FatLib:FatLib.obj
 0001:000191aa       _FatCloseFileSystem        0001940a f   FatLib:FatLib.obj
 0001:000191e0       _FatFsOpenFile             00019440 f   FatLib:FatLib.obj
 0001:0001928b       _FatFsGetFileSize          000194eb f   FatLib:FatLib.obj
 0001:000192bd       _FatFsReadFile             0001951d f   FatLib:FatLib.obj
 0001:0001938c       _FatFsCloseFile            000195ec f   FatLib:FatLib.obj
 0001:000193cc       _FatFsListDir              0001962c f   FatLib:FatLib.obj
 0001:000194a8       _FatGetVolumeData          00019708 f   FatLib:FatLiteLib.obj
 0001:0001952c       _FatReadBlock              0001978c f   FatLib:FatLiteLib.obj
 0001:00019603       _FatGetCacheBlock          00019863 f   FatLib:FatLiteLib.obj
 0001:000196fd       _FatReadDisk               0001995d f   FatLib:FatLiteLib.obj
 0001:00019829       _EngStrniColl              00019a89 f   FatLib:FatLiteLib.obj
 0001:000198b0       _FatGetBpbInfo             00019b10 f   FatLib:FatLiteAccess.obj
 0001:00019b3c       _FatGetNextCluster         00019d9c f   FatLib:FatLiteAccess.obj
 0001:00019c82       _FatSetFilePos             00019ee2 f   FatLib:FatLiteAccess.obj
 0001:00019e1f       _FatReadFile               0001a07f f   FatLib:FatLiteAccess.obj
 0001:00019f70       _FatReadNextDirectoryEntry 0001a1d0 f   FatLib:FatLiteAccess.obj
 0001:0001a1c2       _VerifyRsaPkcs1Signature   0001a422 f   IppCryptoLib:rsa_verify.obj
 0001:0001a371       _VerifyRsaPssSignature     0001a5d1 f   IppCryptoLib:rsa_verify.obj
 0001:0001a4ec       _ippsRSA_InitPublicKey@16  0001a74c f   IppCryptoLib:pcpngrsakeypublic.obj
 0001:0001a55d       _ippsRSA_SetPublicKey@12   0001a7bd f   IppCryptoLib:pcpngrsakeypublic.obj
 0001:0001a626       _ippsBigNumInit@8          0001a886 f   IppCryptoLib:pcpbnca.obj
 0001:0001a7fd       _ippsRSAVerify_PSS_rmf@28  0001aa5d f   IppCryptoLib:pcpngrsapss_rmf.obj
 0001:0001aa6c       _ippsSetOctString_BN@12    0001accc f   IppCryptoLib:pcpbnsetca.obj
 0001:0001aab3       _ippsGetOctString_BN@12    0001ad13 f   IppCryptoLib:pcpbnsetca.obj
 0001:0001ab1f       _ippsRSA_GetBufferSizePublicKey@8 0001ad7f f   IppCryptoLib:pcpngrsaencodec.obj
 0001:0001ab57       _gsRSApub_cipher           0001adb7 f   IppCryptoLib:pcpngrsaencodec.obj
 0001:0001aba8       _sha256_hashInit           0001ae08 f   IppCryptoLib:pcpsha256ca.obj
 0001:0001abe4       _sha256_hashUpdate         0001ae44 f   IppCryptoLib:pcpsha256ca.obj
 0001:0001abfe       _sha256_hashOctString      0001ae5e f   IppCryptoLib:pcpsha256ca.obj
 0001:0001ac5f       _sha256_msgRep             0001aebf f   IppCryptoLib:pcpsha256ca.obj
 0001:0001ae74       _ippsHashInit_rmf@8        0001b0d4 f   IppCryptoLib:pcphashca_rmf.obj
 0001:0001aeab       _ippsHashUpdate_rmf@12     0001b10b f   IppCryptoLib:pcphashca_rmf.obj
 0001:0001afeb       _cpFinalize_rmf            0001b24b f   IppCryptoLib:pcphashca_rmf.obj
 0001:0001b087       _ippsHashFinal_rmf@8       0001b2e7 f   IppCryptoLib:pcphashca_rmf.obj
 0001:0001b0f9       _ippsHashMessage_rmf@16    0001b359 f   IppCryptoLib:pcphashca_rmf.obj
 0001:0001b167       _cpNLZ_BNU                 0001b3c7 f   IppCryptoLib:pcpbnumisc.obj
 0001:0001b167       _cpNLZ_BNU32               0001b3c7 f   IppCryptoLib:pcpbnu32misc.obj
 0001:0001b1ae       _cpFromOctStr_BNU          0001b40e f   IppCryptoLib:pcpbnumisc.obj
 0001:0001b235       _cpToOctStr_BNU            0001b495 f   IppCryptoLib:pcpbnumisc.obj
 0001:0001b6eb       _gsMontFactor              0001b94b f   IppCryptoLib:gsmodstuff.obj
 0001:0001b76f       _gsModEngineInit           0001b9cf f   IppCryptoLib:gsmodstuff.obj
 0001:0001b8dc       _gsMontExpBin_BNU          0001bb3c f   IppCryptoLib:pcpngrsamontstuff.obj
 0001:0001baa8       _gsPubBuffer_gpr           0001bd08 f   IppCryptoLib:pcpngrsamontstuff.obj
 0001:0001baed       _cpAdd_BNU32               0001bd4d f   IppCryptoLib:pcpbnu32arith.obj
 0001:0001bb4d       _cpDiv_BNU32               0001bdad f   IppCryptoLib:pcpbnu32arith.obj
 0001:0001bf30       _cpSub_BNU                 0001c190 f   IppCryptoLib:pcpbnuarith.obj
 0001:0001bf74       _ippsMGF1_rmf@20           0001c1d4 f   IppCryptoLib:pcpmgf1ca_rmf.obj
 0001:0001c05c       _HeciRevokeOemKey          0001c2bc f   HeciDxeMeExtLib:HeciMeExtLib.obj
 0001:0001c0d6       _PeiHubEnumeration         0001c336 f   UsbBusPei:UsbPeim.obj
 0001:0001c435       _PeiUsbEnumeration         0001c695 f   UsbBusPei:UsbPeim.obj
 0001:0001c75b       _PeiConfigureUsbDevice     0001c9bb f   UsbBusPei:UsbPeim.obj
 0001:0001c915       _PeiUsbGetAllConfiguration 0001cb75 f   UsbBusPei:UsbPeim.obj
 0001:0001cac3       _GetExpectedDescriptor     0001cd23 f   UsbBusPei:UsbPeim.obj
 0001:0001cb45       _ResetRootPort             0001cda5 f   UsbBusPei:UsbPeim.obj
 0001:0001cd21       _PeiUsbGetDescriptor       0001cf81 f   UsbBusPei:PeiUsbLib.obj
 0001:0001cd7c       _PeiUsbSetDeviceAddress    0001cfdc f   UsbBusPei:PeiUsbLib.obj
 0001:0001cdcc       _PeiUsbSetConfiguration    0001d02c f   UsbBusPei:PeiUsbLib.obj
 0001:0001ce09       _PeiUsbGetDeviceSpeed      0001d069 f   UsbBusPei:PeiUsbLib.obj
 0001:0001ce34       _PeiUsbControlTransfer     0001d094 f   UsbBusPei:UsbIoPeim.obj
 0001:0001cf79       _PeiUsbBulkTransfer        0001d1d9 f   UsbBusPei:UsbIoPeim.obj
 0001:0001d0de       _PeiUsbGetInterfaceDescriptor 0001d33e f   UsbBusPei:UsbIoPeim.obj
 0001:0001d116       _PeiUsbGetEndpointDescriptor 0001d376 f   UsbBusPei:UsbIoPeim.obj
 0001:0001d19d       _PeiUsbPortReset           0001d3fd f   UsbBusPei:UsbIoPeim.obj
 0001:0001d20d       _PeiHubGetPortStatus       0001d46d f   UsbBusPei:HubPeim.obj
 0001:0001d24f       _PeiHubSetPortFeature      0001d4af f   UsbBusPei:HubPeim.obj
 0001:0001d291       _PeiHubClearPortFeature    0001d4f1 f   UsbBusPei:HubPeim.obj
 0001:0001d2d3       _PeiHubClearHubFeature     0001d533 f   UsbBusPei:HubPeim.obj
 0001:0001d30d       _PeiGetHubDescriptor       0001d56d f   UsbBusPei:HubPeim.obj
 0001:0001d363       _PeiUsbHubCtrlSetHubDepth  0001d5c3 f   UsbBusPei:HubPeim.obj
 0001:0001d3a9       _PeiDoHubConfig            0001d609 f   UsbBusPei:HubPeim.obj
 0001:0001d4fd       _PeiResetHubPort           0001d75d f   UsbBusPei:HubPeim.obj
 0001:0001d5ce       _RegisterUsbDevice         0001d82e f   UsbInitLib:UsbInitLib.obj
 0001:0001d5f3       _DeinitUsbDevices          0001d853 f   UsbInitLib:UsbInitLib.obj
 0001:0001d689       _InitUsbDevices            0001d8e9 f   UsbInitLib:UsbInitLib.obj
 0001:0001d78a       _IoMmuAllocateBuffer       0001d9ea f   IoMmuLib:IoMmuLib.obj
 0001:0001d7ce       _IoMmuAllocateAlignedBuffer 0001da2e f   IoMmuLib:IoMmuLib.obj
 0001:0001d84a       _GetVariableInstance       0001daaa f   LiteVariableLib:LiteVariableLib.obj
 0001:0001d88a       _EraseVariableStore        0001daea f   LiteVariableLib:LiteVariableLib.obj
 0001:0001d8fa       _WriteVariableStore        0001db5a f   LiteVariableLib:LiteVariableLib.obj
 0001:0001d96a       _GetActiveVaraibelStoreBase 0001dbca f   LiteVariableLib:LiteVariableLib.obj
 0001:0001d9d2       _InternalGetVariable       0001dc32 f   LiteVariableLib:LiteVariableLib.obj
 0001:0001daf0       _GetNextVariableName       0001dd50 f   LiteVariableLib:LiteVariableLib.obj
 0001:0001dbfb       _Reclaim                   0001de5b f   LiteVariableLib:LiteVariableLib.obj
 0001:0001dd92       _SetVariable               0001dff2 f   LiteVariableLib:LiteVariableLib.obj
 0001:0001e23b       _HeciPacketRead            0001e49b f   HeciLib:HeciCore.obj
 0001:0001e4ce       _HeciReceive               0001e72e f   HeciLib:HeciCore.obj
 0001:0001e5de       _HeciSend                  0001e83e f   HeciLib:HeciCore.obj
 0001:0001e70b       _HeciSendwAck              0001e96b f   HeciLib:HeciCore.obj
 0001:0001e764       _HeciResetInterface        0001e9c4 f   HeciLib:HeciCore.obj
 0001:0001e877       _HeciGetMeMode             0001ead7 f   HeciLib:HeciLib.obj
 0001:0001e904       _XhcPeiReadOpReg           0001eb64 f   XhciLib:XhcPeim.obj
 0001:0001e93b       _XhcPeiWriteOpReg          0001eb9b f   XhciLib:XhcPeim.obj
 0001:0001e973       _XhcPeiWaitOpRegBit        0001ebd3 f   XhciLib:XhcPeim.obj
 0001:0001e9f1       _XhcPeiWriteDoorBellReg    0001ec51 f   XhciLib:XhcPeim.obj
 0001:0001ea28       _XhcPeiReadRuntimeReg      0001ec88 f   XhciLib:XhcPeim.obj
 0001:0001ea5e       _XhcPeiWriteRuntimeReg     0001ecbe f   XhciLib:XhcPeim.obj
 0001:0001ea95       _XhcPeiResetHC             0001ecf5 f   XhciLib:XhcPeim.obj
 0001:0001eb04       _XhcPeiHaltHC              0001ed64 f   XhciLib:XhcPeim.obj
 0001:0001eb4d       _XhcPeiRunHC               0001edad f   XhciLib:XhcPeim.obj
 0001:0001eb95       _XhcPeiControlTransfer     0001edf5 f   XhciLib:XhcPeim.obj
 0001:0001f2af       _XhcPeiBulkTransfer        0001f50f f   XhciLib:XhcPeim.obj
 0001:0001f4ab       _XhcPeiGetRootHubPortNumber 0001f70b f   XhciLib:XhcPeim.obj
 0001:0001f503       _XhcPeiClearRootHubPortFeature 0001f763 f   XhciLib:XhcPeim.obj
 0001:0001f628       _XhcPeiSetRootHubPortFeature 0001f888 f   XhciLib:XhcPeim.obj
 0001:0001f761       _XhcPeiGetRootHubPortStatus 0001f9c1 f   XhciLib:XhcPeim.obj
 0001:0001f8d3       _XhcPeiFreeDevContext      0001fb33 f   XhciLib:XhcPeim.obj
 0001:0001f955       _UsbDeinitCtrl             0001fbb5 f   XhciLib:XhcPeim.obj
 0001:0001f9ae       _UsbInitCtrl               0001fc0e f   XhciLib:XhcPeim.obj
 0001:0001fb9f       _XhcPeiCreateCmdTrb        0001fdff f   XhciLib:XhciSched.obj
 0001:0001fbfd       _XhcPeiCmdTransfer         0001fe5d f   XhciLib:XhciSched.obj
 0001:0001fca5       _XhcPeiCreateUrb           0001ff05 f   XhciLib:XhciSched.obj
 0001:0001fd39       _XhcPeiCreateTransferTrb   0001ff99 f   XhciLib:XhciSched.obj
 0001:000200f5       _XhcPeiRecoverHaltedEndpoint 00020355 f   XhciLib:XhciSched.obj
 0001:0002019c       _XhcPeiDequeueTrbFromEndpoint 000203fc f   XhciLib:XhciSched.obj
 0001:00020243       _XhcPeiIsTransferRingTrb   000204a3 f   XhciLib:XhciSched.obj
 0001:00020291       _XhcPeiCheckUrbResult      000204f1 f   XhciLib:XhciSched.obj
 0001:0002059d       _XhcPeiExecTransfer        000207fd f   XhciLib:XhciSched.obj
 0001:00020691       _XhcPeiPollPortStatusChange 000208f1 f   XhciLib:XhciSched.obj
 0001:000207d0       _XhcPeiEndpointToDci       00020a30 f   XhciLib:XhciSched.obj
 0001:00020805       _XhcPeiBusDevAddrToSlotId  00020a65 f   XhciLib:XhciSched.obj
 0001:00020850       _XhcPeiRouteStringToSlotId 00020ab0 f   XhciLib:XhciSched.obj
 0001:0002089f       _XhcPeiRingDoorBell        00020aff f   XhciLib:XhciSched.obj
 0001:000208bc       _XhcPeiInitializeDeviceSlot 00020b1c f   XhciLib:XhciSched.obj
 0001:00020cc4       _XhcPeiInitializeDeviceSlot64 00020f24 f   XhciLib:XhciSched.obj
 0001:000210ed       _XhcPeiDisableSlotCmd      0002134d f   XhciLib:XhciSched.obj
 0001:000212ad       _XhcPeiDisableSlotCmd64    0002150d f   XhciLib:XhciSched.obj
 0001:0002145a       _XhcPeiSetConfigCmd        000216ba f   XhciLib:XhciSched.obj
 0001:00021885       _XhcPeiSetConfigCmd64      00021ae5 f   XhciLib:XhciSched.obj
 0001:00021ccc       _XhcPeiEvaluateContext     00021f2c f   XhciLib:XhciSched.obj
 0001:00021dbf       _XhcPeiEvaluateContext64   0002201f f   XhciLib:XhciSched.obj
 0001:00021eb5       _XhcPeiConfigHubContext    00022115 f   XhciLib:XhciSched.obj
 0001:00021fe8       _XhcPeiConfigHubContext64  00022248 f   XhciLib:XhciSched.obj
 0001:0002211b       _XhcPeiStopEndpoint        0002237b f   XhciLib:XhciSched.obj
 0001:000221a5       _XhcPeiResetEndpoint       00022405 f   XhciLib:XhciSched.obj
 0001:0002222f       _XhcPeiSetTrDequeuePointer 0002248f f   XhciLib:XhciSched.obj
 0001:000222f7       _XhcPeiSyncEventRing       00022557 f   XhciLib:XhciSched.obj
 0001:00022371       _XhcPeiCreateEventRing     000225d1 f   XhciLib:XhciSched.obj
 0001:0002253d       _XhcPeiSyncTrsRing         0002279d f   XhciLib:XhciSched.obj
 0001:00022611       _XhcPeiCreateTransferRing  00022871 f   XhciLib:XhciSched.obj
 0001:000226e8       _XhcPeiInitSched           00022948 f   XhciLib:XhciSched.obj
 0001:00022abb       _XhcPeiFreeSched           00022d1b f   XhciLib:XhciSched.obj
 0001:00022bd6       _UsbHcAllocMemBlock        00022e36 f   XhciLib:UsbHcMem.obj
 0001:00022c94       _UsbHcFreeMemBlock         00022ef4 f   XhciLib:UsbHcMem.obj
 0001:00022d05       _UsbHcAllocMemFromBlock    00022f65 f   XhciLib:UsbHcMem.obj
 0001:00022e29       _UsbHcGetPciAddrForHostAddr 00023089 f   XhciLib:UsbHcMem.obj
 0001:00022e85       _UsbHcGetHostAddrForPciAddr 000230e5 f   XhciLib:UsbHcMem.obj
 0001:00022ed7       _UsbHcInitMemPool          00023137 f   XhciLib:UsbHcMem.obj
 0001:00022f48       _UsbHcAllocateMem          000231a8 f   XhciLib:UsbHcMem.obj
 0001:00023021       _UsbHcFreeMem              00023281 f   XhciLib:UsbHcMem.obj
 0001:0002313c       _UsbHcAllocateAlignedPages 0002339c f   XhciLib:UsbHcMem.obj
 0001:000231b7       _UsbHcFreeAlignedPages     00023417 f   XhciLib:UsbHcMem.obj
 0001:000231eb       _MeGetHeciMmPciAddress     0002344b f   MeChipsetLib:MeChipsetLib.obj
 0002:00000000       ??_C@_0BI@NPOGIIFE@?$CIRsvdBase?5?$CG?50xFFF?$CJ?5?$DN?$DN?50@ 000234c0     PayloadEntryLib:PayloadEntryLib.obj
 0002:00000018       ??_C@_0FP@DICJNDKD@e?3?2code?2adl_n100_code?2sblplatfo@ 000234d8     PayloadEntryLib:PayloadEntryLib.obj
 0002:00000078       ??_C@_0BO@JAJJINBE@GlobalDataPtr?5?$CB?$DN?5?$CI?$CIvoid?5?$CK?$CJ?50?$CJ@ 00023538     PayloadEntryLib:PayloadEntryLib.obj
 0002:00000098       ??_C@_0CB@DMEJJJHA@?6ASSERT_EFI_ERROR?5?$CIStatus?5?$DN?5?$CFr?$CJ@ 00023558     PayloadEntryLib:PayloadEntryLib.obj
 0002:000000bc       ??_C@_0DL@BHHBDFLN@?$CIUINT32?$CJ?$CIUINTN?$CJLoaderPlatformDa@ 0002357c     PayloadEntryLib:PayloadEntryLib.obj
 0002:000000f8       ??_C@_0BC@MAMPBCJJ@?6Payload?5startup?6@ 000235b8     PayloadEntryLib:PayloadEntryLib.obj
 0002:0000010c       ??_C@_0BH@LCLLLHKG@BufPtr?5?$CB?$DN?5?$CI?$CIvoid?5?$CK?$CJ?50?$CJ@ 000235cc     PayloadEntryLib:PayloadEntryLib.obj
 0002:00000124       ??_C@_0P@PPAEDPDB@FirmwareUpdate@ 000235e4     FirmwareUpdate:AutoGen.obj
 0002:00000134       __gPcd_FixedAtBuild_PcdControlFlowEnforcementPropertyMask 000235f4     FirmwareUpdate:AutoGen.obj
 0002:00000138       ??_C@_0CI@BKMKDAGI@Failed?5to?5get?5current?5firmware?5@ 000235f8     FirmwareUpdate:FirmwareUpdate.obj
 0002:00000160       ??_C@_0DP@DJDECNJO@Getting?5SBL?5version?5from?5Stage1@ 00023620     FirmwareUpdate:FirmwareUpdate.obj
 0002:000001a0       ??_C@_0CP@PKNMGJEI@Updating?5status?5to?5reserved?5reg@ 00023660     FirmwareUpdate:FirmwareUpdate.obj
 0002:000001d0       ??_C@_0DK@POGGLCKN@?5Updating?5Slim?5Bootloader?5from?5@ 00023690     FirmwareUpdate:FirmwareUpdate.obj
 0002:00000210       ??_C@_0EK@BAIOBLHC@Antirollback?5?9?5Could?5not?5rollba@ 000236d0     FirmwareUpdate:FirmwareUpdate.obj
 0002:0000025c       ??_C@_0CM@DOCIAFMG@Capsule?5update?5is?5for?5Config?5da@ 0002371c     FirmwareUpdate:FirmwareUpdate.obj
 0002:00000288       ??_C@_0CH@CFONNBPK@Config?5blob?5update?5Svn?5check?5fa@ 00023748     FirmwareUpdate:FirmwareUpdate.obj
 0002:000002b0       ??_C@_0CE@BAAJALCG@Capsule?5update?5is?5for?5ACM?5regio@ 00023770     FirmwareUpdate:FirmwareUpdate.obj
 0002:000002d4       ??_C@_0CG@OEMDPCJK@Capsule?5update?5is?5for?5UCODE?5reg@ 00023794     FirmwareUpdate:FirmwareUpdate.obj
 0002:000002fc       ??_C@_0CI@PJGIHEN@Set?5the?5bit?5array?5of?5retry?5coun@ 000237bc     FirmwareUpdate:FirmwareUpdate.obj
 0002:00000324       ??_C@_0CK@OLPDJHJD@Current?5bit?5array?5of?5retry?5coun@ 000237e4     FirmwareUpdate:FirmwareUpdate.obj
 0002:00000350       ??_C@_0CP@PGDDCPGD@BootMediaWrite?4?5offset?3?50x?$CF04x?0@ 00023810     FirmwareUpdate:FirmwareUpdate.obj
 0002:00000380       ??_C@_0BM@JLNEHEDK@Set?5next?5FWU?5state?3?50x?$CF02X?6@ 00023840     FirmwareUpdate:FirmwareUpdate.obj
 0002:0000039c       ??_C@_0DC@NHNHBOOK@BootMediaWrite?4?5?5readaddr?3?50x?$CFl@ 0002385c     FirmwareUpdate:FirmwareUpdate.obj
 0002:000003d0       ??_C@_0CM@NFKBJEDC@Could?5not?5get?5loader?5platform?5i@ 00023890     FirmwareUpdate:FirmwareUpdate.obj
 0002:000003fc       ??_C@_0BP@GFDALPCL@Get?5current?5FWU?5state?3?50x?$CF02X?6@ 000238bc     FirmwareUpdate:FirmwareUpdate.obj
 0002:0000041c       ??_C@_0CL@ELAAPEPP@Unable?5to?5switch?5to?5partition?5B@ 000238dc     FirmwareUpdate:FirmwareUpdate.obj
 0002:00000448       ??_C@_0EC@LHFKEANE@Unable?5to?5switch?5to?5partition?5B@ 00023908     FirmwareUpdate:FirmwareUpdate.obj
 0002:0000048c       ??_C@_0CL@PGMKJIDB@Unable?5to?5switch?5to?5partition?5A@ 0002394c     FirmwareUpdate:FirmwareUpdate.obj
 0002:000004b8       ??_C@_0EC@NDLKDLCK@Unable?5to?5switch?5to?5partition?5A@ 00023978     FirmwareUpdate:FirmwareUpdate.obj
 0002:000004fc       ??_C@_0CP@GKEEINLI@Set?5state?5machine?5flag?5failed?5w@ 000239bc     FirmwareUpdate:FirmwareUpdate.obj
 0002:0000052c       ??_C@_0CJ@NOOILHLE@Set?5top?5swap?5bit?5failed?5with?5st@ 000239ec     FirmwareUpdate:FirmwareUpdate.obj
 0002:00000558       ??_C@_0CO@KJKLFHCH@Clearing?5top?5swap?5bit?5failed?5wi@ 00023a18     FirmwareUpdate:FirmwareUpdate.obj
 0002:00000588       ??_C@_0CO@BEPKAGJE@BootMediaRead?4?5offset?3?50x?$CFllx?0?5@ 00023a48     FirmwareUpdate:FirmwareUpdate.obj
 0002:000005b8       ??_C@_0CG@JOIGECBD@Found?5the?5component?5to?5update?5s@ 00023a78     FirmwareUpdate:FirmwareUpdate.obj
 0002:000005e0       ??_C@_0CP@LGOHIDKC@Could?5not?5find?5the?5component?5to@ 00023aa0     FirmwareUpdate:FirmwareUpdate.obj
 0002:00000610       ??_C@_0DG@KKDEFAOP@Updating?5last?5attempt?5version?5f@ 00023ad0     FirmwareUpdate:FirmwareUpdate.obj
 0002:00000648       ??_C@_0DF@PACPFBBN@Updating?5last?5attempt?5status?5fa@ 00023b08     FirmwareUpdate:FirmwareUpdate.obj
 0002:00000680       ??_C@_0CP@PPCHPNEC@Updating?5updatepending?5failed?5w@ 00023b40     FirmwareUpdate:FirmwareUpdate.obj
 0002:000006b0       ??_C@_0DE@LLNCLBEJ@Firmware?5Update?5status?5updated?5@ 00023b70     FirmwareUpdate:FirmwareUpdate.obj
 0002:000006e4       ??_C@_0DC@EJGJBKMF@Invalid?5capsule?3?5file?5is?5too?5sm@ 00023ba4     FirmwareUpdate:FirmwareUpdate.obj
 0002:00000718       ??_C@_0DL@HDFJEOLG@Invalid?5capsule?3?5Image?5file?5gui@ 00023bd8     FirmwareUpdate:FirmwareUpdate.obj
 0002:00000754       ??_C@_0DL@PHOBDBAO@Invalid?5capsule?3?5SignatureOffse@ 00023c14     FirmwareUpdate:FirmwareUpdate.obj
 0002:00000790       ??_C@_0DF@BCOHMMCG@Invalid?5capsule?3?5PubKeyOffset?$DN0@ 00023c50     FirmwareUpdate:FirmwareUpdate.obj
 0002:000007c8       ??_C@_0DD@LKGGPKGN@Invalid?5capsule?3?5ImageOffset?$DN0x@ 00023c88     FirmwareUpdate:FirmwareUpdate.obj
 0002:000007fc       ??_C@_0CA@LOECAJKI@Image?5verification?5failed?0?5?$CFr?$CB?6@ 00023cbc     FirmwareUpdate:FirmwareUpdate.obj
 0002:0000081c       ??_C@_0CC@KNLGOPAJ@Invalid?5capsule?5body?3?5no?5payloa@ 00023cdc     FirmwareUpdate:FirmwareUpdate.obj
 0002:00000840       ??_C@_0CP@MKKAFMEP@Invalid?5offset?5?$CI0x?$CFx?$CJ?3?5not?5in?5p@ 00023d00     FirmwareUpdate:FirmwareUpdate.obj
 0002:00000870       ??_C@_0DD@MNJJEIG@Invalid?5offset?5?$CI0x?$CFx?$CJ?3?5no?5room?5@ 00023d30     FirmwareUpdate:FirmwareUpdate.obj
 0002:000008a4       ??_C@_0CL@JBEGPLIA@Invalid?5payload?5header?3?5zero?5pa@ 00023d64     FirmwareUpdate:FirmwareUpdate.obj
 0002:000008d0       ??_C@_0CP@LBFADCMF@Invalid?5payload?5size?3?5exceed?5ca@ 00023d90     FirmwareUpdate:FirmwareUpdate.obj
 0002:00000900       ??_C@_0DI@LNDHDIPA@Invalid?5capsule?5payload?5boundar@ 00023dc0     FirmwareUpdate:FirmwareUpdate.obj
 0002:00000938       ??_C@_0CG@IGBJGOHM@BootMediaErase?5failed?5with?5stat@ 00023df8     FirmwareUpdate:FirmwareUpdate.obj
 0002:00000960       ??_C@_0FD@KJGNEKD@?$CD?5of?5payloads?$CI?$CFd?$CJ?5in?5capsule?5ex@ 00023e20     FirmwareUpdate:FirmwareUpdate.obj
 0002:000009b4       ??_C@_0CI@PLNPNMAI@ProcessCapsule?5adds?5payload?3?5?$CF0@ 00023e74     FirmwareUpdate:FirmwareUpdate.obj
 0002:000009dc       ??_C@_0CP@KHNANDBM@BootMediaWrite?4?5offset?3?50x?$CFllx?0@ 00023e9c     FirmwareUpdate:FirmwareUpdate.obj
 0002:00000a0c       ??_C@_0BJ@CIIBHMKG@ApplyFwImage?3?5?$CF04X?3?$CF04X?6@ 00023ecc     FirmwareUpdate:FirmwareUpdate.obj
 0002:00000a28       ??_C@_0CH@HJFDGACP@Reboot?5for?5CSME?5update?5to?5take?5@ 00023ee8     FirmwareUpdate:FirmwareUpdate.obj
 0002:00000a50       ??_C@_0CJ@GFBLCMBG@GetCapsuleImage?5failed?5with?5sta@ 00023f10     FirmwareUpdate:FirmwareUpdate.obj
 0002:00000a7c       ??_C@_0CH@JCLBANMM@CapsuleImage?3?50x?$CFp?0?5CapsuleSize@ 00023f3c     FirmwareUpdate:FirmwareUpdate.obj
 0002:00000aa4       ??_C@_0CE@PCEEECKN@AuthenticateCapsule?0?5Status?5?$DN?50@ 00023f64     FirmwareUpdate:FirmwareUpdate.obj
 0002:00000ac8       ??_C@_0BP@HOEOAFJJ@ProcessCapsule?0?5Status?5?$DN?50x?$CFx?6@ 00023f88     FirmwareUpdate:FirmwareUpdate.obj
 0002:00000ae8       ??_C@_0CJ@JGBKHDOD@CheckCapsuleForRedundant?0?5Statu@ 00023fa8     FirmwareUpdate:FirmwareUpdate.obj
 0002:00000b14       ??_C@_0CE@FCOFDEJL@Full?5BIOS?5region?5update?5status?3@ 00023fd4     FirmwareUpdate:FirmwareUpdate.obj
 0002:00000b38       ??_C@_0CG@LNPJHCPD@EnforceFwUpdatePolicy?3?5Status?5?$DN@ 00023ff8     FirmwareUpdate:FirmwareUpdate.obj
 0002:00000b60       ??_C@_0DC@GGBFABFF@ApplyFwImage?5?$CI?$CF04X?3?$CF04X?$CJ?5failed@ 00024020     FirmwareUpdate:FirmwareUpdate.obj
 0002:00000b94       ??_C@_0CP@CFELDPMF@FindImage?5?$CI?$CF04X?3?$CF04X?$CJ?5failed?5wi@ 00024054     FirmwareUpdate:FirmwareUpdate.obj
 0002:00000bc4       ??_C@_0DJ@MHHKAAAL@Unable?5to?5find?5a?5critical?5compo@ 00024084     FirmwareUpdate:FirmwareUpdate.obj
 0002:00000c00       ??_C@_0CC@HKMFAGL@UpdateStatus?5failed?$CB?5Status?5?$DN?5?$CF@ 000240c0     FirmwareUpdate:FirmwareUpdate.obj
 0002:00000c24       ??_C@_0DL@EDPLEJGH@Failed?5to?5update?5a?5critical?5com@ 000240e4     FirmwareUpdate:FirmwareUpdate.obj
 0002:00000c60       ??_C@_0DG@LNNIPGON@AfterUpdateEnforceFwUpdatePolic@ 00024120     FirmwareUpdate:FirmwareUpdate.obj
 0002:00000c98       ??_C@_0CE@IPIBJBHA@UpdateBootPartition?0?5Status?5?$DN?50@ 00024158     FirmwareUpdate:FirmwareUpdate.obj
 0002:00000cbc       ??_C@_0CD@OCPHGJGG@Starting?5Firmware?5Update?1Recove@ 0002417c     FirmwareUpdate:FirmwareUpdate.obj
 0002:00000ce0       ??_C@_0BJ@EGNHDIAD@Could?5not?5get?5flash?5map?6@ 000241a0     FirmwareUpdate:FirmwareUpdate.obj
 0002:00000d00       ??_C@_0EE@NNMLLGBL@Could?5not?5get?5component?5informa@ 000241c0     FirmwareUpdate:FirmwareUpdate.obj
 0002:00000d44       ??_C@_0BK@IHGPFEN@BIOS?5Region?5Size?3?50x?$CF08X?6@ 00024204     FirmwareUpdate:FirmwareUpdate.obj
 0002:00000d60       ??_C@_0BK@LFLHINBP@SBL?5?5ROM?5?5?5?5Size?3?50x?$CF08X?6@ 00024220     FirmwareUpdate:FirmwareUpdate.obj
 0002:00000d7c       ??_C@_0CG@CAHPBPO@Could?5not?5fit?5image?5into?5BIOS?5r@ 0002423c     FirmwareUpdate:FirmwareUpdate.obj
 0002:00000da4       ??_C@_0BG@HEGKGDNL@Triggered?5FW?5update?$CB?6@ 00024264     FirmwareUpdate:FirmwareUpdate.obj
 0002:00000dbc       ??_C@_0CJ@MKIADAKJ@Firmware?5update?5failed?5with?5Sta@ 0002427c     FirmwareUpdate:FirmwareUpdate.obj
 0002:00000de8       ??_C@_0CG@GKJOFNBI@Exiting?5Firmware?5Update?5?$CIStatus@ 000242a8     FirmwareUpdate:FirmwareUpdate.obj
 0002:00000e10       ??_C@_0DM@MEGBBCG@Error?5getting?5top?5swap?5region?5s@ 000242d0     FirmwareUpdate:FirmwareUpdateHelper.obj
 0002:00000e4c       ??_C@_0DB@PBGGBDDF@Getting?5firmware?5version?5failed@ 0002430c     FirmwareUpdate:FirmwareUpdateHelper.obj
 0002:00000e80       ??_C@_0BG@DLBEIBIF@GetFfsFileByName?3?5?$CFr?6@ 00024340     FirmwareUpdate:FirmwareUpdateHelper.obj
 0002:00000e98       ??_C@_0BG@MGDBFMGA@GetSectionByType?3?5?$CFr?6@ 00024358     FirmwareUpdate:FirmwareUpdateHelper.obj
 0002:00000eb0       ??_C@_0DB@BPAFKMON@BootMediaRead?4?5?5readaddr?3?50x?$CFll@ 00024370     FirmwareUpdate:FirmwareUpdateHelper.obj
 0002:00000ee4       ??_C@_01LFCBOECM@?4@       000243a4     FirmwareUpdate:FirmwareUpdateHelper.obj
 0002:00000ee8       ??_C@_01FJMABOPO@x@        000243a8     FirmwareUpdate:FirmwareUpdateHelper.obj
 0002:00000eec       ??_C@_0CJ@DFNKEGIA@ERROR?3?5in?5BootMediaErase?4?5Statu@ 000243ac     FirmwareUpdate:FirmwareUpdateHelper.obj
 0002:00000f18       ??_C@_0CK@OGEKPFKM@ERROR?3?5in?5BootDeviceWrite?4?5Stat@ 000243d8     FirmwareUpdate:FirmwareUpdateHelper.obj
 0002:00000f44       ??_C@_0BA@GOGKJLLG@Verify?5Error?5?$CB?6@ 00024404     FirmwareUpdate:FirmwareUpdateHelper.obj
 0002:00000f54       ??_C@_0CA@LJMEDHIN@Updating?50x?$CF08llx?0?5Size?30x?$CF06x?6@ 00024414     FirmwareUpdate:FirmwareUpdateHelper.obj
 0002:00000f74       ??_C@_0CJ@EPHOPDKD@?6Failed?5at?5address?50x?$CF08llx?0?5st@ 00024434     FirmwareUpdate:FirmwareUpdateHelper.obj
 0002:00000fa0       ??_C@_0BD@FFELBIGA@?6Finished?5?5?5?$CF3d?$CF?$CF?6@ 00024460     FirmwareUpdate:FirmwareUpdateHelper.obj
 0002:00000fb4       ??_C@_0CI@IKEIOCGO@UpdateBootRegion?5failed?$CB?5Status@ 00024474     FirmwareUpdate:FirmwareUpdateHelper.obj
 0002:00000fdc       ??_C@_0BJ@ODDKPEAJ@Update?5full?5BIOS?5region?6@ 0002449c     FirmwareUpdate:FirmwareUpdateHelper.obj
 0002:00000ff8       ??_C@_0DL@JFLAKNCD@BIOS?5image?5in?5capsule?5is?5bigger@ 000244b8     FirmwareUpdate:FirmwareUpdateHelper.obj
 0002:00001034       ??_C@_0CP@ECJFAGEG@BIOS?5image?5size?5in?5capsule?5is?5n@ 000244f4     FirmwareUpdate:FirmwareUpdateHelper.obj
 0002:00001064       ??_C@_0CM@HOEEAHCM@?5VerifyFwVersion?5failed?5with?5St@ 00024524     FirmwareUpdate:FirmwareUpdateHelper.obj
 0002:00001090       ??_C@_0CG@NMKEEJBD@GetFirmwareUpdateInfo?0?5Status?5?$DN@ 00024550     FirmwareUpdate:FirmwareUpdateHelper.obj
 0002:000010b8       ??_C@_0CL@NELFLKKA@?5VerifyFwStruct?5failed?5with?5Sta@ 00024578     FirmwareUpdate:FirmwareUpdateHelper.obj
 0002:000010e8       ??_C@_0EJ@FAECMPGO@?$CF4a?5component?5capsule?5payload?5s@ 000245a8     FirmwareUpdate:FirmwareUpdateHelper.obj
 0002:00001134       ??_C@_0CA@HBMPFJAG@UpdatePartition?5?$CB?$DN?5?$CI?$CIvoid?5?$CK?$CJ?50?$CJ@ 000245f4     FirmwareUpdate:FirmwareUpdateHelper.obj
 0002:00001158       ??_C@_0FL@MJPKFKLA@e?3?2code?2adl_n100_code?2sblplatfo@ 00024618     FirmwareUpdate:FirmwareUpdateHelper.obj
 0002:000011b4       ??_C@_0DA@NOCLPLL@Updating?5component?5?$CF4a?5failed?5w@ 00024674     FirmwareUpdate:FirmwareUpdateHelper.obj
 0002:000011e4       ??_C@_0CL@CPEJKODN@No?5component?5with?5signature?50x?$CF@ 000246a4     FirmwareUpdate:FirmwareUpdateHelper.obj
 0002:00001210       ??_C@_0DE@GIKDECBB@Container?5component?5update?5fail@ 000246d0     FirmwareUpdate:FirmwareUpdateHelper.obj
 0002:00001244       ??_C@_0CF@HCMOGIHM@Container?5Component?5svn?5did?5not@ 00024704     FirmwareUpdate:FirmwareUpdateHelper.obj
 0002:0000126c       ??_C@_0BO@DKBKNMGD@Container?5Svn?5check?5failed?$CB?$CB?6@ 0002472c     FirmwareUpdate:FirmwareUpdateHelper.obj
 0002:0000128c       ??_C@_0P@LCIJCMJK@Flash?5COMP?3?$CFa?6@ 0002474c     FirmwareUpdate:FirmwareUpdateHelper.obj
 0002:0000129c       ??_C@_0DC@PHFLCPCC@Component?5compressed?5header?5sig@ 0002475c     FirmwareUpdate:FirmwareUpdateHelper.obj
 0002:000012d0       ??_C@_0CF@DKEJGMOL@Component?5Svn?5check?5failed?5for?5@ 00024790     FirmwareUpdate:FirmwareUpdateHelper.obj
 0002:000012f8       ??_C@_0CO@CMKGNBOG@Error?5in?5retrieving?5config?5data@ 000247b8     FirmwareUpdate:FirmwareUpdateHelper.obj
 0002:00001328       ??_C@_0DH@LGIFBHLD@Config?5data?5signature?5in?5capsul@ 000247e8     FirmwareUpdate:FirmwareUpdateHelper.obj
 0002:00001360       ??_C@_0CA@BBGKAOGM@Unable?5to?5get?5existing?5ACM?5SVN?$CB@ 00024820     FirmwareUpdate:FirmwareUpdateHelper.obj
 0002:00001380       ??_C@_0BL@FDLAEBMC@Unable?5to?5get?5new?5ACM?5SVN?$CB@ 00024840     FirmwareUpdate:FirmwareUpdateHelper.obj
 0002:0000139c       ??_C@_0BP@PEJHEJGD@Acm?5update?5Svn?5check?5failed?$CB?$CB?6@ 0002485c     FirmwareUpdate:FirmwareUpdateHelper.obj
 0002:000013bc       ??_C@_0CI@PCLIMFOO@Container?5component?5update?5requ@ 0002487c     FirmwareUpdate:FirmwareUpdateHelper.obj
 0002:000013e4       ??_C@_0CK@HHAHNFFB@Capsule?5update?5is?5for?5container@ 000248a4     FirmwareUpdate:FirmwareUpdateHelper.obj
 0002:00001410       ??_C@_0CF@MEEABBFI@Container?5Update?5Svn?5check?5fail@ 000248d0     FirmwareUpdate:FirmwareUpdateHelper.obj
 0002:00001438       ??_C@_0DA@OHMMEHLD@SBL?5component?5update?5for?5non?9co@ 000248f8     FirmwareUpdate:FirmwareUpdateHelper.obj
 0002:00001468       ??_C@_0CI@FCDGMCK@Redundant?5component?5update?5requ@ 00024928     FirmwareUpdate:FirmwareUpdateHelper.obj
 0002:00001490       ??_C@_0CM@BGDMBDKB@Non?5redundant?5component?5update?5@ 00024950     FirmwareUpdate:FirmwareUpdateHelper.obj
 0002:000014bc       ??_C@_0DM@HGHFNFLE@BootMediaRead?5CsmeNeedReset?4?5of@ 0002497c     FirmwareUpdate:FirmwareUpdateHelper.obj
 0002:000014f8       ??_C@_0EB@FIILAHMI@WriteCsmeNeedResetFlag?5invalid?5@ 000249b8     FirmwareUpdate:FirmwareUpdateHelper.obj
 0002:00001540       ??_C@_0EA@CHAKEIKI@BootMediaWrite?5CsmeNeedReset?$DN?$CFx@ 00024a00     FirmwareUpdate:FirmwareUpdateHelper.obj
 0002:00001580       ??_C@_0BN@NOKMFLLA@Reset?5required?5to?5proceed?4?6?6@ 00024a40     FirmwareUpdate:FirmwareUpdateHelper.obj
 0002:000015a0       ??_C@_0DM@NLHIDDNC@Existing?5uCode?5slots?5do?5not?5lin@ 00024a60     FirmwareUpdate:FirmwareUpdateHelper.obj
 0002:000015dc       ??_C@_0DI@GGKDCMDL@Total?5uCode?5size?5from?5header?5ex@ 00024a9c     FirmwareUpdate:FirmwareUpdateHelper.obj
 0002:00001614       ??_C@_0DM@EHHDOGAL@Existing?5image?5slots?5do?5not?5lin@ 00024ad4     FirmwareUpdate:FirmwareUpdateHelper.obj
 0002:00001650       ??_C@_0BJ@BLNMEGDL@BootMediumPciBase?$CI0x?$CFx?$CJ?6@ 00024b10     FirmwareUpdate:GetCapsuleImage.obj
 0002:0000166c       ??_C@_0CA@MKFMLANL@Invalid?5Boot?5device?5configured?6@ 00024b2c     FirmwareUpdate:GetCapsuleImage.obj
 0002:0000168c       ??_C@_0BF@CGBAMAHH@find?5boot?5partition?6@ 00024b4c     FirmwareUpdate:GetCapsuleImage.obj
 0002:000016a4       ??_C@_0BG@HCENNLIO@Find?5partion?5success?6@ 00024b64     FirmwareUpdate:GetCapsuleImage.obj
 0002:000016bc       ??_C@_0CO@JKKMNGFP@Load?5image?5from?5SwPart?5?$CI0x?$CFx?$CJ?0?5@ 00024b7c     FirmwareUpdate:GetCapsuleImage.obj
 0002:000016ec       ??_C@_0CK@EBKPGEEO@Get?5logical?5partition?5error?0?5St@ 00024bac     FirmwareUpdate:GetCapsuleImage.obj
 0002:00001718       ??_C@_0BH@HDGFMJIH@GetMediaInfo?5Error?5?$CFr?6@ 00024bd8     FirmwareUpdate:GetCapsuleImage.obj
 0002:00001730       ??_C@_0DA@GDKLIKJI@Read?5firmware?5update?5header?5err@ 00024bf0     FirmwareUpdate:GetCapsuleImage.obj
 0002:00001760       ??_C@_0CM@OBHKFDGK@Invalid?5Capsule?5image?5found?0?5Gu@ 00024c20     FirmwareUpdate:GetCapsuleImage.obj
 0002:0000178c       ??_C@_0DD@INDHBNLH@Invalid?5Capsule?5image?5found?0?5He@ 00024c4c     FirmwareUpdate:GetCapsuleImage.obj
 0002:000017c0       ??_C@_0CD@LLHDKHGP@Allocate?5memory?5?$CIsize?30x?$CFx?$CJ?5fai@ 00024c80     FirmwareUpdate:GetCapsuleImage.obj
 0002:000017e4       ??_C@_0CH@MLMEJFBB@Read?5capsule?5image?5error?0?5Statu@ 00024ca4     FirmwareUpdate:GetCapsuleImage.obj
 0002:0000180c       ??_C@_0BA@DMMODLAN@Find?5partition?6@ 00024ccc     FirmwareUpdate:GetCapsuleImage.obj
 0002:0000181c       ??_C@_0BC@EOMIMEBM@GetInfo?5Error?5?$CFr?6@ 00024cdc     FirmwareUpdate:GetCapsuleImage.obj
 0002:00001830       ??_C@_0CC@BBLPAMAK@No?5partitions?5found?0?5Status?5?$DN?5?$CF@ 00024cf0     FirmwareUpdate:GetCapsuleImage.obj
 0002:00001854       ??_C@_0CF@KDGHOPIF@?5Open?5Capsule?5File?5?8?$CFs?8?5Status?5@ 00024d14     FirmwareUpdate:GetCapsuleImage.obj
 0002:0000187c       ??_C@_0CJ@OGEONHOP@?5Get?5Capsule?5File?5?8?$CFs?8?5size?5Sta@ 00024d3c     FirmwareUpdate:GetCapsuleImage.obj
 0002:000018a8       ??_C@_0CF@EFBFEDD@?5Read?5Capsule?5File?5?8?$CFs?8?5Status?5@ 00024d68     FirmwareUpdate:GetCapsuleImage.obj
 0002:000018d0       ??_C@_07OHMGOBL@GuidHob@   00024d90     FirmwareUpdate:GetCapsuleImage.obj
 0002:000018d8       ??_C@_0DE@BKCGOED@?6?$DN?$DN?$DN?$DN?$DN?$DN?$DN?$DN?$DN?$DN?$DN?$DN?$DN?$DN?$DN?$DN?$DNRead?5Capsule?5@ 00024d98     FirmwareUpdate:GetCapsuleImage.obj
 0002:0000190c       ??_C@_0BJ@KDOELHCC@?5CapsuleInfo?5not?5found?5?6@ 00024dcc     FirmwareUpdate:GetCapsuleImage.obj
 0002:00001928       ??_C@_0FA@PNNILLML@Read?5capsule?5image?5from?5?$CFa?5DevI@ 00024de8     FirmwareUpdate:GetCapsuleImage.obj
 0002:00001978       ??_C@_0BA@LCHALDJH@?5file?5name?3?5?$CFa?6@ 00024e38     FirmwareUpdate:GetCapsuleImage.obj
 0002:00001988       ??_C@_0BE@BMKIIJGI@?5LBA?5offset?3?50x?$CFx?5?6@ 00024e48     FirmwareUpdate:GetCapsuleImage.obj
 0002:0000199c       ??_C@_0CF@HFOHDDJH@Capsule?5Image?5found?0?5ImageSize?$DN@ 00024e5c     FirmwareUpdate:GetCapsuleImage.obj
 0002:000019c4       ??_C@_0CB@CJOKMNJO@First?5256Bytes?5of?5capsule?5image@ 00024e84     FirmwareUpdate:GetCapsuleImage.obj
 0002:000019e8       ??_C@_0O@DBCIFINP@FLASHDESCLOCK@ 00024ea8     FirmwareUpdate:CmdFwUpdate.obj
 0002:000019f8       ??_C@_0N@ECOEKFNM@ARBSVNCOMMIT@ 00024eb8     FirmwareUpdate:CmdFwUpdate.obj
 0002:00001a10       ??_C@_0BB@OGBHNEJM@OEMKEYREVOCATION@ 00024ed0     FirmwareUpdate:CmdFwUpdate.obj
 0002:00001a24       ??_C@_01CELHOKLL@?$HN@     00024ee4     FirmwareUpdate:CmdFwUpdate.obj
 0002:00001a28       ??_C@_0CE@ELLGEHPO@Error?5in?5command?5parse?5Status?5?$DN@ 00024ee8     FirmwareUpdate:CmdFwUpdate.obj
 0002:00001a4c       ??_C@_0BL@BKODCHIP@Commands?5processed?5?$DN?50x?$CFx?6@ 00024f0c     FirmwareUpdate:CmdFwUpdate.obj
 0002:00001a68       ??_C@_0DO@LKGEOJFO@?5Sending?5the?5update?5image?5to?5FW@ 00024f28     FirmwareUpdate:CsmeFwUpdate.obj
 0002:00001aa8       ??_C@_0EC@NJJKPHMO@?5Sending?5the?5update?5image?5to?5FW@ 00024f68     FirmwareUpdate:CsmeFwUpdate.obj
 0002:00001aec       ??_C@_0BH@JAIHLGAH@CSME?5Firmware?5Update?5?6@ 00024fac     FirmwareUpdate:CsmeFwUpdate.obj
 0002:00001b04       ??_C@_0BP@PINFGNEE@Consumer?5type?5Firmware?5found?5?6@ 00024fc4     FirmwareUpdate:CsmeFwUpdate.obj
 0002:00001b24       ??_C@_0CA@ENCMMEHI@Corporate?5type?5Firmware?5found?5?6@ 00024fe4     FirmwareUpdate:CsmeFwUpdate.obj
 0002:00001b44       ??_C@_0CJ@OFMJIPFM@FW?5type?5is?5not?5supported?5for?5FW@ 00025004     FirmwareUpdate:CsmeFwUpdate.obj
 0002:00001b70       ??_C@_0BA@EIEDLCFB@PCH?5SKU?5is?3?5H?5?6@ 00025030     FirmwareUpdate:CsmeFwUpdate.obj
 0002:00001b80       ??_C@_0BB@ENKOAPDA@PCH?5SKU?5is?3?5LP?5?6@ 00025040     FirmwareUpdate:CsmeFwUpdate.obj
 0002:00001b94       ??_C@_0BM@KPBHNJAN@PCH?5SKU?5is?5not?5identified?5?6@ 00025054     FirmwareUpdate:CsmeFwUpdate.obj
 0002:00001bb0       ??_C@_0BN@LJJKGEGP@?6?5Executing?5Full?5FW?5Update?5?6@ 00025070     FirmwareUpdate:CsmeFwUpdate.obj
 0002:00001bd0       ??_C@_0GH@EIFAOBBJ@?6?5Warning?3?5Do?5not?5exit?5the?5proc@ 00025090     FirmwareUpdate:CsmeFwUpdate.obj
 0002:00001c38       ??_C@_0CO@NLENKIO@?6?6?6?5?5?5?5?5?5?5?5?5?5?5?5?5?5?5?5?5?5?5?5?5?5?5?5Do?5n@ 000250f8     FirmwareUpdate:CsmeFwUpdate.obj
 0002:00001c68       ??_C@_0BL@LOBFGKCO@FW?5Update?3?5?5?$FL?5100?$CF?$CF?5?$CI?$CFc?$CJ?$FN?$AN@ 00025128     FirmwareUpdate:CsmeFwUpdate.obj
 0002:00001c84       ??_C@_0BL@BKCKMBDP@FW?5Update?3?5?5?$FL?5?$CF3u?$CF?$CF?5?$CI?$CFc?$CJ?$FN?$AN@ 00025144     FirmwareUpdate:CsmeFwUpdate.obj
 0002:00001ca0       ??_C@_01EEMJAFIK@?6@       00025160     FirmwareUpdate:CsmeFwUpdate.obj
 0002:00001ca4       ??_C@_0BE@CPGGDCML@FW?5Error?5Code?3?5?$CFu?4?6@ 00025164     FirmwareUpdate:CsmeFwUpdate.obj
 0002:00001cb8       ??_C@_0CE@HDCGNBPM@FW?5Update?5completed?5successfull@ 00025178     FirmwareUpdate:CsmeFwUpdate.obj
 0002:00001ce0       ??_C@_0FA@NPCMOCIO@FW?5Update?5completed?5successfull@ 000251a0     FirmwareUpdate:CsmeFwUpdate.obj
 0002:00001d30       ??_C@_0CG@EMCJPED@CSME?5update?5failed?4?5Error?5Code?3@ 000251f0     FirmwareUpdate:CsmeFwUpdate.obj
 0002:00001d58       ??_C@_0DE@OPEDMNCA@Finding?5CSME?5update?5driver?5fail@ 00025218     FirmwareUpdate:CsmeFwUpdate.obj
 0002:00001d8c       ??_C@_0DF@BMMJEONK@Relocate?5CSME?5Update?5driver?5fai@ 0002524c     FirmwareUpdate:CsmeFwUpdate.obj
 0002:00001dc8       ??_C@_0EE@HJHBIIAD@Getting?5entry?5point?5for?5CSME?5Up@ 00025288     FirmwareUpdate:CsmeFwUpdate.obj
 0002:00001e0c       ??_C@_0DH@KEAPIAPJ@Unable?5to?5initialize?5update?5rou@ 000252cc     FirmwareUpdate:CsmeFwUpdate.obj
 0002:00001e44       ??_C@_0DK@FIHOIBOP@?9?9?9?9?9?9?9?9?9?9?9?9?9?9?9?9?9?9?9?9?9?9?9?9?9?9?9?9?9?9?9@ 00025304     FirmwareUpdate:CsmeFwUpdate.obj
 0002:00001e80       ??_C@_0DK@KDPBAJIB@?9?9?9?9?9?9?9?9?9?9?9?9?9?9?9?9?9?9?9?9CSME?5FW?5Upd@ 00025340     FirmwareUpdate:CsmeFwUpdate.obj
 0002:00001ec0       ??_C@_0GA@LOGNKNBF@e?3?2code?2adl_n100_code?2sblplatfo@ 00025380     GraphicsLib:GraphicsLib.obj
 0002:00001f20       ??_C@_0CI@ECFCIEGG@Console?9?$DOTextDisplayBuf?5?$CB?$DN?5?$CI?$CIvo@ 000253e0     GraphicsLib:GraphicsLib.obj
 0002:00001f48       ??_C@_0CF@LJOLFAKG@Console?9?$DOTextSwapBuf?5?$CB?$DN?5?$CI?$CIvoid?5@ 00025408     GraphicsLib:GraphicsLib.obj
 0002:00001f70       ??_C@_0CF@FFANFPD@Console?9?$DOTextDrawBuf?5?$CB?$DN?5?$CI?$CIvoid?5@ 00025430     GraphicsLib:GraphicsLib.obj
 0002:00001f98       ??_C@_04BPJILAKD@?$BL?$FL2J@ 00025458     GraphicsLib:GraphicsLib.obj
 0002:00001fa0       _mColors                   00025460     GraphicsLib:GraphicsLib.obj
 0002:00001fe0       ??_C@_0BJ@NOLLDKJB@HobStart?5?$CB?$DN?5?$CI?$CIvoid?5?$CK?$CJ?50?$CJ@ 000254a0     HobLib:HobLib.obj
 0002:00002000       ??_C@_0FG@GAIMKBOD@e?3?2code?2adl_n100_code?2sblplatfo@ 000254c0     HobLib:HobLib.obj
 0002:00002058       ??_C@_0BI@NCGMODPG@HobList?5?$CB?$DN?5?$CI?$CIvoid?5?$CK?$CJ?50?$CJ@ 00025518     PayloadLib:PayloadLib.obj
 0002:00002070       ??_C@_0FF@FPMCHMHI@e?3?2code?2adl_n100_code?2sblplatfo@ 00025530     PayloadLib:PayloadLib.obj
 0002:000020c8       ??_C@_0CD@BOGJOLMM@LoaderPlatformInfo?5?$CB?$DN?5?$CI?$CIvoid?5?$CK?$CJ@ 00025588     PayloadLib:PayloadLib.obj
 0002:000020ec       ??_C@_02MMHFNHAO@1A@       000255ac     BootloaderCommonLib:BootloaderCommonLib.obj
 0002:000020f0       ??_C@_02OHFIIEMN@1B@       000255b0     BootloaderCommonLib:BootloaderCommonLib.obj
 0002:000020f4       ??_C@_01FDFGLJHB@2@        000255b4     BootloaderCommonLib:BootloaderCommonLib.obj
 0002:000020f8       ??_C@_07LNDPGEHH@PAYLOAD@  000255b8     BootloaderCommonLib:BootloaderCommonLib.obj
 0002:00002100       ??_C@_0BL@CHILNFL@?6STAGE_?$CFa?3?5System?5halted?$CB?6@ 000255c0     BootloaderCommonLib:BootloaderCommonLib.obj
 0002:0000211b       ??_C@_00CNPNBAHC@@         000255db     BootloaderCommonLib:BootloaderCommonLib.obj
 0002:0000211c       ??_C@_0BF@NFHDKNLM@?$CF?$CKa?$CF08X?3?5?$CF?948a?5?$CK?$CFa?$CK?6@ 000255dc     BootloaderCommonLib:BootloaderCommonLib.obj
 0002:00002134       _mStage                    000255f4     BootloaderCommonLib:BootloaderCommonLib.obj
 0002:00002150       _mHex                      00025610     BootloaderCommonLib:BootloaderCommonLib.obj
 0002:00002150       _mHexStr                   00025610     BasePrintLib:PrintLibInternal.obj
 0002:00002160       ??_C@_0FH@FANHDACN@e?3?2code?2adl_n100_code?2sblplatfo@ 00025620     BaseIoLibIntrinsic:IoLibMsc.obj
 0002:000021b8       ??_C@_0BA@HCECIDGN@?$CIPort?5?$CG?53?$CJ?5?$DN?$DN?50@ 00025678     BaseIoLibIntrinsic:IoLibMsc.obj
 0002:000021c8       ??_C@_0BC@FEDIJHFF@?$CI?$CIBOOLEAN?$CJ?$CI0?$DN?$DN1?$CJ?$CJ@ 00025688     BaseIoLibIntrinsic:IoLib.obj
 0002:000021e0       ??_C@_0FE@CJHFEMMF@e?3?2code?2adl_n100_code?2sblplatfo@ 000256a0     BaseIoLibIntrinsic:IoLib.obj
 0002:00002234       ??_C@_0BD@KOOFJLFH@?$CIAddress?5?$CG?51?$CJ?5?$DN?$DN?50@ 000256f4     BaseIoLibIntrinsic:IoLib.obj
 0002:00002248       ??_C@_0BD@OMMAJMCK@?$CIAddress?5?$CG?53?$CJ?5?$DN?$DN?50@ 00025708     BaseIoLibIntrinsic:IoLib.obj
 0002:0000225c       ??_C@_0BD@GIIKJCNA@?$CIAddress?5?$CG?57?$CJ?5?$DN?$DN?50@ 0002571c     BaseIoLibIntrinsic:IoLib.obj
 0002:00002270       ??_C@_0DI@PHOMHDKH@?$CILength?5?9?51?$CJ?5?$DM?$DN?5?$CI0xFFFFFFFF?5?9?5?$CI@ 00025730     BaseMemoryLibSse2:CopyMemWrapper.obj
 0002:000022a8       ??_C@_0FM@PIBGLOMG@e?3?2code?2adl_n100_code?2sblplatfo@ 00025768     BaseMemoryLibSse2:CopyMemWrapper.obj
 0002:00002304       ??_C@_0DD@DCDOHCDJ@?$CILength?5?9?51?$CJ?5?$DM?$DN?5?$CI0xFFFFFFFF?5?9?5?$CI@ 000257c4     BaseMemoryLibSse2:CopyMemWrapper.obj
 0002:00002338       ??_C@_0BH@IACGKAP@Buffer?5?$CB?$DN?5?$CI?$CIvoid?5?$CK?$CJ?50?$CJ@ 000257f8     BaseMemoryLibSse2:SetMem32Wrapper.obj
 0002:00002350       ??_C@_0FN@BGNHLFGG@e?3?2code?2adl_n100_code?2sblplatfo@ 00025810     BaseMemoryLibSse2:SetMem32Wrapper.obj
 0002:000023b0       ??_C@_0CN@BPIPMCPJ@?$CILength?5?9?51?$CJ?5?$DM?$DN?5?$CI0xFFFFFFFF?5?9?5?$CI@ 00025870     BaseMemoryLibSse2:SetMem32Wrapper.obj
 0002:000023e0       ??_C@_0CO@LECKNDNC@?$CI?$CI?$CIUINTN?$CJBuffer?$CJ?5?$CG?5?$CIsizeof?5?$CIVal@ 000258a0     BaseMemoryLibSse2:SetMem32Wrapper.obj
 0002:00002410       ??_C@_0CF@LEICOABD@?$CILength?5?$CG?5?$CIsizeof?5?$CIValue?$CJ?5?9?51?$CJ?$CJ@ 000258d0     BaseMemoryLibSse2:SetMem32Wrapper.obj
 0002:00002438       ??_C@_0FM@EMLENPAB@e?3?2code?2adl_n100_code?2sblplatfo@ 000258f8     BaseMemoryLibSse2:ZeroMemWrapper.obj
 0002:00002494       ??_C@_0CL@OBMFBPED@Length?5?$DM?$DN?5?$CI0xFFFFFFFF?5?9?5?$CIUINTN?$CJ@ 00025954     BaseMemoryLibSse2:ZeroMemWrapper.obj
 0002:000024c0       ??_C@_0CC@JOEHDGKB@DestinationBuffer?5?$CB?$DN?5?$CI?$CIvoid?5?$CK?$CJ?5@ 00025980     BaseMemoryLibSse2:CompareMemWrapper.obj
 0002:000024e8       ??_C@_0FP@JDLIDDJP@e?3?2code?2adl_n100_code?2sblplatfo@ 000259a8     BaseMemoryLibSse2:CompareMemWrapper.obj
 0002:00002548       ??_C@_0BN@MDMCNBCC@SourceBuffer?5?$CB?$DN?5?$CI?$CIvoid?5?$CK?$CJ?50?$CJ@ 00025a08     BaseMemoryLibSse2:CompareMemWrapper.obj
 0002:00002568       ??_C@_0FN@GGMBAIDF@e?3?2code?2adl_n100_code?2sblplatfo@ 00025a28     BaseMemoryLibSse2:SetMem64Wrapper.obj
 0002:000025c8       ??_C@_0FL@JKIEHNLB@e?3?2code?2adl_n100_code?2sblplatfo@ 00025a88     BaseMemoryLibSse2:SetMemWrapper.obj
 0002:00002624       ??_C@_0BL@OOFMKHJH@EntryPoint?5?$CB?$DN?5?$CI?$CIvoid?5?$CK?$CJ?50?$CJ@ 00025ae4     BaseLib:SwitchStack.obj
 0002:00002640       ??_C@_0EP@DLDCBEII@e?3?2code?2adl_n100_code?2sblplatfo@ 00025b00     BaseLib:SwitchStack.obj
 0002:00002690       ??_C@_0BJ@DIHHCIKP@NewStack?5?$CB?$DN?5?$CI?$CIvoid?5?$CK?$CJ?50?$CJ@ 00025b50     BaseLib:SwitchStack.obj
 0002:000026ac       ??_C@_0CN@EHENFFPD@?$CI?$CIUINTN?$CJNewStack?5?$CG?5?$CIsizeof?$CIUINT@ 00025b6c     BaseLib:SwitchStack.obj
 0002:000026dc       ??_C@_0CD@BDCLIGHD@?$CI?$CIUINTN?$CJ?5String?5?$CG?50x00000001?$CJ?5?$DN@ 00025b9c     BaseLib:SafeString.obj
 0002:00002700       ??_C@_0EO@NNCNJPPA@e?3?2code?2adl_n100_code?2sblplatfo@ 00025bc0     BaseLib:SafeString.obj
 0002:00002750       ??_C@_0CI@LLKACKFD@?$CI?$CIUINTN?$CJ?5Destination?5?$CG?50x000000@ 00025c10     BaseLib:SafeString.obj
 0002:00002778       ??_C@_0CD@COCJPGE@?$CI?$CIUINTN?$CJ?5Source?5?$CG?50x00000001?$CJ?5?$DN@ 00025c38     BaseLib:SafeString.obj
 0002:0000279c       ??_C@_0BO@ECNIOIHG@?$CIDestination?5?$CB?$DN?5?$CI?$CIvoid?5?$CK?$CJ?50?$CJ?$CJ@ 00025c5c     BaseLib:SafeString.obj
 0002:000027c0       ??_C@_0EA@PDPDJJNN@?$CFa?$CI?$CFd?$CJ?5?$CFa?3?5SAFE_STRING_CONSTRAI@ 00025c80     BaseLib:SafeString.obj
 0002:00002800       ??_C@_0BJ@EAEEJIP@?$CISource?5?$CB?$DN?5?$CI?$CIvoid?5?$CK?$CJ?50?$CJ?$CJ@ 00025cc0     BaseLib:SafeString.obj
 0002:0000281c       ??_C@_0P@PMIMLIHM@?$CIDestMax?5?$CB?$DN?50?$CJ@ 00025cdc     BaseLib:SafeString.obj
 0002:0000282c       ??_C@_0BG@EEGIIOKH@?$CIDestMax?5?$DO?5SourceLen?$CJ@ 00025cec     BaseLib:SafeString.obj
 0002:00002848       ??_C@_0FH@PPBLBDBJ@InternalSafeStringNoStrOverlap?5@ 00025d08     BaseLib:SafeString.obj
 0002:000028a0       ??_C@_0DP@PBOJGJC@?$CILength?5?$DM?$DN?5?$CI_gPcd_FixedAtBuild_@ 00025d60     BaseLib:SafeString.obj
 0002:000028e0       ??_C@_07EBBOPAKF@StrCatS@  00025da0     BaseLib:SafeString.obj
 0002:000028e8       ??_C@_0P@BHOOOJPD@?$CICopyLen?5?$CB?$DN?50?$CJ@ 00025da8     BaseLib:SafeString.obj
 0002:000028f8       ??_C@_0BG@BPGICNPK@?$CICopyLen?5?$DO?5SourceLen?$CJ@ 00025db8     BaseLib:SafeString.obj
 0002:00002910       ??_C@_08GNJNNKEE@StrnCatS@ 00025dd0     BaseLib:SafeString.obj
 0002:0000291c       ??_C@_0BJ@CNKJJNE@?$CIBuffer?5?$CB?$DN?5?$CI?$CIvoid?5?$CK?$CJ?50?$CJ?$CJ@ 00025ddc     BaseLib:SafeString.obj
 0002:00002938       ??_C@_0N@OMPODJLB@AsciiStrCpyS@ 00025df8     BaseLib:SafeString.obj
 0002:00002948       ??_C@_0DO@LJFOOPII@?$CIDestMax?5?$DM?$DN?5?$CI_gPcd_FixedAtBuild@ 00025e08     BaseLib:SafeString.obj
 0002:00002988       ??_C@_0FL@CDANCHFO@InternalSafeStringNoAsciiStrOve@ 00025e48     BaseLib:SafeString.obj
 0002:000029e4       ??_C@_0N@MIDJKBI@AsciiStrCatS@ 00025ea4     BaseLib:SafeString.obj
 0002:000029f4       ??_C@_0BG@ECBHNCII@UnicodeStrToAsciiStrS@ 00025eb4     BaseLib:SafeString.obj
 0002:00002a10       ??_C@_0GG@DPMJAEHH@?$CBInternalSafeStringIsOverlap?5?$CID@ 00025ed0     BaseLib:SafeString.obj
 0002:00002a78       ??_C@_0BA@MFHLDCJH@?$CKSource?5?$DM?50x100@ 00025f38     BaseLib:SafeString.obj
 0002:00002a88       ??_C@_0BG@MFINJFHO@AsciiStrToUnicodeStrS@ 00025f48     BaseLib:SafeString.obj
 0002:00002aa0       ??_C@_0GE@CPENBLPB@?$CBInternalSafeStringIsOverlap?5?$CID@ 00025f60     BaseLib:SafeString.obj
 0002:00002b04       ??_C@_0BH@MAAHKCPC@String?5?$CB?$DN?5?$CI?$CIvoid?5?$CK?$CJ?50?$CJ@ 00025fc4     BaseLib:String.obj
 0002:00002b20       ??_C@_0EK@OOMECBBP@e?3?2code?2adl_n100_code?2sblplatfo@ 00025fe0     BaseLib:String.obj
 0002:00002b6c       ??_C@_0DK@EOJCOAME@Length?5?$DM?5_gPcd_FixedAtBuild_Pcd@ 0002602c     BaseLib:String.obj
 0002:00002ba8       ??_C@_0BL@JAAMOCAJ@StrSize?5?$CIFirstString?$CJ?5?$CB?$DN?50@ 00026068     BaseLib:String.obj
 0002:00002bc4       ??_C@_0BM@DALBOILC@StrSize?5?$CISecondString?$CJ?5?$CB?$DN?50@ 00026084     BaseLib:String.obj
 0002:00002be0       ??_C@_0DI@MDIKFADO@Length?5?$DM?5_gPcd_FixedAtBuild_Pcd@ 000260a0     BaseLib:String.obj
 0002:00002c18       ??_C@_0BL@IKFBNFIL@AsciiStrSize?5?$CIFirstString?$CJ@ 000260d8     BaseLib:String.obj
 0002:00002c34       ??_C@_0BM@EDNOKLLE@AsciiStrSize?5?$CISecondString?$CJ@ 000260f4     BaseLib:String.obj
 0002:00002c50       ??_C@_0DJ@JJHGIFMP@Length?5?$DM?$DN?5_gPcd_FixedAtBuild_Pc@ 00026110     BaseLib:String.obj
 0002:00002c8c       ??_C@_0BL@OFIBAIAL@AsciiStrSize?5?$CIString?$CJ?5?$CB?$DN?50@ 0002614c     BaseLib:String.obj
 0002:00002ca8       ??_C@_0CB@NAIDGIOA@AsciiStrSize?5?$CISearchString?$CJ?5?$CB?$DN?5@ 00026168     BaseLib:String.obj
 0002:00002ccc       ??_C@_0N@KGHEHMDL@Divisor?5?$CB?$DN?50@ 0002618c     BaseLib:DivU64x32.obj
 0002:00002ce0       ??_C@_0EN@ILPLLFDG@e?3?2code?2adl_n100_code?2sblplatfo@ 000261a0     BaseLib:DivU64x32.obj
 0002:00002d30       ??_C@_0EN@GABMHEON@e?3?2code?2adl_n100_code?2sblplatfo@ 000261f0     BaseLib:Unaligned.obj
 0002:00002d80       ??_C@_0EL@DAIGABPP@e?3?2code?2adl_n100_code?2sblplatfo@ 00026240     BaseLib:SetJump.obj
 0002:00002dcc       ??_C@_0CD@HOMHJBIN@?$CI?$CIUINTN?$CJJumpBuffer?5?$CG?5?$CI4?5?9?51?$CJ?$CJ?5?$DN@ 0002628c     BaseLib:SetJump.obj
 0002:00002df0       ??_C@_0L@LBCNCHJA@Pages?5?$CB?$DN?50@ 000262b0     FullMemoryAllocationLib:FullMemoryAllocationLib.obj
 0002:00002e00       ??_C@_0HI@BPDKAOGN@e?3?2code?2adl_n100_code?2sblplatfo@ 000262c0     FullMemoryAllocationLib:FullMemoryAllocationLib.obj
 0002:00002e78       ??_C@_0BE@DCHLEIGN@?$CBEFI_ERROR?5?$CIStatus?$CJ@ 00026338     FullMemoryAllocationLib:FullMemoryAllocationLib.obj
 0002:00002e8c       ??_C@_0CD@GECBLADO@?$CIAlignment?5?$CG?5?$CIAlignment?5?9?51?$CJ?$CJ?5?$DN@ 0002634c     FullMemoryAllocationLib:FullMemoryAllocationLib.obj
 0002:00002eb0       ??_C@_0BC@BDMGDFME@RealPages?5?$DO?5Pages@ 00026370     FullMemoryAllocationLib:FullMemoryAllocationLib.obj
 0002:00002ec4       ??_C@_0BF@DKMPHDPK@?$CIStart?5?$CG?50xFFF?$CJ?5?$DN?$DN?50@ 00026384     FullMemoryAllocationLib:Page.obj
 0002:00002ee0       ??_C@_0GF@CJOEMKDO@e?3?2code?2adl_n100_code?2sblplatfo@ 000263a0     FullMemoryAllocationLib:Page.obj
 0002:00002f48       ??_C@_0M@DCLLLGMI@End?5?$DO?5Start@ 00026408     FullMemoryAllocationLib:Page.obj
 0002:00002f54       ??_C@_0BJ@PAOKAOFD@AddRange?3?5?$CFlx?9?$CFlx?5to?5?$CFd?6@ 00026414     FullMemoryAllocationLib:Page.obj
 0002:00002f70       ??_C@_0BF@NDBIKIKC@CR?5has?5Bad?5Signature@ 00026430     FullMemoryAllocationLib:Page.obj
 0002:00002f88       ??_C@_0O@LJAPMOCN@mMapDepth?5?$DM?56@ 00026448     FullMemoryAllocationLib:Page.obj
 0002:00002f98       ??_C@_05HKHPEFOF@Entry@    00026458     FullMemoryAllocationLib:Page.obj
 0002:00002fa0       ??_C@_0O@IJLJOHG@NumberOfPages@ 00026460     FullMemoryAllocationLib:Page.obj
 0002:00002fb0       ??_C@_0CO@EJFJFKFK@ConvertPages?3?5failed?5to?5find?5ra@ 00026470     FullMemoryAllocationLib:Page.obj
 0002:00002fe0       ??_C@_0BG@LAOOPKAA@Entry?5?$CB?$DN?5?$CI?$CIvoid?5?$CK?$CJ?50?$CJ@ 000264a0     FullMemoryAllocationLib:Page.obj
 0002:00002ff8       ??_C@_0CC@IIKOLMNI@ConvertRange?3?5?$CFlx?9?$CFlx?5to?5type?5?$CF@ 000264b8     FullMemoryAllocationLib:Page.obj
 0002:0000301c       ??_C@_0CJ@LBCGENF@ConvertPages?3?5Incompatible?5memo@ 000264dc     FullMemoryAllocationLib:Page.obj
 0002:00003048       ??_C@_0BK@OGIMILJG@Entry?9?$DOStart?5?$DM?5Entry?9?$DOEnd@ 00026508     FullMemoryAllocationLib:Page.obj
 0002:00003064       ??_C@_0DA@DGIDMPCM@AllocatePoolPages?3?5failed?5to?5al@ 00026524     FullMemoryAllocationLib:Page.obj
 0002:00003098       _mMemoryTypeStatisticsInit 00026558     FullMemoryAllocationLib:Page.obj
 0002:00003318       ??_C@_0GF@FOJGKPAF@e?3?2code?2adl_n100_code?2sblplatfo@ 000267d8     FullMemoryAllocationLib:Pool.obj
 0002:00003380       ??_C@_0ED@BJPMJCNA@Index?5?$DM?5?$CI?$CIsizeof?5?$CImPoolSizeTabl@ 00026840     FullMemoryAllocationLib:Pool.obj
 0002:000033c4       ??_C@_0BE@IGCHCEAB@Offset?5?$DN?$DN?5MaxOffset@ 00026884     FullMemoryAllocationLib:Pool.obj
 0002:000033d8       ??_C@_0DA@MFNGHLKJ@AllocatePoolI?3?5Type?5?$CFx?0?5Addr?5?$CFp@ 00026898     FullMemoryAllocationLib:Pool.obj
 0002:00003408       ??_C@_0CM@HBBDHNH@AllocatePool?3?5failed?5to?5allocat@ 000268c8     FullMemoryAllocationLib:Pool.obj
 0002:00003434       ??_C@_0BF@FBEMMEEB@Head?5?$CB?$DN?5?$CI?$CIvoid?5?$CK?$CJ?50?$CJ@ 000268f4     FullMemoryAllocationLib:Pool.obj
 0002:0000344c       ??_C@_0BF@HNLOIDLA@Tail?5?$CB?$DN?5?$CI?$CIvoid?5?$CK?$CJ?50?$CJ@ 0002690c     FullMemoryAllocationLib:Pool.obj
 0002:00003468       ??_C@_0EJ@NAAKIGKI@Tail?9?$DOSignature?5?$DN?$DN?5?$CI?$CI?$CI?8p?8?$CJ?5?$HM?5?$CI?8@ 00026928     FullMemoryAllocationLib:Pool.obj
 0002:000034b4       ??_C@_0BJ@LNLMFOPC@Head?9?$DOSize?5?$DN?$DN?5Tail?9?$DOSize@ 00026974     FullMemoryAllocationLib:Pool.obj
 0002:000034d0       ??_C@_0BN@HPFHKNAN@FreePool?3?5?$CFp?5?$CIlen?5?$CFlx?$CJ?5?$CF?0ld?6@ 00026990     FullMemoryAllocationLib:Pool.obj
 0002:000034f0       ??_C@_0BF@IFDLHOEE@Free?5?$CB?$DN?5?$CI?$CIvoid?5?$CK?$CJ?50?$CJ@ 000269b0     FullMemoryAllocationLib:Pool.obj
 0002:00003528       ??_C@_0CH@DLAJECI@?$CILock?5?$CB?$DN?5?$CI?$CIvoid?5?$CK?$CJ?50?$CJ?$CJ?5?$CG?$CG?5?$CI?$CKLoc@ 000269e8     FullMemoryAllocationLib:MemData.obj
 0002:00003550       ??_C@_0GI@BMGGJEGB@e?3?2code?2adl_n100_code?2sblplatfo@ 00026a10     FullMemoryAllocationLib:MemData.obj
 0002:000035b8       ??_C@_0CH@CHCPOBP@?$CILock?5?$CB?$DN?5?$CI?$CIvoid?5?$CK?$CJ?50?$CJ?$CJ?5?$CG?$CG?5?$CI?$CKLoc@ 00026a78     FullMemoryAllocationLib:MemData.obj
 0002:000035e0       ??_C@_0CI@BGLNHBLM@?$CI?$CI?$CIUINTN?$CJ?5?$CIStartOfBuffer?$CJ?$CJ?5?$CG?50x@ 00026aa0     BasePrintLib:PrintLib.obj
 0002:00003608       ??_C@_0FB@NJDDIFNO@e?3?2code?2adl_n100_code?2sblplatfo@ 00026ac8     BasePrintLib:PrintLib.obj
 0002:0000365c       ??_C@_0CH@KJLBGOBB@?$CI?$CI?$CIUINTN?$CJ?5?$CIFormatString?$CJ?$CJ?5?$CG?50x0@ 00026b1c     BasePrintLib:PrintLib.obj
 0002:00003688       ??_C@_0FJ@JGEPBHLN@e?3?2code?2adl_n100_code?2sblplatfo@ 00026b48     BasePrintLib:PrintLibInternal.obj
 0002:000036e8       ??_C@_0EB@HDGIDCIO@?$CIBufferSize?5?$DM?$DN?5?$CI_gPcd_FixedAtBu@ 00026ba8     BasePrintLib:PrintLibInternal.obj
 0002:0000372c       ??_C@_0BJ@PPAKKDJG@?$CIFormat?5?$CB?$DN?5?$CI?$CIvoid?5?$CK?$CJ?50?$CJ?$CJ@ 00026bec     BasePrintLib:PrintLibInternal.obj
 0002:00003748       ??_C@_0ED@LPDDCECB@?$CIBufferSize?5?$DM?$DN?5?$CI_gPcd_FixedAtBu@ 00026c08     BasePrintLib:PrintLibInternal.obj
 0002:00003790       ??_C@_0IM@BFJJFLGB@?$CIStrnLenS?5?$CI?$CICHAR16?5?$CK?$CJFormat?0?5?$CI_@ 00026c50     BasePrintLib:PrintLibInternal.obj
 0002:00003820       ??_C@_0ID@PLGJGION@?$CIAsciiStrnLenS?5?$CIFormat?0?5?$CI_gPcd_@ 00026ce0     BasePrintLib:PrintLibInternal.obj
 0002:000038a4       ??_C@_0O@MLOLIMFM@?$DMnull?5string?$DO@ 00026d64     BasePrintLib:PrintLibInternal.obj
 0002:000038b4       ??_C@_0M@BJJDNPHK@?$DMnull?5guid?$DO@ 00026d74     BasePrintLib:PrintLibInternal.obj
 0002:000038c0       ??_C@_0DB@PMLHLBMO@?$CF08x?9?$CF04x?9?$CF04x?9?$CF02x?$CF02x?9?$CF02x?$CF02@ 00026d80     BasePrintLib:PrintLibInternal.obj
 0002:000038f4       ??_C@_0M@LHGBCIKM@?$DMnull?5time?$DO@ 00026db4     BasePrintLib:PrintLibInternal.obj
 0002:00003900       ??_C@_0BK@FCPKCIDD@?$CF02d?1?$CF02d?1?$CF04d?5?5?$CF02d?3?$CF02d@ 00026dc0     BasePrintLib:PrintLibInternal.obj
 0002:0000391c       ??_C@_04JIMNDDED@?$CF08X@  00026ddc     BasePrintLib:PrintLibInternal.obj
 0002:00003924       ??_C@_02PCIJFNDE@?$AN?6@   00026de4     BasePrintLib:PrintLibInternal.obj
 0002:00003928       ??_C@_01LIIJDEN@?$AN@      00026de8     BasePrintLib:PrintLibInternal.obj
 0002:00003930       _mWarningString            00026df0     BasePrintLib:PrintLibInternal.obj
 0002:000039c8       _mErrorString              00026e88     BasePrintLib:PrintLibInternal.obj
 0002:00003c80       ??_C@_0BH@LKMBFCBF@Format?5?$CB?$DN?5?$CI?$CIvoid?5?$CK?$CJ?50?$CJ@ 00027140     BaseFspDebugLibSerialPort:DebugLib.obj
 0002:00003c98       ??_C@_0GE@BMPLJCGA@e?3?2code?2adl_n100_code?2sblplatfo@ 00027158     BaseFspDebugLibSerialPort:DebugLib.obj
 0002:00003cfc       ??_C@_0BI@NOCKJDBJ@ASSERT?5?$FL?$CFa?$FN?5?$CFa?$CI?$CFd?$CJ?3?5?$CFa?6@ 000271bc     BaseFspDebugLibSerialPort:DebugLib.obj
 0002:00003d18       ??_C@_0FP@CBACKHGL@e?3?2code?2adl_n100_code?2sblplatfo@ 000271d8     PlatformHookLib:PlatformHookLib.obj
 0002:00003d78       ??_C@_07NFANNNEC@UNKNOWN@  00027238     PartitionLib:PartitionLib.obj
 0002:00003d80       ??_C@_03EMFGMGHL@MBR@      00027240     PartitionLib:PartitionLib.obj
 0002:00003d84       ??_C@_03GKBDPGIH@GPT@      00027244     PartitionLib:PartitionLib.obj
 0002:00003d88       ??_C@_0CF@MCPBFIAG@Protective?5MBR?5is?5not?5valid?5for@ 00027248     PartitionLib:PartitionLib.obj
 0002:00003db0       ??_C@_0DC@MMKKPOIP@Protective?5MBR?5does?5not?5protect@ 00027270     PartitionLib:PartitionLib.obj
 0002:00003de4       ??_C@_0CK@KDIPBDKK@Primary?5GPT?5Header?5CalculateCrc@ 000272a4     PartitionLib:PartitionLib.obj
 0002:00003e10       ??_C@_0CM@BMLIHIGB@Secondary?5GPT?5Header?5CalculateC@ 000272d0     PartitionLib:PartitionLib.obj
 0002:00003e3c       ??_C@_0CB@KHKMCFIE@GPT?5Array?5CalculateCrc32?5Error?$CB@ 000272fc     PartitionLib:PartitionLib.obj
 0002:00003e60       ??_C@_0DJ@MINIBMJP@Primary?5Header?5and?5Secondary?5GP@ 00027320     PartitionLib:PartitionLib.obj
 0002:00003e9c       ??_C@_0CL@FLNBNCAN@Secondary?5GPT?5Array?5CalculateCr@ 0002735c     PartitionLib:PartitionLib.obj
 0002:00003ec8       ??_C@_0BB@EJLJCGAJ@Part?5?$CF02d?3?5?$CF12s?5@ 00027388     PartitionLib:PartitionLib.obj
 0002:00003edc       ??_C@_0CB@BMFPKPHH@0x?$CF08x?9?90x?$CF08x?0?5LBA?5count?3?50x?$CFx@ 0002739c     PartitionLib:PartitionLib.obj
 0002:00003f00       ??_C@_0CN@JIJAICGH@Partition?5type?3?5?$CFa?5?5?$CI?$CFd?5logical@ 000273c0     PartitionLib:PartitionLib.obj
 0002:00003f30       _mPartTypeName             000273f0     PartitionLib:PartitionLib.obj
 0002:00003f3c       ??_C@_0M@MFKMFBIO@Part?5?$CF02d?3?5@ 000273fc     PartitionLib:SpiPartition.obj
 0002:00003f48       ??_C@_0DA@KLKKPFLH@Partition?5size?5is?50?0?5no?5data?5in@ 00027408     PartitionLib:SpiPartition.obj
 0002:00003f78       ??_C@_0CK@DPOCOKGG@SPI?5BIOS?5region?3?5?$CI?$CFd?5logical?5pa@ 00027438     PartitionLib:SpiPartition.obj
 0002:00003fa8       ??_C@_0FL@DMBFHPOL@FileSystemControlBlock?9?$DOSignatu@ 00027468     FileSystemLib:FileSystemLib.obj
 0002:00004008       ??_C@_0GE@EEGIKI@e?3?2code?2adl_n100_code?2sblplatfo@ 000274c8     FileSystemLib:FileSystemLib.obj
 0002:0000406c       ??_C@_0BK@EEKMAEL@?5?5Close?5file?5handle?50x?$CFp?6@ 0002752c     FileSystemLib:FileSystemLib.obj
 0002:00004088       ??_C@_0BM@BOGMEOCI@CloseFileSystem?3?5FsType?5?$CFd?6@ 00027548     FileSystemLib:FileSystemLib.obj
 0002:000040a4       ??_C@_0CH@PKKJEEIM@FileSystemControlBlock?5?$CB?$DN?5?$CI?$CIvoi@ 00027564     FileSystemLib:FileSystemLib.obj
 0002:000040cc       ??_C@_0CB@EBNDAPAN@FileControlBlock?5?$CB?$DN?5?$CI?$CIvoid?5?$CK?$CJ?50@ 0002758c     FileSystemLib:FileSystemLib.obj
 0002:000040f0       ??_C@_0FF@PBMMDHC@FileControlBlock?9?$DOSignature?5?$DN?$DN?5@ 000275b0     FileSystemLib:FileSystemLib.obj
 0002:00004148       ??_C@_0BC@BFDCLBGP@LoopCount?5?$DN?5?$CF04x?6@ 00027608     LitePeCoffLib:LitePeCoffLib.obj
 0002:0000415c       ??_C@_0CK@MJPKOLAA@?$CFd?3?5PageRva?3?5?$CF08x?5Offset?3?5?$CF04x?5@ 0002761c     LitePeCoffLib:LitePeCoffLib.obj
 0002:00004188       ??_C@_0BI@NCAAOOAL@Unknown?5RELOC?5type?3?5?$CFd?6@ 00027648     LitePeCoffLib:LitePeCoffLib.obj
 0002:000041a0       ??_C@_0GD@NBBAMON@e?3?2code?2adl_n100_code?2sblplatfo@ 00027660     PayloadSupportLib:PayloadSupportLib.obj
 0002:00004204       ??_C@_0BF@GOGEDBPP@Xsdt?5?$CB?$DN?5?$CI?$CIvoid?5?$CK?$CJ?50?$CJ@ 000276c4     PayloadSupportLib:PayloadSupportLib.obj
 0002:0000421c       ??_C@_0BJ@BLIBJNIM@ACPI?5PmTimer?5Base?3?50x?$CFx?6@ 000276dc     PayloadSupportLib:PayloadSupportLib.obj
 0002:00004238       ??_C@_0BJ@HNCBNEEK@PCI?5Express?5?5Base?3?50x?$CFx?6@ 000276f8     PayloadSupportLib:PayloadSupportLib.obj
 0002:00004254       ??_C@_0N@PLMHCAMG@Fadt?5?$HM?$HM?5Mcfg@ 00027714     PayloadSupportLib:PayloadSupportLib.obj
 0002:00004264       ??_C@_0DF@FHBJJPBK@SignType?5?$CI0x?$CFx?$CJ?5SignSize?5?$CI0x?$CFx?$CJ@ 00027724     SecureBootLib:SecureBootRsa.obj
 0002:0000429c       ??_C@_0CJ@MJKMHBCN@RSA?5verification?5for?5usage?5?$CI0x?$CF@ 0002775c     SecureBootLib:SecureBootRsa.obj
 0002:000042c8       ??_C@_0BL@GLBKBLFI@First?5?$CFd?5Bytes?5Input?5Data?6@ 00027788     SecureBootLib:SecureBootRsa.obj
 0002:000042e4       ??_C@_0BK@OPNABAMO@Last?5?$CFd?5Bytes?5Input?5Data?6@ 000277a4     SecureBootLib:SecureBootRsa.obj
 0002:00004300       ??_C@_0O@NABEPPGI@Image?5Digest?6@ 000277c0     SecureBootLib:SecureBootRsa.obj
 0002:00004310       ??_C@_0L@FMDAGKAH@Signature?6@ 000277d0     SecureBootLib:SecureBootRsa.obj
 0002:0000431c       ??_C@_0M@KICDAGDC@Public?5Key?6@ 000277dc     SecureBootLib:SecureBootRsa.obj
 0002:00004328       ??_C@_0BP@EOOKPMDB@Hash?5Calculation?5is?5invalid?$CB?$CB?6@ 000277e8     SecureBootLib:SecureBootHash.obj
 0002:00004348       ??_C@_0DP@OOKNIEJJ@HASH?5verification?5for?5usage?5?$CI0x@ 00027808     SecureBootLib:SecureBootHash.obj
 0002:00004388       ??_C@_0BC@PFLFHEBO@HashStore?5Digest?6@ 00027848     SecureBootLib:SecureBootHash.obj
 0002:000043a0       ??_C@_0GN@NAICECCP@e?3?2code?2adl_n100_code?2sblplatfo@ 00027860     FirmwareUpdateLib:FirmwareUpdateLib.obj
 0002:00004410       ??_C@_0BJ@CALJIOFB@No?5SBL?5component?5found?5?$CB@ 000278d0     FirmwareUpdateLib:FirmwareUpdateLib.obj
 0002:0000442c       ??_C@_0DJ@GGPAHPIB@capsule?5payload?5size?5is?5too?5big@ 000278ec     FirmwareUpdateLib:FirmwareUpdateLib.obj
 0002:00004468       ??_C@_0CO@DJCKDCKD@TopSwapRegion?5?5?5?5?5?5Offset?1Size?5@ 00027928     FirmwareUpdateLib:FirmwareUpdateLib.obj
 0002:00004498       ??_C@_0CO@JOFJGBMF@RedundantRegion?5?5?5?5Offset?1Size?5@ 00027958     FirmwareUpdateLib:FirmwareUpdateLib.obj
 0002:000044c8       ??_C@_0CO@HFPPKCKF@NonRedundantRegion?5Offset?1Size?5@ 00027988     FirmwareUpdateLib:FirmwareUpdateLib.obj
 0002:000044f8       ??_C@_0L@NINOBLGH@Region?5?$CFd?6@ 000279b8     FirmwareUpdateLib:FirmwareUpdateLib.obj
 0002:00004504       ??_C@_0BO@EDJPBMBN@?5?5?5ToUpdateAddress?3?5?$DN?50x?$CF08x?6@ 000279c4     FirmwareUpdateLib:FirmwareUpdateLib.obj
 0002:00004524       ??_C@_0BO@NENJOGG@?5?5?5UpdateSize?3?5?5?5?5?5?5?$DN?50x?$CF08x?6@ 000279e4     FirmwareUpdateLib:FirmwareUpdateLib.obj
 0002:00004544       ??_C@_0BO@CMCIAEHO@?5?5?5SourceAddress?3?5?5?5?$DN?50x?$CF08x?6@ 00027a04     FirmwareUpdateLib:FirmwareUpdateLib.obj
 0002:00004564       ??_C@_0BP@HOGAJNKI@ARB?5SVN?5commit?5failed?5?9?5?50x?$CFx?6@ 00027a24     FirmwareUpdateLib:FirmwareUpdateLib.obj
 0002:00004584       ??_C@_0BJ@EALCJKLG@ARB?5SVN?5commit?5SUCCESS?5?6@ 00027a44     FirmwareUpdateLib:FirmwareUpdateLib.obj
 0002:000045a0       ??_C@_0BN@NOHLEGBG@Oem?5Revoke?5Key?5status?5?9?5?5?$CFr?6@ 00027a60     FirmwareUpdateLib:FirmwareUpdateLib.obj
 0002:000045c0       ??_C@_0BL@HMHNCNAK@Registering?5container?5?$CF4a?6@ 00027a80     ContainerLib:ContainerLib.obj
 0002:000045dc       ??_C@_0CI@EDLPJPCP@Registering?5container?5failed?5du@ 00027a9c     ContainerLib:ContainerLib.obj
 0002:00004604       ??_C@_04OHBBHKIJ@SATA@     00027ac4     BootOptionLib:BootOptionLib.obj
 0002:0000460c       ??_C@_02PKFBDMAF@SD@       00027acc     BootOptionLib:BootOptionLib.obj
 0002:00004610       ??_C@_03BENDKCFG@MMC@      00027ad0     BootOptionLib:BootOptionLib.obj
 0002:00004614       ??_C@_03MHOJCAJG@UFS@      00027ad4     BootOptionLib:BootOptionLib.obj
 0002:00004618       ??_C@_03EKAEFKFD@SPI@      00027ad8     BootOptionLib:BootOptionLib.obj
 0002:0000461c       ??_C@_03IONNGCBN@USB@      00027adc     BootOptionLib:BootOptionLib.obj
 0002:00004620       ??_C@_04MFDEBLGH@NVME@     00027ae0     BootOptionLib:BootOptionLib.obj
 0002:00004628       ??_C@_03IEEDNOGA@MEM@      00027ae8     BootOptionLib:BootOptionLib.obj
 0002:0000462c       ??_C@_03MPELFIKF@FAT@      00027aec     BootOptionLib:BootOptionLib.obj
 0002:00004630       ??_C@_04CBLCCKIL@EXT2@     00027af0     BootOptionLib:BootOptionLib.obj
 0002:00004638       ??_C@_04LMMJFDCN@AUTO@     00027af8     BootOptionLib:BootOptionLib.obj
 0002:00004640       ??_C@_03DLBNMLKO@RAW@      00027b00     BootOptionLib:BootOptionLib.obj
 0002:00004644       _mOsBootDeviceName         00027b04     BootOptionLib:BootOptionLib.obj
 0002:00004664       _mOsFsTypeName             00027b24     BootOptionLib:BootOptionLib.obj
 0002:00004674       ??_C@_0CD@OPKDNAE@FitTableOffset?50x?$CFx?5is?5not?5vali@ 00027b34     BootGuardLibCBnT:BootGuardTpmEventLogLib.obj
 0002:00004698       ??_C@_0GE@CEHDCJG@e?3?2code?2adl_n100_code?2sblplatfo@ 00027b58     UsbBlockIoLib:UsbBlockIoLib.obj
 0002:000046fc       ??_C@_0CA@OFACMEPM@Failed?5to?5initialize?5USB?5bus?5?$CB?6@ 00027bbc     UsbBlockIoLib:UsbBlockIoLib.obj
 0002:0000471c       ??_C@_0BP@KOIMFKD@Found?5?$CFd?5mass?5storage?5devices?6@ 00027bdc     UsbBlockIoLib:UsbBlockIoLib.obj
 0002:0000473c       ??_C@_17HDJIHIPC@?$AAN?$AA?1?$AAA@ 00027bfc     UsbBlockIoLib:UsbBlockIoLib.obj
 0002:00004744       ??_C@_0L@HCFKFDEO@?5?5?$CF2d?3?5?$CFs?6@ 00027c04     UsbBlockIoLib:UsbBlockIoLib.obj
 0002:00004750       ??_C@_0GB@BEKGNIGB@e?3?2code?2adl_n100_code?2sblplatfo@ 00027c10     UsbBlockIoLib:UsbBotPeim.obj
 0002:000047b4       ??_C@_0DF@MEDPJLMK@The?5usb?5device?5LBA?5count?5is?5lar@ 00027c74     UsbBlockIoLib:PeiAtapi.obj
 0002:000047ec       ??_C@_0CI@BMBNMDKB@TokenNumber?5?$CL?51?5?$DM?5?$CILocalTokenCo@ 00027cac     PcdLib:Pcd.obj
 0002:00004818       ??_C@_0FD@BFHFPLHO@e?3?2code?2adl_n100_code?2sblplatfo@ 00027cd8     PcdLib:Pcd.obj
 0002:00004870       ??_C@_0HA@NINFNLNG@?$CILocalTokenNumber?5?$CG?5?$CI?$CI0x0U?5?$DM?$DM?52@ 00027d30     PcdLib:Pcd.obj
 0002:000048e0       ??_C@_0FH@DANFAFHH@e?3?2code?2adl_n100_code?2sblplatfo@ 00027da0     PcdLib:Service.obj
 0002:00004938       ??_C@_0DP@BOGBALDF@?$CIGetSize?5?$DN?$DN?5PeiPcdGetSize?5?$CIToke@ 00027df8     PcdLib:Service.obj
 0002:00004978       ??_C@_0BF@NJNGJMPC@List?5?$CB?$DN?5?$CI?$CIvoid?5?$CK?$CJ?50?$CJ@ 00027e38     BaseLib:LinkedList.obj
 0002:00004990       ??_C@_0EO@OPEMLGCJ@e?3?2code?2adl_n100_code?2sblplatfo@ 00027e50     BaseLib:LinkedList.obj
 0002:000049e0       ??_C@_0CC@KDLPLAED@List?9?$DOForwardLink?5?$CB?$DN?5?$CI?$CIvoid?5?$CK?$CJ?5@ 00027ea0     BaseLib:LinkedList.obj
 0002:00004a04       ??_C@_0BP@IJJCCMAK@List?9?$DOBackLink?5?$CB?$DN?5?$CI?$CIvoid?5?$CK?$CJ?50?$CJ@ 00027ec4     BaseLib:LinkedList.obj
 0002:00004a24       ??_C@_0BJ@NJABNCDK@ListHead?5?$CB?$DN?5?$CI?$CIvoid?5?$CK?$CJ?50?$CJ@ 00027ee4     BaseLib:LinkedList.obj
 0002:00004a40       ??_C@_0CG@LGIALJFK@InternalBaseLibIsListValid?5?$CILis@ 00027f00     BaseLib:LinkedList.obj
 0002:00004a68       ??_C@_0CC@JLDICICM@InternalBaseLibIsListValid?5?$CILis@ 00027f28     BaseLib:LinkedList.obj
 0002:00004a8c       ??_C@_0BF@NMBJJECB@?$CBIsListEmpty?5?$CIEntry?$CJ@ 00027f4c     BaseLib:LinkedList.obj
 0002:00004aa8       ??_C@_0FG@BMGIPFHC@e?3?2code?2adl_n100_code?2sblplatfo@ 00027f68     BaseLib:DivU64x32Remainder.obj
 0002:00004b00       ??_C@_0BO@BAKALPJK@?$CI?$CIAddress?$CJ?5?$CG?5?$HO0xfffffff?$CJ?5?$DN?$DN?50@ 00027fc0     BasePciExpressLib:PciExpressLib.obj
 0002:00004b20       ??_C@_0FL@CFLIFKMB@e?3?2code?2adl_n100_code?2sblplatfo@ 00027fe0     BasePciExpressLib:PciExpressLib.obj
 0002:00004b7c       ??_C@_0CD@KPNGCLON@?$CI?$CIStartAddress?$CJ?5?$CG?5?$HO0xfffffff?$CJ?5?$DN@ 0002803c     BasePciExpressLib:PciExpressLib.obj
 0002:00004ba0       ??_C@_0CK@GEPHNHLO@?$CI?$CIStartAddress?5?$CG?50xFFF?$CJ?5?$CL?5Size?$CJ@ 00028060     BasePciExpressLib:PciExpressLib.obj
 0002:00004bcc       ??_C@_0CF@CCGDEMBM@EmmcDllTuningLibData?5not?5genera@ 0002808c     MmcTuningLib:MmcTuningLib.obj
 0002:00004bf4       ??_C@_0BL@GEKICAKB@EmmcRxHs400Tuning?$CI?$CJ?5Start?6@ 000280b4     MmcTuningLib:MmcTuningLib.obj
 0002:00004c10       ??_C@_0DN@GKEBFHDH@EmmcRxHs400Tuning?3?5Tuning?5Block@ 000280d0     MmcTuningLib:MmcTuningLib.obj
 0002:00004c50       ??_C@_0DG@IEFCNOLK@EmmcRxHs400Tuning?3?5eMMC?5HS400?5M@ 00028110     MmcTuningLib:MmcTuningLib.obj
 0002:00004c88       ??_C@_0FH@MCALKBHM@EmmcRxHs400Tuning?3?5Set?5Rx?5Data?5@ 00028148     MmcTuningLib:MmcTuningLib.obj
 0002:00004ce0       ??_C@_0DG@OKPDFMPO@?$FL?5EmmcRxHs400Tuning?3?5Rx?5Min?5DLL@ 000281a0     MmcTuningLib:MmcTuningLib.obj
 0002:00004d18       ??_C@_0DC@BKNLBJAA@?$FLRx?5DLL?5Tuning?5Failed?$FN?5DllCount@ 000281d8     MmcTuningLib:MmcTuningLib.obj
 0002:00004d4c       ??_C@_0DJ@GLKHPKLL@?$FLRx?5DLL?5Tuning?5Failed?$FN?5Smin?5?9?5T@ 0002820c     MmcTuningLib:MmcTuningLib.obj
 0002:00004d88       ??_C@_0DC@HJAHLBFA@?$FLRx?5DLL?5Tuning?$FN?5Found?5Minimal?5P@ 00028248     MmcTuningLib:MmcTuningLib.obj
 0002:00004dc0       ??_C@_0FH@LEAJBLJJ@EmmcRxHs400Tuning?3?5Set?5Rx?5Data?5@ 00028280     MmcTuningLib:MmcTuningLib.obj
 0002:00004e18       ??_C@_0DG@FKMMEGMC@?$FL?5EmmcRxHs400Tuning?3?5Rx?5Max?5DLL@ 000282d8     MmcTuningLib:MmcTuningLib.obj
 0002:00004e50       ??_C@_0DJ@EAJNDBBJ@?$FLRx?5DLL?5Tuning?5Failed?$FN?5Smax?5?9?5T@ 00028310     MmcTuningLib:MmcTuningLib.obj
 0002:00004e90       ??_C@_0FK@EFOJJCFF@?$FLRx?5DLL?5Tuning?$FN?5Optimal?5Point?5?$CI@ 00028350     MmcTuningLib:MmcTuningLib.obj
 0002:00004eec       ??_C@_0CG@IFGLNJDB@EmmcRxHs400Tuning?$CI?$CJ?5End?0?5Status@ 000283ac     MmcTuningLib:MmcTuningLib.obj
 0002:00004f14       ??_C@_0BL@IJGCFCNL@EmmcTxHs400Tuning?$CI?$CJ?5Start?6@ 000283d4     MmcTuningLib:MmcTuningLib.obj
 0002:00004f30       ??_C@_0DM@CHGMNDAC@EmmcTxHs400Tuning?3?5Tuning?5Block@ 000283f0     MmcTuningLib:MmcTuningLib.obj
 0002:00004f70       ??_C@_0FG@JENJAIBA@EmmcTxHs400Tuning?3?5Set?5Tx?5Data?5@ 00028430     MmcTuningLib:MmcTuningLib.obj
 0002:00004fc8       ??_C@_0DF@DNLPMODG@?$FL?5EmmcTxHs400Tuning?3?5Tx?5Min?5DLL@ 00028488     MmcTuningLib:MmcTuningLib.obj
 0002:00005000       ??_C@_0DC@IPOJPHOI@?$FLTx?5DLL?5Tuning?5Failed?$FN?5DllCount@ 000284c0     MmcTuningLib:MmcTuningLib.obj
 0002:00005034       ??_C@_0DJ@LAIIAAEE@?$FLTx?5DLL?5Tuning?5Failed?$FN?5Smin?5?9?5T@ 000284f4     MmcTuningLib:MmcTuningLib.obj
 0002:00005070       ??_C@_0DC@OMDFFPLI@?$FLTx?5DLL?5Tuning?$FN?5Found?5Minimal?5P@ 00028530     MmcTuningLib:MmcTuningLib.obj
 0002:000050a8       ??_C@_0FG@OCNLLCPF@EmmcTxHs400Tuning?3?5Set?5Tx?5Data?5@ 00028568     MmcTuningLib:MmcTuningLib.obj
 0002:00005100       ??_C@_0DG@GBEHEOCA@?$FL?5EmmcTxHs400Tuning?3?5Tx?5Max?5DLL@ 000285c0     MmcTuningLib:MmcTuningLib.obj
 0002:00005138       ??_C@_0DC@EDOEIMOH@?$FLTx?5DLL?5Tuning?5Failed?$FN?5DllCount@ 000285f8     MmcTuningLib:MmcTuningLib.obj
 0002:0000516c       ??_C@_0DJ@JLLCMLOG@?$FLTx?5DLL?5Tuning?5Failed?$FN?5Smax?5?9?5T@ 0002862c     MmcTuningLib:MmcTuningLib.obj
 0002:000051a8       ??_C@_0DC@LLDLAPPL@?$FLTx?5DLL?5Tuning?$FN?5Found?5Maximal?5P@ 00028668     MmcTuningLib:MmcTuningLib.obj
 0002:000051e0       ??_C@_0FK@MGBBPJCE@?$FLTx?5DLL?5Tuning?$FN?5Optimal?5Point?5?$CI@ 000286a0     MmcTuningLib:MmcTuningLib.obj
 0002:0000523c       ??_C@_0CG@FOGGDPIF@EmmcTxHs400Tuning?$CI?$CJ?5End?0?5Status@ 000286fc     MmcTuningLib:MmcTuningLib.obj
 0002:00005264       ??_C@_0CF@NJHKJDJA@EmmcWriteHs400TuningPattern?$CI?$CJ?5S@ 00028724     MmcTuningLib:MmcTuningLib.obj
 0002:00005290       ??_C@_0EK@POODFPO@EmmcWriteHs400TuningPattern?3?5Mu@ 00028750     MmcTuningLib:MmcTuningLib.obj
 0002:000052dc       ??_C@_0DA@HOEMNHBO@EmmcWriteHs400TuningPattern?$CI?$CJ?5E@ 0002879c     MmcTuningLib:MmcTuningLib.obj
 0002:0000530c       ??_C@_0CA@FFKJPPLG@ConfigureEmmcHs400Mode?$CI?$CJ?5Start?6@ 000287cc     MmcTuningLib:MmcTuningLib.obj
 0002:0000532c       ??_C@_0BM@LFNHCDAN@Initial?5HS400?5DLL?5values?5?3?6@ 000287ec     MmcTuningLib:MmcTuningLib.obj
 0002:00005348       ??_C@_0CC@HGCALCDN@Tx?5Data?5Delay?5Control?51?5?$DN?50x?$CF08@ 00028808     MmcTuningLib:MmcTuningLib.obj
 0002:0000536c       ??_C@_0CC@PJCOIFIC@Rx?5Strobe?5Delay?5Control?5?$DN?50x?$CF08@ 0002882c     MmcTuningLib:MmcTuningLib.obj
 0002:00005390       ??_C@_0DN@LPLAOPB@ConfigureEmmcHs400Mode?3?5EmmcWri@ 00028850     MmcTuningLib:MmcTuningLib.obj
 0002:000053d0       ??_C@_0DG@KGPLDIHJ@ConfigureEmmcHs400Mode?3?5Rx?5HS40@ 00028890     MmcTuningLib:MmcTuningLib.obj
 0002:00005408       ??_C@_0DG@IBOONAPE@EmmcRxHs400Tuning?3?5eMMC?5HS200?5M@ 000288c8     MmcTuningLib:MmcTuningLib.obj
 0002:00005440       ??_C@_0DG@CPLJHCEJ@ConfigureEmmcHs400Mode?3?5Tx?5HS40@ 00028900     MmcTuningLib:MmcTuningLib.obj
 0002:00005478       ??_C@_0DG@CPKKIIFA@EmmcTxHs400Tuning?3?5eMMC?5HS200?5M@ 00028938     MmcTuningLib:MmcTuningLib.obj
 0002:000054b0       ??_C@_0BP@EOGFOCEJ@ConfigureEmmcHs400Mode?5?$CI?$CJ?5End?6@ 00028970     MmcTuningLib:MmcTuningLib.obj
 0002:000054d0       ??_C@_0BO@NEILBMGF@Mmc?5Dll?5Tuning?5for?5HS400?5?4?4?4?6@ 00028990     MmcTuningLib:MmcTuningLib.obj
 0002:000054f0       ??_C@_0CE@NCPPPONN@MmcTuneDllsToHs400?3?5Tuning?5Fail@ 000289b0     MmcTuningLib:MmcTuningLib.obj
 0002:00005514       ??_C@_0CF@IBOIHMPB@Mmc?5Dll?5Tuning?5for?5HS400?5Succes@ 000289d4     MmcTuningLib:MmcTuningLib.obj
 0002:0000553c       ??_C@_0DM@CNMPKFGE@MMC?5DLL?5tuning?5failed?0?5status?5?$DN@ 000289fc     MmcTuningLib:MmcTuningLib.obj
 0002:00005578       ??_C@_0DA@OFNCBCNC@MMC?5DLL?5data?5?$CIinitial?$CJ?5?9?5TX?50x?$CF@ 00028a38     MmcTuningLib:MmcTuningLib.obj
 0002:000055a8       ??_C@_0DA@CPDBELND@MMC?5DLL?5data?5?$CIcurrent?$CJ?5?9?5TX?50x?$CF@ 00028a68     MmcTuningLib:MmcTuningLib.obj
 0002:000055d8       ??_C@_0CC@IDNKPOLJ@eMMC?5Tuning?5feature?5is?5disabled@ 00028a98     MmcTuningLib:MmcTuningLib.obj
 0002:000055fc       ??_C@_1O@HMJOKKK@?$AAM?$AAM?$AAC?$AAD?$AAL?$AAL@ 00028abc     MmcTuningLib:MmcTuningLib.obj
 0002:0000560c       ??_C@_0DF@NHAFKFIM@Found?5eMMC?5tunning?5data?0?5re?9tun@ 00028acc     MmcTuningLib:MmcTuningLib.obj
 0002:00005644       ??_C@_0BG@OCEJIJAN@Execute?5eMMC?5tunning?6@ 00028b04     MmcTuningLib:MmcTuningLib.obj
 0002:0000565c       ??_C@_0CE@HEAGLEGN@MMC?5MmcTuneDlls?5error?0?5status?5?$DN@ 00028b1c     MmcTuningLib:MmcTuningLib.obj
 0002:00005680       ??_C@_0CK@JNCHBGMA@eMMC?5tunning?5done?0?5RxDll?$DN?$CF02X?5T@ 00028b40     MmcTuningLib:MmcTuningLib.obj
 0002:000056ac       ??_C@_0DA@JDCDEIOO@ERRORL?3?5MMC?5serial?5number?5inval@ 00028b6c     MmcTuningLib:MmcTuningLib.obj
 0002:000056dc       ??_C@_0CG@NNECKPIF@MMC?5DLL?5data?5save?5error?0?5status@ 00028b9c     MmcTuningLib:MmcTuningLib.obj
 0002:00005708       _EmmcWorstCasePattern      00028bc8     MmcTuningLib:MmcTuningLib.obj
 0002:00005908       ??_C@_0FK@MHKFLOOM@e?3?2code?2adl_n100_code?2sblplatfo@ 00028dc8     AhciLib:AhciBlkIo.obj
 0002:00005964       ??_C@_06MJGADGFD@Deinit@   00028e24     AhciLib:AhciBlkIo.obj
 0002:0000596c       ??_C@_04LLJCPOLH@Init@     00028e2c     AhciLib:AhciBlkIo.obj
 0002:00005974       ??_C@_0BH@JLNBCHK@?$CFa?5AHCI?5controller?5?$CFX?6@ 00028e34     AhciLib:AhciBlkIo.obj
 0002:0000598c       ??_C@_0CD@PADJBFAG@Not?5a?5AHCI?5controller?5or?5Disabl@ 00028e4c     AhciLib:AhciBlkIo.obj
 0002:000059b0       ??_C@_0BN@FMAECPBP@Skip?5reinit?5AHCI?5controller?6@ 00028e70     AhciLib:AhciBlkIo.obj
 0002:000059d0       ??_C@_0BM@NPLOAKHL@AhciDeviceRead?5Status?5?$DN?5?$CFr?6@ 00028e90     AhciLib:AhciDevice.obj
 0002:000059ec       ??_C@_0BP@HPIOFFCG@AhciController?5?$CB?$DN?5?$CI?$CIvoid?5?$CK?$CJ?50?$CJ@ 00028eac     AhciLib:AhciMode.obj
 0002:00005a10       ??_C@_0FJ@IKEKDLDG@e?3?2code?2adl_n100_code?2sblplatfo@ 00028ed0     AhciLib:AhciMode.obj
 0002:00005a6c       ??_C@_0BE@EIHDHNL@PrdtNumber?5?$DM?$DN?565535@ 00028f2c     AhciLib:AhciMode.obj
 0002:00005a80       ??_C@_0DP@IJKHLDBE@Port?5?$CFd?5Device?5presence?5detecte@ 00028f40     AhciLib:AhciMode.obj
 0002:00005ac0       ??_C@_05POABADMF@cdrom@    00028f80     AhciLib:AhciMode.obj
 0002:00005ac8       ??_C@_08PALMOJOH@harddisk@ 00028f88     AhciLib:AhciMode.obj
 0002:00005ad4       ??_C@_0BL@LEEGIFAA@AHCI?5port?5?$FL?$CFd?$FN?5has?5a?5?$FL?$CFa?$FN?6@ 00028f94     AhciLib:AhciMode.obj
 0002:00005af0       ??_C@_0CF@ONEKJMPC@Set?5transfer?5Mode?5Fail?0?5Status?5@ 00028fb0     AhciLib:AhciMode.obj
 0002:00005b18       ??_C@_0BM@EFBFPLBC@UfsBlockIoPei?3?5Is?5No?5Media?6@ 00028fd8     UfsBlockIoLib:UfsBlockIoLib.obj
 0002:00005b34       ??_C@_0CA@BABELCHL@UfsBlockIoPei?3?5Is?5Media?5Change?6@ 00028ff4     UfsBlockIoLib:UfsBlockIoLib.obj
 0002:00005b54       ??_C@_0CB@MIJPPCHJ@UfsBlockIoPei?3?5Was?5Reset?5Before@ 00029014     UfsBlockIoLib:UfsBlockIoLib.obj
 0002:00005b78       ??_C@_0BM@JMMMCMFN@UfsBlockIoPei?3?5Media?5Error?6@ 00029038     UfsBlockIoLib:UfsBlockIoLib.obj
 0002:00005b94       ??_C@_0BP@CLCAEFNH@UfsBlockIoPei?3?5Hardware?5Error?6@ 00029054     UfsBlockIoLib:UfsBlockIoLib.obj
 0002:00005bb4       ??_C@_0CN@MDOCCGMP@UfsBlockIoPei?3?5Sense?5Key?5?$DN?50x?$CFx@ 00029074     UfsBlockIoLib:UfsBlockIoLib.obj
 0002:00005be4       ??_C@_0CJ@KLGJICJK@?5?5?5?5UfsReadBlocks_internal?3?5Sta@ 000290a4     UfsBlockIoLib:UfsBlockIoLib.obj
 0002:00005c10       ??_C@_0CC@CMPMBMLG@UfsWriteBlocks?4?5DeviceIndex?5?$DN?5?$CF@ 000290d0     UfsBlockIoLib:UfsBlockIoLib.obj
 0002:00005c34       ??_C@_0CM@HFBHMMJG@VerifyUfsHcPlatformPostHceSwitc@ 000290f4     UfsBlockIoLib:UfsBlockIoLib.obj
 0002:00005c60       ??_C@_0DG@JOFNODFI@VerifyUfsHcPlatformPostHceSwitc@ 00029120     UfsBlockIoLib:UfsBlockIoLib.obj
 0002:00005c98       ??_C@_0CO@OILIIEAH@UfsPowerModeAndGearSwitch?5Fails@ 00029158     UfsBlockIoLib:UfsBlockIoLib.obj
 0002:00005cc8       ??_C@_0CL@NAPGFIDL@VerifyUfsHcPlatformPostHceSwitc@ 00029188     UfsBlockIoLib:UfsBlockIoLib.obj
 0002:00005cf4       ??_C@_0DK@KPJNEKGD@Failed?5to?5allocate?5memory?5for?5U@ 000291b4     UfsBlockIoLib:UfsBlockIoLib.obj
 0002:00005d30       ??_C@_0DJ@PLPDLAFG@Failed?5to?5allocate?5memory?5for?5U@ 000291f0     UfsBlockIoLib:UfsBlockIoLib.obj
 0002:00005d70       ??_C@_0EB@KDJAGJLA@UfsDevicePei?3?5Host?5Controller?5I@ 00029230     UfsBlockIoLib:UfsBlockIoLib.obj
 0002:00005db4       ??_C@_0CP@HCFFPAAI@Ufs?5Sending?5NOP?5IN?5command?5Erro@ 00029274     UfsBlockIoLib:UfsBlockIoLib.obj
 0002:00005de4       ??_C@_0DF@PALLDHFA@Device?5failed?5to?5finish?5initial@ 000292a4     UfsBlockIoLib:UfsBlockIoLib.obj
 0002:00005e1c       ??_C@_0CB@KBMBGPKH@Setting?5clock?5frequency?5for?5UFS@ 000292dc     UfsBlockIoLib:UfsBlockIoLib.obj
 0002:00005e40       ??_C@_0GH@MGJCJEKL@Setting?5bRefClkFreq?5attribute?$CI?$CF@ 00029300     UfsBlockIoLib:UfsBlockIoLib.obj
 0002:00005ea8       ??_C@_0EA@IAHNDDKN@Failed?5to?5Change?5Reference?5Cloc@ 00029368     UfsBlockIoLib:UfsBlockIoLib.obj
 0002:00005ee8       ??_C@_0DI@OAHHEINK@Failed?5to?5Read?5Reference?5Clock?5@ 000293a8     UfsBlockIoLib:UfsBlockIoLib.obj
 0002:00005f20       ??_C@_0CP@DJBEFLFO@Setting?5bRefClkFreq?5attribute?$CI?$CF@ 000293e0     UfsBlockIoLib:UfsBlockIoLib.obj
 0002:00005f50       ??_C@_0CN@POPCNDDA@Setting?5bRefClkFreq?5attribute?$CI?$CF@ 00029410     UfsBlockIoLib:UfsBlockIoLib.obj
 0002:00005f80       ??_C@_0CP@EJEKKKBK@Setting?5bRefClkFreq?5attribute?$CI?$CF@ 00029440     UfsBlockIoLib:UfsBlockIoLib.obj
 0002:00005fb0       ??_C@_0DK@KHEJJIAM@Failed?5to?5switch?5power?5link?5pow@ 00029470     UfsBlockIoLib:UfsBlockIoLib.obj
 0002:00005fec       ??_C@_0DJ@LMHKLDOF@Failed?5to?5read?5unit?5descriptor?0@ 000294ac     UfsBlockIoLib:UfsBlockIoLib.obj
 0002:00006028       ??_C@_0BH@HNLDFKGE@UFS?5LUN?5?$CFX?5is?5enabled?6@ 000294e8     UfsBlockIoLib:UfsBlockIoLib.obj
 0002:00006040       ??_C@_0CP@KIGLFLNJ@Failed?5to?5read?5device?5descripto@ 00029500     UfsBlockIoLib:UfsBlockIoLib.obj
 0002:00006070       ??_C@_0BM@MMPKHEA@UFS?5WLUN?5RPMB?5is?5supported?6@ 00029530     UfsBlockIoLib:UfsBlockIoLib.obj
 0002:0000608c       ??_C@_0P@PKPJJJNA@Init?5UFS?5done?6@ 0002954c     UfsBlockIoLib:UfsBlockIoLib.obj
 0002:0000609c       ??_C@_0DJ@KLNNLNLF@UIC?5configuration?5command?5fails@ 0002955c     UfsBlockIoLib:UfsHci.obj
 0002:000060d8       ??_C@_0DP@NHOKIIDJ@UIC?5configuration?5command?5fails@ 00029598     UfsBlockIoLib:UfsHci.obj
 0002:00006118       ??_C@_0DL@EAJCJBPJ@UIC?5configuration?5command?5fails@ 000295d8     UfsBlockIoLib:UfsHci.obj
 0002:00006154       ??_C@_0DM@DCLNFFJG@UIC?5configuration?5command?5fails@ 00029614     UfsBlockIoLib:UfsHci.obj
 0002:00006190       ??_C@_0CN@PCAOKLAE@UIC?5configuration?5command?5fails@ 00029650     UfsBlockIoLib:UfsHci.obj
 0002:000061c0       ??_C@_0DI@KMCHGPOC@UIC?5configuration?5command?5fails@ 00029680     UfsBlockIoLib:UfsHci.obj
 0002:000061f8       ??_C@_0DK@BFLALPGK@UIC?5configuration?5command?5fails@ 000296b8     UfsBlockIoLib:UfsHci.obj
 0002:00006234       ??_C@_0DO@FBKFDDFH@UIC?5configuration?5command?5fails@ 000296f4     UfsBlockIoLib:UfsHci.obj
 0002:00006274       ??_C@_0CI@BFJGMKJJ@UIC?5configuration?5command?5fails@ 00029734     UfsBlockIoLib:UfsHci.obj
 0002:0000629c       ??_C@_0CP@HLNPKJNO@UIC?5configuration?5command?5fails@ 0002975c     UfsBlockIoLib:UfsHci.obj
 0002:000062d0       ??_C@_0FN@CEDFKMPO@e?3?2code?2adl_n100_code?2sblplatfo@ 00029790     UfsBlockIoLib:UfsHci.obj
 0002:00006330       ??_C@_0CF@KNKPGLGI@UIC?5control?5command?5fails?5?9?5FAI@ 000297f0     UfsBlockIoLib:UfsHci.obj
 0002:00006358       ??_C@_0CM@EHDBHJGF@Query?5Response?5with?5Parameter?5N@ 00029818     UfsBlockIoLib:UfsHci.obj
 0002:00006384       ??_C@_0CN@EHFOMCIP@Query?5Response?5with?5Parameter?5N@ 00029844     UfsBlockIoLib:UfsHci.obj
 0002:000063b4       ??_C@_0CP@CHJGPEP@Query?5Response?5with?5Parameter?5A@ 00029874     UfsBlockIoLib:UfsHci.obj
 0002:000063e4       ??_C@_0CE@JJBDDNJO@Query?5Response?5with?5Invalid?5Len@ 000298a4     UfsBlockIoLib:UfsHci.obj
 0002:00006408       ??_C@_0CD@GIHJEAJN@Query?5Response?5with?5Invalid?5Val@ 000298c8     UfsBlockIoLib:UfsHci.obj
 0002:0000642c       ??_C@_0CG@KOBEKFIC@Query?5Response?5with?5Invalid?5Sel@ 000298ec     UfsBlockIoLib:UfsHci.obj
 0002:00006454       ??_C@_0CD@HMCODCBC@Query?5Response?5with?5Invalid?5Ind@ 00029914     UfsBlockIoLib:UfsHci.obj
 0002:00006478       ??_C@_0CB@GBDEGLIN@Query?5Response?5with?5Invalid?5Idn@ 00029938     UfsBlockIoLib:UfsHci.obj
 0002:0000649c       ??_C@_0CE@PGFFBFMH@Query?5Response?5with?5Invalid?5Opc@ 0002995c     UfsBlockIoLib:UfsHci.obj
 0002:000064c0       ??_C@_0CF@GJBMCPKC@Query?5Response?5with?5General?5Fai@ 00029980     UfsBlockIoLib:UfsHci.obj
 0002:000064e8       ??_C@_0BI@MENPPJCI@TsfBase?5?$CB?$DN?5?$CI?$CIvoid?5?$CK?$CJ?50?$CJ@ 000299a8     UfsBlockIoLib:UfsHci.obj
 0002:00006500       ??_C@_0CE@LIDJPJMJ@Opcode?5?$DM?$DN?5UtpQueryFuncOpcodeTog@ 000299c0     UfsBlockIoLib:UfsHci.obj
 0002:00006524       ??_C@_0DD@IDLNBNE@?$CICommand?5?$CB?$DN?5?$CI?$CIvoid?5?$CK?$CJ?50?$CJ?$CJ?5?$CG?$CG?5?$CIC@ 000299e4     UfsBlockIoLib:UfsHci.obj
 0002:00006558       ??_C@_0DL@LDDEDDLO@UfsInitUtpPrdt?3?5The?5BufferSize?5@ 00029a18     UfsBlockIoLib:UfsHci.obj
 0002:00006594       ??_C@_0DB@GHCNDEBG@?$CI?$CIUINTN?$CJBuffer?5?$CG?5?$CI0x00000001?5?$HM?5@ 00029a54     UfsBlockIoLib:UfsHci.obj
 0002:000065c8       ??_C@_0BJ@NCLLBGHG@QueryReq?5?$CB?$DN?5?$CI?$CIvoid?5?$CK?$CJ?50?$CJ@ 00029a88     UfsBlockIoLib:UfsHci.obj
 0002:000065e8       ??_C@_0EP@MNADIJNP@?$CIPrivate?5?$CB?$DN?5?$CI?$CIvoid?5?$CK?$CJ?50?$CJ?$CJ?5?$CG?$CG?5?$CIP@ 00029aa8     UfsBlockIoLib:UfsHci.obj
 0002:00006638       ??_C@_0DD@EOOAACEB@?$CIPrivate?5?$CB?$DN?5?$CI?$CIvoid?5?$CK?$CJ?50?$CJ?$CJ?5?$CG?$CG?5?$CIT@ 00029af8     UfsBlockIoLib:UfsHci.obj
 0002:0000666c       ??_C@_0DE@EGLALPJI@?$CIPrivate?5?$CB?$DN?5?$CI?$CIvoid?5?$CK?$CJ?50?$CJ?$CJ?5?$CG?$CG?5?$CIS@ 00029b2c     UfsBlockIoLib:UfsHci.obj
 0002:000066a0       ??_C@_0CI@HBDJIMGJ@Failed?5to?5create?5DM?5command?5des@ 00029b60     UfsBlockIoLib:UfsHci.obj
 0002:000066c8       ??_C@_0BK@GNJDKHLH@QueryResp?5?$CB?$DN?5?$CI?$CIvoid?5?$CK?$CJ?50?$CJ@ 00029b88     UfsBlockIoLib:UfsHci.obj
 0002:000066e4       ??_C@_0DI@PDCPFJMB@Failed?5to?5send?5query?5request?0?5O@ 00029ba4     UfsBlockIoLib:UfsHci.obj
 0002:0000671c       ??_C@_0CP@GGNFNKAE@Failed?5to?5get?5return?5data?5from?5@ 00029bdc     UfsBlockIoLib:UfsHci.obj
 0002:0000674c       ??_C@_0DJ@GKBMNDHH@Failed?5to?5get?5response?5from?5the@ 00029c0c     UfsBlockIoLib:UfsHci.obj
 0002:00006788       ??_C@_0BK@KIPKIEKB@NopInUpiu?5?$CB?$DN?5?$CI?$CIvoid?5?$CK?$CJ?50?$CJ@ 00029c48     UfsBlockIoLib:UfsHci.obj
 0002:000067a4       ??_C@_0CN@EOFFIMHO@UfsExecScsiCmds?$CI?$CJ?5fails?5with?5Ta@ 00029c64     UfsBlockIoLib:UfsHci.obj
 0002:000067d4       ??_C@_0CJ@PEANFGKM@Failed?5to?5execute?5UIC?5LccDisabl@ 00029c94     UfsBlockIoLib:UfsHci.obj
 0002:00006800       ??_C@_0DJ@BMPNEELO@Failed?5to?5Get?5UfsUicDmeGet?5PA_C@ 00029cc0     UfsBlockIoLib:UfsHci.obj
 0002:0000683c       ??_C@_0DG@PGCBJFIE@Failed?5to?5Get?5UfsUicDmeGet?5PA_A@ 00029cfc     UfsBlockIoLib:UfsHci.obj
 0002:00006878       ??_C@_0EP@EGCGCI@UfsActivateAllLanes?5?3?5PA_Active@ 00029d38     UfsBlockIoLib:UfsHci.obj
 0002:000068c8       ??_C@_0CE@EHJJINIO@Failed?5to?5set?5active?5Rx?5data?5la@ 00029d88     UfsBlockIoLib:UfsHci.obj
 0002:000068ec       ??_C@_0DI@LJKPEOGP@Failed?5to?5Get?5UfsUicDmeGet?5PA_C@ 00029dac     UfsBlockIoLib:UfsHci.obj
 0002:00006924       ??_C@_0DG@PIFNCJAB@Failed?5to?5Get?5UfsUicDmeGet?5PA_A@ 00029de4     UfsBlockIoLib:UfsHci.obj
 0002:00006960       ??_C@_0EP@IDJOPAGF@UfsActivateAllLanes?5?3?5PA_Active@ 00029e20     UfsBlockIoLib:UfsHci.obj
 0002:000069b0       ??_C@_0CE@GFGDFJHM@Failed?5to?5set?5active?5Tx?5data?5la@ 00029e70     UfsBlockIoLib:UfsHci.obj
 0002:000069d4       ??_C@_0DE@EFOLKLEG@Failed?5to?5set?5active?5FC0?5protec@ 00029e94     UfsBlockIoLib:UfsHci.obj
 0002:00006a08       ??_C@_0DA@IEMKEKJJ@Failed?5to?5set?5active?5TC0?5replay@ 00029ec8     UfsBlockIoLib:UfsHci.obj
 0002:00006a38       ??_C@_0CO@GDFCNLO@Failed?5to?5set?5active?5AFC0?5req?5t@ 00029ef8     UfsBlockIoLib:UfsHci.obj
 0002:00006a68       ??_C@_0BJ@IINEOAIE@Failed?5to?5enable?5rate?5B?6@ 00029f28     UfsBlockIoLib:UfsHci.obj
 0002:00006a84       ??_C@_0CB@NKHCKFBF@Failed?5to?5enable?5Rx?5termination@ 00029f44     UfsBlockIoLib:UfsHci.obj
 0002:00006aa8       ??_C@_0CB@IJODMMPB@Failed?5to?5enable?5Tx?5termination@ 00029f68     UfsBlockIoLib:UfsHci.obj
 0002:00006acc       ??_C@_0BK@PLMCEMEN@UfsDumpLinkConfig?5Entry?5?6@ 00029f8c     UfsBlockIoLib:UfsHci.obj
 0002:00006ae8       ??_C@_0DH@IDKNFGPJ@Failed?5to?5Get?5UfsUicDmeGet?5PA_L@ 00029fa8     UfsBlockIoLib:UfsHci.obj
 0002:00006b20       ??_C@_0CP@PEJNEMDD@UfsUicDmeGet?5PA_Local_TX_LCC_En@ 00029fe0     UfsBlockIoLib:UfsHci.obj
 0002:00006b50       ??_C@_0CP@NICLKNOC@Failed?5to?5Get?5UfsUicDmeGet?5PA_M@ 0002a010     UfsBlockIoLib:UfsHci.obj
 0002:00006b80       ??_C@_0CH@LEEGNKEK@UfsUicDmeGet?5PA_MaxRxHSGear?$CI?$CFx?$CJ@ 0002a040     UfsBlockIoLib:UfsHci.obj
 0002:00006ba8       ??_C@_0DD@GEHCDNCK@Failed?5to?5Get?5UfsUicDmePeerGet?5@ 0002a068     UfsBlockIoLib:UfsHci.obj
 0002:00006bdc       ??_C@_0CL@DBMMBFMG@UfsUicDmePeerGet?5PA_MaxRxHSGear@ 0002a09c     UfsBlockIoLib:UfsHci.obj
 0002:00006c08       ??_C@_0DA@ONOMNMDF@Failed?5to?5Get?5UfsUicDmeGet?5PA_M@ 0002a0c8     UfsBlockIoLib:UfsHci.obj
 0002:00006c38       ??_C@_0CI@OBLKDGDF@UfsUicDmeGet?5PA_MaxRxPWMGear?$CI?$CFx@ 0002a0f8     UfsBlockIoLib:UfsHci.obj
 0002:00006c60       ??_C@_0DE@HIOPMPCH@Failed?5to?5Get?5UfsUicDmePeerGet?5@ 0002a120     UfsBlockIoLib:UfsHci.obj
 0002:00006c94       ??_C@_0CM@FDBHDPB@UfsUicDmePeerGet?5PA_MaxRxPWMGea@ 0002a154     UfsBlockIoLib:UfsHci.obj
 0002:00006cc0       ??_C@_0DE@MOPNOGAL@Failed?5to?5Get?5UfsUicDmeGet?5PA_A@ 0002a180     UfsBlockIoLib:UfsHci.obj
 0002:00006cf4       ??_C@_0CM@ICENOGHP@UfsUicDmeGet?5PA_AvailTxDataLane@ 0002a1b4     UfsBlockIoLib:UfsHci.obj
 0002:00006d20       ??_C@_0DE@GJMJFBAD@Failed?5to?5Get?5UfsUicDmeGet?5PA_A@ 0002a1e0     UfsBlockIoLib:UfsHci.obj
 0002:00006d54       ??_C@_0CM@GPIHJEAF@UfsUicDmeGet?5PA_AvailRxDataLane@ 0002a214     UfsBlockIoLib:UfsHci.obj
 0002:00006d80       ??_C@_0DA@BEMCOGBK@UfsUicDmeGet?5PA_ConnectedTxData@ 0002a240     UfsBlockIoLib:UfsHci.obj
 0002:00006db0       ??_C@_0DI@BOJLPJGH@Failed?5to?5Get?5UfsUicDmeGet?5PA_C@ 0002a270     UfsBlockIoLib:UfsHci.obj
 0002:00006de8       ??_C@_0DA@PJAIJEGA@UfsUicDmeGet?5PA_ConnectedRxData@ 0002a2a8     UfsBlockIoLib:UfsHci.obj
 0002:00006e18       ??_C@_0DF@LADJENOL@Failed?5to?5Get?5UfsUicDmeGet?5PA_A@ 0002a2d8     UfsBlockIoLib:UfsHci.obj
 0002:00006e50       ??_C@_0CN@IGODOFEM@UfsUicDmeGet?5PA_ActiveTxDataLan@ 0002a310     UfsBlockIoLib:UfsHci.obj
 0002:00006e80       ??_C@_0DF@BHANPKOD@Failed?5to?5Get?5UfsUicDmeGet?5PA_A@ 0002a340     UfsBlockIoLib:UfsHci.obj
 0002:00006eb8       ??_C@_0CN@GLCJJHDG@UfsUicDmeGet?5PA_ActiveRxDataLan@ 0002a378     UfsBlockIoLib:UfsHci.obj
 0002:00006ee8       ??_C@_0CP@KKANPDMD@Failed?5to?5Get?5UfsUicDmeGet?5PA_T@ 0002a3a8     UfsBlockIoLib:UfsHci.obj
 0002:00006f18       ??_C@_0CH@CNLJDBKP@UfsUicDmeGet?5PA_TxPWRStatus?$CI?$CFx?$CJ@ 0002a3d8     UfsBlockIoLib:UfsHci.obj
 0002:00006f40       ??_C@_0CP@NDJEEML@Failed?5to?5Get?5UfsUicDmeGet?5PA_R@ 0002a400     UfsBlockIoLib:UfsHci.obj
 0002:00006f70       ??_C@_0CH@MAHDEDNF@UfsUicDmeGet?5PA_RxPWRStatus?$CI?$CFx?$CJ@ 0002a430     UfsBlockIoLib:UfsHci.obj
 0002:00006f98       ??_C@_0DL@BHHCEHKJ@Failed?5to?5Get?5UfsUicDmeGet?5DL_F@ 0002a458     UfsBlockIoLib:UfsHci.obj
 0002:00006fd4       ??_C@_0DD@MIOPDNIP@UfsUicDmeGet?5DL_FC0ProtectionTi@ 0002a494     UfsBlockIoLib:UfsHci.obj
 0002:00007008       ??_C@_0DH@HALLAJOK@Failed?5to?5Get?5UfsUicDmeGet?5DL_T@ 0002a4c8     UfsBlockIoLib:UfsHci.obj
 0002:00007040       ??_C@_0CP@JGMKBNG@UfsUicDmeGet?5DL_TC0ReplayTimeOu@ 0002a500     UfsBlockIoLib:UfsHci.obj
 0002:00007070       ??_C@_0DF@GIFLODLG@Failed?5to?5Get?5UfsUicDmeGet?5DL_A@ 0002a530     UfsBlockIoLib:UfsHci.obj
 0002:000070a8       ??_C@_0CN@OLFBIEJC@UfsUicDmeGet?5DL_AFC0ReqTimeOutV@ 0002a568     UfsBlockIoLib:UfsHci.obj
 0002:000070d8       ??_C@_0CK@KENBDNDJ@Failed?5to?5Get?5UfsUicDmeGet?5PA_T@ 0002a598     UfsBlockIoLib:UfsHci.obj
 0002:00007104       ??_C@_0CC@COIDKOCJ@UfsUicDmeGet?5PA_TXGear?$CI?$CFx?$CJ?5?$DN?5?$CFx@ 0002a5c4     UfsBlockIoLib:UfsHci.obj
 0002:00007128       ??_C@_0DB@BAGIFDN@Failed?5to?5Get?5UfsUicDmeGet?5PA_T@ 0002a5e8     UfsBlockIoLib:UfsHci.obj
 0002:0000715c       ??_C@_0CJ@NDOFNOMM@UfsUicDmeGet?5PA_TxTermination?$CI?$CF@ 0002a61c     UfsBlockIoLib:UfsHci.obj
 0002:00007188       ??_C@_0CM@CHNGFEOJ@Failed?5to?5Get?5UfsUicDmeGet?5PA_H@ 0002a648     UfsBlockIoLib:UfsHci.obj
 0002:000071b4       ??_C@_0CE@NBGHGJJE@UfsUicDmeGet?5PA_HSSeries?$CI?$CFx?$CJ?5?$DN?5@ 0002a674     UfsBlockIoLib:UfsHci.obj
 0002:000071d8       ??_C@_0CK@ELOMJINJ@Failed?5to?5Get?5UfsUicDmeGet?5PA_R@ 0002a698     UfsBlockIoLib:UfsHci.obj
 0002:00007204       ??_C@_0CC@CAPPBCKM@UfsUicDmeGet?5PA_RXGear?$CI?$CFx?$CJ?5?$DN?5?$CFx@ 0002a6c4     UfsBlockIoLib:UfsHci.obj
 0002:00007228       ??_C@_0DB@JMNKIOCO@Failed?5to?5Get?5UfsUicDmeGet?5PA_R@ 0002a6e8     UfsBlockIoLib:UfsHci.obj
 0002:0000725c       ??_C@_0CJ@LIDOLCGK@UfsUicDmeGet?5PA_RxTermination?$CI?$CF@ 0002a71c     UfsBlockIoLib:UfsHci.obj
 0002:00007288       ??_C@_0BJ@JCEHPFDP@UfsDumpLinkConfig?5Exit?5?6@ 0002a748     UfsBlockIoLib:UfsHci.obj
 0002:000072a4       ??_C@_0CD@LNPKMPFF@UfsPowerModeAndGearSwitch?5Entry@ 0002a764     UfsBlockIoLib:UfsHci.obj
 0002:000072c8       ??_C@_0BO@LBMMLOKB@Failed?5to?5Program?5UFS?5Lanes?5?6@ 0002a788     UfsBlockIoLib:UfsHci.obj
 0002:000072e8       ??_C@_0DA@IBOJIDEF@Failed?5to?5Get?5UfsUicDmeGet?5PA_M@ 0002a7a8     UfsBlockIoLib:UfsHci.obj
 0002:00007318       ??_C@_0DF@GKEHHBBI@Failed?5to?5Get?5UfsUicDmePeerGet?5@ 0002a7d8     UfsBlockIoLib:UfsHci.obj
 0002:00007350       ??_C@_0DE@BEOKJAFH@Failed?5to?5Get?5UfsUicDmePeerGet?5@ 0002a810     UfsBlockIoLib:UfsHci.obj
 0002:00007384       ??_C@_0BM@EJOCCPHO@PowerMode?$FLUfsRxLane?$FN?5?$DN?5?$CFx?5?6@ 0002a844     UfsBlockIoLib:UfsHci.obj
 0002:000073a0       ??_C@_0BM@GLBIPLIM@PowerMode?$FLUfsTxLane?$FN?5?$DN?5?$CFx?5?6@ 0002a860     UfsBlockIoLib:UfsHci.obj
 0002:000073bc       ??_C@_0BM@BOOKFFJN@MaxHsGear?$FLUfsRxLane?$FN?5?$DN?5?$CFx?5?6@ 0002a87c     UfsBlockIoLib:UfsHci.obj
 0002:000073d8       ??_C@_0BM@DMBAIBGP@MaxHsGear?$FLUfsTxLane?$FN?5?$DN?5?$CFx?5?6@ 0002a898     UfsBlockIoLib:UfsHci.obj
 0002:000073f4       ??_C@_0BN@HLLCPEAD@MaxPwmGear?$FLUfsRxLane?$FN?5?$DN?5?$CFx?5?6@ 0002a8b4     UfsBlockIoLib:UfsHci.obj
 0002:00007414       ??_C@_0BN@FJEICAPB@MaxPwmGear?$FLUfsTxLane?$FN?5?$DN?5?$CFx?5?6@ 0002a8d4     UfsBlockIoLib:UfsHci.obj
 0002:00007434       ??_C@_0CH@OJCCANGC@Failed?5to?5set?5UfsUicDmeSet?5PA_R@ 0002a8f4     UfsBlockIoLib:UfsHci.obj
 0002:0000745c       ??_C@_0BK@CNOCMCIG@Limited?5MaxHsGear?5to?5?$CFx?5?6@ 0002a91c     UfsBlockIoLib:UfsHci.obj
 0002:00007478       ??_C@_0EF@FADNHGGJ@CurrentHsGear?$FLUfsRxLane?$FN?5?$DN?5?$CFx?5s@ 0002a938     UfsBlockIoLib:UfsHci.obj
 0002:000074c0       ??_C@_0CH@JKDIHEOI@Failed?5to?5set?5UfsUicDmeSet?5PA_T@ 0002a980     UfsBlockIoLib:UfsHci.obj
 0002:000074e8       ??_C@_0CH@JNHOIHHH@Failed?5to?5Get?5UfsUicDmeSet?5PA_T@ 0002a9a8     UfsBlockIoLib:UfsHci.obj
 0002:00007510       ??_C@_0EF@FPADKHNL@CurrentHsGear?$FLUfsTxLane?$FN?5?$DN?5?$CFx?5s@ 0002a9d0     UfsBlockIoLib:UfsHci.obj
 0002:00007558       ??_C@_0CM@CCNAFJJM@UfsHsRecipieProgramming?5Fails?0?5@ 0002aa18     UfsBlockIoLib:UfsHci.obj
 0002:00007584       ??_C@_0BP@GBLCLEEL@Failed?5to?5set?5PA_PWRMode?$CI?$CFx?$CJ?5?6@ 0002aa44     UfsBlockIoLib:UfsHci.obj
 0002:000075a4       ??_C@_0BN@HFHANMIN@Failed?5to?5switch?5power?5mode?6@ 0002aa64     UfsBlockIoLib:UfsHci.obj
 0002:000075c4       ??_C@_0DB@IADLGHPK@Dump?5LinkConfig?5After?5UfsPowerM@ 0002aa84     UfsBlockIoLib:UfsHci.obj
 0002:000075f8       ??_C@_0BL@DLKMAFMH@Failed?5to?5Dump?5LinkConfig?6@ 0002aab8     UfsBlockIoLib:UfsHci.obj
 0002:00007614       ??_C@_0CA@GIFBHJKJ@UfsPowerModeAndGearSwitch?5Exit?6@ 0002aad4     UfsBlockIoLib:UfsHci.obj
 0002:00007634       ??_C@_0DJ@KCDIDAHP@UfsDevicePei?3?5Enable?5Host?5Contr@ 0002aaf4     UfsBlockIoLib:UfsHci.obj
 0002:00007670       ??_C@_0DD@CAEAIAMK@UfsDevicePei?3?5Device?5Detection?5@ 0002ab30     UfsBlockIoLib:UfsHci.obj
 0002:000076a8       ??_C@_0EG@LBLANGNP@UfsDevicePei?3?5Task?5management?5l@ 0002ab68     UfsBlockIoLib:UfsHci.obj
 0002:000076f0       ??_C@_0DP@GBKJFFAI@UfsDevicePei?3?5Transfer?5list?5ini@ 0002abb0     UfsBlockIoLib:UfsHci.obj
 0002:00007730       ??_C@_0BL@IOBCJLKO@Initialize?5UFS?5device?3?5?$CFr?6@ 0002abf0     UfsBlockIoLib:UfsHci.obj
 0002:0000774c       ??_C@_0CC@KHNBOFBH@?$CIData?5?$CG?50x00000001?$CJ?5?$DN?$DN?50x000000@ 0002ac0c     UfsBlockIoLib:UfsHci.obj
 0002:00007770       ??_C@_0CM@MLMNLAMN@UfsDevicePei?3?5Stop?5the?5UFS?5Host@ 0002ac30     UfsBlockIoLib:UfsHci.obj
 0002:000077a0       ??_C@_0FP@HKJNANAA@e?3?2code?2adl_n100_code?2sblplatfo@ 0002ac60     UfsBlockIoLib:UfsHcMem.obj
 0002:00007800       ??_C@_0DC@CNNOCMEJ@?$CIPool?5?$CB?$DN?5?$CI?$CIvoid?5?$CK?$CJ?50?$CJ?$CJ?5?$CG?$CG?5?$CIBloc@ 0002acc0     UfsBlockIoLib:UfsHcMem.obj
 0002:00007834       ??_C@_0BN@OMBIEECJ@?$CIBlock?5?$CB?$DN?50?$CJ?5?$CG?$CG?5?$CIUnits?5?$CB?$DN?50?$CJ@ 0002acf4     UfsBlockIoLib:UfsHcMem.obj
 0002:00007858       ??_C@_0FF@OFHMFIGA@?$CB?$CI?$CIBOOLEAN?$CJ?$CI?$CI?$CIBlock?9?$DOBits?$FLByte?$FN@ 0002ad18     UfsBlockIoLib:UfsHcMem.obj
 0002:000078b0       ??_C@_0DC@EAPIJOJM@?$CIHead?5?$CB?$DN?5?$CI?$CIvoid?5?$CK?$CJ?50?$CJ?$CJ?5?$CG?$CG?5?$CIBloc@ 0002ad70     UfsBlockIoLib:UfsHcMem.obj
 0002:000078e4       ??_C@_0BG@MJAHJKJ@Block?5?$CB?$DN?5?$CI?$CIvoid?5?$CK?$CJ?50?$CJ@ 0002ada4     UfsBlockIoLib:UfsHcMem.obj
 0002:00007900       ??_C@_0FE@FKGLAPJI@?$CI?$CIBOOLEAN?$CJ?$CI?$CI?$CIBlock?9?$DOBits?$FLByte?$FN?$CJ@ 0002adc0     UfsBlockIoLib:UfsHcMem.obj
 0002:00007954       ??_C@_0CK@FAGDKFCA@?5?$DN?$DN?5NVME?5IDENTIFY?5NAMESPACE?5?$FL?$CFd@ 0002ae14     NvmExpressLib:NvmExpress.obj
 0002:00007980       ??_C@_0BI@NCGNFNCF@?5?5?5?5NSZE?5?5?5?5?5?5?5?5?3?50x?$CFx?6@ 0002ae40     NvmExpressLib:NvmExpress.obj
 0002:00007998       ??_C@_0BI@PBKEDMKI@?5?5?5?5NCAP?5?5?5?5?5?5?5?5?3?50x?$CFx?6@ 0002ae58     NvmExpressLib:NvmExpress.obj
 0002:000079b0       ??_C@_0BI@LHLCEONL@?5?5?5?5NUSE?5?5?5?5?5?5?5?5?3?50x?$CFx?6@ 0002ae70     NvmExpressLib:NvmExpress.obj
 0002:000079c8       ??_C@_0BI@NBLKEILF@?5?5?5?5LBAF0?4LBADS?5?3?50x?$CFx?6@ 0002ae88     NvmExpressLib:NvmExpress.obj
 0002:000079e0       ??_C@_08BLLABOKK@?$CFa?9?$CFa?9?$CFx@ 0002aea0     NvmExpressLib:NvmExpress.obj
 0002:000079ec       ??_C@_0BE@MFLHAPAF@?$CFa?5NVMe?5controller?6@ 0002aeac     NvmExpressLib:NvmExpress.obj
 0002:00007a00       ??_C@_0EN@PADGEPND@NvmExpressDriverBindingStart?3?5a@ 0002aec0     NvmExpressLib:NvmExpress.obj
 0002:00007a50       ??_C@_0BJ@OBCLMJGB@Found?5?$CFd?5NVMe?5namespace?6@ 0002af10     NvmExpressLib:NvmExpress.obj
 0002:00007a6c       ??_C@_0CB@BOECLPIA@NVMe?5initialization?5failed?5?9?5?$CFr@ 0002af2c     NvmExpressLib:NvmExpress.obj
 0002:00007a90       ??_C@_0GJ@OADDBDMN@e?3?2code?2adl_n100_code?2sblplatfo@ 0002af50     NvmExpressLib:NvmExpressDiskInfo.obj
 0002:00007afc       ??_C@_0L@FHDIPDDL@Cc?4En?3?5?$CFd?6@ 0002afbc     NvmExpressLib:NvmExpressHci.obj
 0002:00007b08       ??_C@_0M@FMICDHI@Cc?4Css?3?5?$CFd?6@ 0002afc8     NvmExpressLib:NvmExpressHci.obj
 0002:00007b14       ??_C@_0M@EDIFPPAJ@Cc?4Mps?3?5?$CFd?6@ 0002afd4     NvmExpressLib:NvmExpressHci.obj
 0002:00007b20       ??_C@_0M@ECAPCIOH@Cc?4Ams?3?5?$CFd?6@ 0002afe0     NvmExpressLib:NvmExpressHci.obj
 0002:00007b2c       ??_C@_0M@IONALBHK@Cc?4Shn?3?5?$CFd?6@ 0002afec     NvmExpressLib:NvmExpressHci.obj
 0002:00007b38       ??_C@_0P@NNLILNOF@Cc?4Iosqes?3?5?$CFd?6@ 0002aff8     NvmExpressLib:NvmExpressHci.obj
 0002:00007b48       ??_C@_0P@PKBGDMAN@Cc?4Iocqes?3?5?$CFd?6@ 0002b008     NvmExpressLib:NvmExpressHci.obj
 0002:00007b58       ??_C@_0O@LBFMKGIL@Aqa?4Asqs?3?5?$CFd?6@ 0002b018     NvmExpressLib:NvmExpressHci.obj
 0002:00007b68       ??_C@_0O@BNJMOEPK@Aqa?4Acqs?3?5?$CFd?6@ 0002b028     NvmExpressLib:NvmExpressHci.obj
 0002:00007b78       ??_C@_09BHLKFDIO@Asq?3?5?$CFlx?6@ 0002b038     NvmExpressLib:NvmExpressHci.obj
 0002:00007b84       ??_C@_0L@JMAFGCFI@Acq?3?5?$CFlxh?6@ 0002b044     NvmExpressLib:NvmExpressHci.obj
 0002:00007b90       ??_C@_0CP@MPOPIPKM@NVMe?5controller?5is?5disabled?5wit@ 0002b050     NvmExpressLib:NvmExpressHci.obj
 0002:00007bc0       ??_C@_0CO@HGFCFCLE@NVMe?5controller?5is?5enabled?5with@ 0002b080     NvmExpressLib:NvmExpressHci.obj
 0002:00007bf0       ??_C@_0EF@MOKJEDGP@NvmeControllerInit?3?5the?5control@ 0002b0b0     NvmExpressLib:NvmExpressHci.obj
 0002:00007c38       ??_C@_0CB@PONHFEHF@?$CIPrivate?9?$DOCap?4Mpsmin?5?$CL?512?$CJ?5?$DM?$DN?51@ 0002b0f8     NvmExpressLib:NvmExpressHci.obj
 0002:00007c60       ??_C@_0GE@CGDEPPIC@e?3?2code?2adl_n100_code?2sblplatfo@ 0002b120     NvmExpressLib:NvmExpressHci.obj
 0002:00007cc4       ??_C@_0BL@GLMJKHLL@Private?9?$DOBuffer?5?$DN?5?$FL?$CF016X?$FN?6@ 0002b184     NvmExpressLib:NvmExpressHci.obj
 0002:00007ce0       ??_C@_0DF@MGFDOKOF@Admin?5?5?5?5?5Submission?5Queue?5size@ 0002b1a0     NvmExpressLib:NvmExpressHci.obj
 0002:00007d18       ??_C@_0DF@DHNHNCNJ@Admin?5?5?5?5?5Completion?5Queue?5size@ 0002b1d8     NvmExpressLib:NvmExpressHci.obj
 0002:00007d50       ??_C@_0DE@GMOLDLHB@Admin?5?5?5?5?5Submission?5Queue?5?$CISqB@ 0002b210     NvmExpressLib:NvmExpressHci.obj
 0002:00007d84       ??_C@_0DE@CFOIAGPB@Admin?5?5?5?5?5Completion?5Queue?5?$CICqB@ 0002b244     NvmExpressLib:NvmExpressHci.obj
 0002:00007db8       ??_C@_0DE@NLAICLOC@Sync?5?5I?1O?5Submission?5Queue?5?$CISqB@ 0002b278     NvmExpressLib:NvmExpressHci.obj
 0002:00007dec       ??_C@_0DE@JCALBGGC@Sync?5?5I?1O?5Completion?5Queue?5?$CICqB@ 0002b2ac     NvmExpressLib:NvmExpressHci.obj
 0002:00007e20       ??_C@_0DE@MLJNDFAJ@Async?5I?1O?5Submission?5Queue?5?$CISqB@ 0002b2e0     NvmExpressLib:NvmExpressHci.obj
 0002:00007e54       ??_C@_0DE@ICJOAIIJ@Async?5I?1O?5Completion?5Queue?5?$CICqB@ 0002b314     NvmExpressLib:NvmExpressHci.obj
 0002:00007e88       ??_C@_0CG@LEAFCI@?5?$DN?$DN?5NVME?5IDENTIFY?5CONTROLLER?5DA@ 0002b348     NvmExpressLib:NvmExpressHci.obj
 0002:00007eb0       ??_C@_0BG@CJMGMGAO@?5?5?5?5PCI?5VID?5?5?5?3?50x?$CFx?6@ 0002b370     NvmExpressLib:NvmExpressHci.obj
 0002:00007ec8       ??_C@_0BG@DAILBHEL@?5?5?5?5PCI?5SSVID?5?3?50x?$CFx?6@ 0002b388     NvmExpressLib:NvmExpressHci.obj
 0002:00007ee0       ??_C@_0BE@CCEIHHNM@?5?5?5?5SN?5?5?5?5?5?5?5?5?3?5?$CFa?6@ 0002b3a0     NvmExpressLib:NvmExpressHci.obj
 0002:00007ef4       ??_C@_0BE@OEONLPOJ@?5?5?5?5MN?5?5?5?5?5?5?5?5?3?5?$CFa?6@ 0002b3b4     NvmExpressLib:NvmExpressHci.obj
 0002:00007f08       ??_C@_0BG@MNELIIMG@?5?5?5?5FR?5?5?5?5?5?5?5?5?3?50x?$CFx?6@ 0002b3c8     NvmExpressLib:NvmExpressHci.obj
 0002:00007f20       ??_C@_0BG@BCGKGJMF@?5?5?5?5RAB?5?5?5?5?5?5?5?3?50x?$CFx?6@ 0002b3e0     NvmExpressLib:NvmExpressHci.obj
 0002:00007f38       ??_C@_0BG@DOFGGCGB@?5?5?5?5IEEE?5?5?5?5?5?5?3?50x?$CFx?6@ 0002b3f8     NvmExpressLib:NvmExpressHci.obj
 0002:00007f50       ??_C@_0BG@EEKLBNOJ@?5?5?5?5AERL?5?5?5?5?5?5?3?50x?$CFx?6@ 0002b410     NvmExpressLib:NvmExpressHci.obj
 0002:00007f68       ??_C@_0BG@LBAOPJ@?5?5?5?5SQES?5?5?5?5?5?5?3?50x?$CFx?6@ 0002b428     NvmExpressLib:NvmExpressHci.obj
 0002:00007f80       ??_C@_0BG@COBCFCOB@?5?5?5?5CQES?5?5?5?5?5?5?3?50x?$CFx?6@ 0002b440     NvmExpressLib:NvmExpressHci.obj
 0002:00007f98       ??_C@_0BG@FIFDNHOG@?5?5?5?5NN?5?5?5?5?5?5?5?5?3?50x?$CFx?6@ 0002b458     NvmExpressLib:NvmExpressHci.obj
 0002:00007fb0       ??_C@_08NBGOIMDB@NvmeRead@ 0002b470     NvmExpressLib:NvmExpressBlockIo.obj
 0002:00007fc0       ??_C@_0FL@MNKMPGKL@?$CFa?3?5Lba?5?$DN?50x?$CF08Lx?0?5Original?5?$DN?50@ 0002b480     NvmExpressLib:NvmExpressBlockIo.obj
 0002:0000801c       ??_C@_09BCBKKAOK@NvmeWrite@ 0002b4dc     NvmExpressLib:NvmExpressBlockIo.obj
 0002:00008028       ??_C@_0GI@BNDBHCPP@e?3?2code?2adl_n100_code?2sblplatfo@ 0002b4e8     NvmExpressLib:NvmExpressBlockIo.obj
 0002:00008090       ??_C@_0DA@NCCNLDOC@Dump?5NVMe?5Completion?5Entry?5Stat@ 0002b550     NvmExpressLib:NvmExpressPassthru.obj
 0002:000080c0       ??_C@_0EF@BHBOGFJN@?5?5SQ?5Identifier?5?3?5?$FL0x?$CFx?$FN?0?5Phase@ 0002b580     NvmExpressLib:NvmExpressPassthru.obj
 0002:00008108       ??_C@_0BP@BANDLCOI@?5?5NVMe?5Cmd?5Execution?5Result?5?9?5@ 0002b5c8     NvmExpressLib:NvmExpressPassthru.obj
 0002:00008128       ??_C@_0BH@BNHPBGMP@Successful?5Completion?6@ 0002b5e8     NvmExpressLib:NvmExpressPassthru.obj
 0002:00008140       ??_C@_0BI@CMLPDJAN@Invalid?5Command?5Opcode?6@ 0002b600     NvmExpressLib:NvmExpressPassthru.obj
 0002:00008158       ??_C@_0BK@JOEODDGF@Invalid?5Field?5in?5Command?6@ 0002b618     NvmExpressLib:NvmExpressPassthru.obj
 0002:00008174       ??_C@_0BF@PNNPMMLG@Command?5ID?5Conflict?6@ 0002b634     NvmExpressLib:NvmExpressPassthru.obj
 0002:0000818c       ??_C@_0BF@BECFLAIB@Data?5Transfer?5Error?6@ 0002b64c     NvmExpressLib:NvmExpressPassthru.obj
 0002:000081a4       ??_C@_0DB@DGMMDHNL@Commands?5Aborted?5due?5to?5Power?5L@ 0002b664     NvmExpressLib:NvmExpressPassthru.obj
 0002:000081d8       ??_C@_0BH@NHJOALJJ@Internal?5Device?5Error?6@ 0002b698     NvmExpressLib:NvmExpressPassthru.obj
 0002:000081f0       ??_C@_0BJ@HEPNNOAL@Command?5Abort?5Requested?6@ 0002b6b0     NvmExpressLib:NvmExpressPassthru.obj
 0002:0000820c       ??_C@_0CE@NLHPOCMH@Command?5Aborted?5due?5to?5SQ?5Delet@ 0002b6cc     NvmExpressLib:NvmExpressPassthru.obj
 0002:00008230       ??_C@_0CN@FBHNJJAI@Command?5Aborted?5due?5to?5Failed?5F@ 0002b6f0     NvmExpressLib:NvmExpressPassthru.obj
 0002:00008260       ??_C@_0CO@MACBOPKL@Command?5Aborted?5due?5to?5Missing?5@ 0002b720     NvmExpressLib:NvmExpressPassthru.obj
 0002:00008290       ??_C@_0BN@GCLDHLOF@Invalid?5Namespace?5or?5Format?6@ 0002b750     NvmExpressLib:NvmExpressPassthru.obj
 0002:000082b0       ??_C@_0BI@GFOEBHGJ@Command?5Sequence?5Error?6@ 0002b770     NvmExpressLib:NvmExpressPassthru.obj
 0002:000082c8       ??_C@_0CF@KHIDMCGH@Invalid?5SGL?5Last?5Segment?5Descri@ 0002b788     NvmExpressLib:NvmExpressPassthru.obj
 0002:000082f0       ??_C@_0CD@EDOGFMNH@Invalid?5Number?5of?5SGL?5Descripto@ 0002b7b0     NvmExpressLib:NvmExpressPassthru.obj
 0002:00008314       ??_C@_0BJ@CEHBBIKA@Data?5SGL?5Length?5Invalid?6@ 0002b7d4     NvmExpressLib:NvmExpressPassthru.obj
 0002:00008330       ??_C@_0BN@ELAPHMHG@Metadata?5SGL?5Length?5Invalid?6@ 0002b7f0     NvmExpressLib:NvmExpressPassthru.obj
 0002:00008350       ??_C@_0BN@OEKFDNBN@SGL?5Descriptor?5Type?5Invalid?6@ 0002b810     NvmExpressLib:NvmExpressPassthru.obj
 0002:00008370       ??_C@_0BC@BLBOCKOB@LBA?5Out?5of?5Range?6@ 0002b830     NvmExpressLib:NvmExpressPassthru.obj
 0002:00008384       ??_C@_0BD@DNBHCHIG@Capacity?5Exceeded?6@ 0002b844     NvmExpressLib:NvmExpressPassthru.obj
 0002:00008398       ??_C@_0BF@MJLNMNGI@Namespace?5Not?5Ready?6@ 0002b858     NvmExpressLib:NvmExpressPassthru.obj
 0002:000083b0       ??_C@_0BG@CJFKPJLN@Reservation?5Conflict?6@ 0002b870     NvmExpressLib:NvmExpressPassthru.obj
 0002:000083c8       ??_C@_0BK@OOPEBGON@Completion?5Queue?5Invalid?6@ 0002b888     NvmExpressLib:NvmExpressPassthru.obj
 0002:000083e4       ??_C@_0BK@MNKFDNKA@Invalid?5Queue?5Identifier?6@ 0002b8a4     NvmExpressLib:NvmExpressPassthru.obj
 0002:00008400       ??_C@_0BN@FJJIDLH@Maximum?5Queue?5Size?5Exceeded?6@ 0002b8c0     NvmExpressLib:NvmExpressPassthru.obj
 0002:00008420       ??_C@_0BO@JNDODJGM@Abort?5Command?5Limit?5Exceeded?6@ 0002b8e0     NvmExpressLib:NvmExpressPassthru.obj
 0002:00008440       ??_C@_0CL@LMMONBBI@Asynchronous?5Event?5Request?5Limi@ 0002b900     NvmExpressLib:NvmExpressPassthru.obj
 0002:0000846c       ??_C@_0BH@FHHKEDFI@Invalid?5Firmware?5Slot?6@ 0002b92c     NvmExpressLib:NvmExpressPassthru.obj
 0002:00008484       ??_C@_0BI@CJONJBCH@Invalid?5Firmware?5Image?6@ 0002b944     NvmExpressLib:NvmExpressPassthru.obj
 0002:0000849c       ??_C@_0BK@DKMLLFDB@Invalid?5Interrupt?5Vector?6@ 0002b95c     NvmExpressLib:NvmExpressPassthru.obj
 0002:000084b8       ??_C@_0BC@LFAOOENH@Invalid?5Log?5Page?6@ 0002b978     NvmExpressLib:NvmExpressPassthru.obj
 0002:000084cc       ??_C@_0BA@ENDBBFJN@Invalid?5Format?6@ 0002b98c     NvmExpressLib:NvmExpressPassthru.obj
 0002:000084dc       ??_C@_0DC@MPPNAIDM@Firmware?5Application?5Requires?5C@ 0002b99c     NvmExpressLib:NvmExpressPassthru.obj
 0002:00008510       ??_C@_0BI@OHLAJOJJ@Invalid?5Queue?5Deletion?6@ 0002b9d0     NvmExpressLib:NvmExpressPassthru.obj
 0002:00008528       ??_C@_0CB@BEIKPCNK@Feature?5Identifier?5Not?5Saveable@ 0002b9e8     NvmExpressLib:NvmExpressPassthru.obj
 0002:0000854c       ??_C@_0BI@EFNCJCIL@Feature?5Not?5Changeable?6@ 0002ba0c     NvmExpressLib:NvmExpressPassthru.obj
 0002:00008564       ??_C@_0CA@ICHPAIHF@Feature?5Not?5Namespace?5Specific?6@ 0002ba24     NvmExpressLib:NvmExpressPassthru.obj
 0002:00008584       ??_C@_0DD@BFNHPMBJ@Firmware?5Application?5Requires?5N@ 0002ba44     NvmExpressLib:NvmExpressPassthru.obj
 0002:000085b8       ??_C@_0BI@ONOLJPIP@Conflicting?5Attributes?6@ 0002ba78     NvmExpressLib:NvmExpressPassthru.obj
 0002:000085d0       ??_C@_0CA@PDLFAIHJ@Invalid?5Protection?5Information?6@ 0002ba90     NvmExpressLib:NvmExpressPassthru.obj
 0002:000085f0       ??_C@_0CE@IJBCJOFO@Attempted?5Write?5to?5Read?5Only?5Ra@ 0002bab0     NvmExpressLib:NvmExpressPassthru.obj
 0002:00008614       ??_C@_0N@HKBMCPGD@Write?5Fault?6@ 0002bad4     NvmExpressLib:NvmExpressPassthru.obj
 0002:00008624       ??_C@_0BI@OBBAGDKO@Unrecovered?5Read?5Error?6@ 0002bae4     NvmExpressLib:NvmExpressPassthru.obj
 0002:0000863c       ??_C@_0BO@INLLJADA@End?9to?9end?5Guard?5Check?5Error?6@ 0002bafc     NvmExpressLib:NvmExpressPassthru.obj
 0002:0000865c       ??_C@_0CI@NDBKLGPH@End?9to?9end?5Application?5Tag?5Chec@ 0002bb1c     NvmExpressLib:NvmExpressPassthru.obj
 0002:00008684       ??_C@_0CG@LPPFOMHL@End?9to?9end?5Reference?5Tag?5Check?5@ 0002bb44     NvmExpressLib:NvmExpressPassthru.obj
 0002:000086ac       ??_C@_0BB@DKNEIBGJ@Compare?5Failure?6@ 0002bb6c     NvmExpressLib:NvmExpressPassthru.obj
 0002:000086c0       ??_C@_0P@DLFLILDJ@Access?5Denied?6@ 0002bb80     NvmExpressLib:NvmExpressPassthru.obj
 0002:000086d0       ??_C@_0CM@DDOFHNPA@NvmeCreatePrpList?3?5create?5PrpLi@ 0002bb90     NvmExpressLib:NvmExpressPassthru.obj
 0002:00008700       ??_C@_0GJ@PHLMGPNI@e?3?2code?2adl_n100_code?2sblplatfo@ 0002bbc0     NvmExpressLib:NvmExpressPassthru.obj
 0002:0000876c       ??_C@_0O@GJCFHNDM@Sq?9?$DOPsdt?5?$DN?$DN?50@ 0002bc2c     NvmExpressLib:NvmExpressPassthru.obj
 0002:0000877c       ??_C@_0DD@JMFHEOGL@NvmExpressPassThru?3?5doesn?8t?5sup@ 0002bc3c     NvmExpressLib:NvmExpressPassthru.obj
 0002:000087b0       ??_C@_0BG@BKHMHICJ@Event?5?$DN?$DN?5?$CI?$CIvoid?5?$CK?$CJ?50?$CJ@ 0002bc70     NvmExpressLib:NvmExpressPassthru.obj
 0002:000087c8       ??_C@_0BN@IEMIIEGE@?$DN?$DN?5Dump?5Emmc?5Csd?5Register?$DN?$DN?6@ 0002bc88     MmcAccessLib:MmcAccessLibGeneric.obj
 0002:000087e8       ??_C@_0CJ@KIIDBJHP@?5?5CSD?5structure?5?5?5?5?5?5?5?5?5?5?5?5?5?5?5?5@ 0002bca8     MmcAccessLib:MmcAccessLibGeneric.obj
 0002:00008814       ??_C@_0CJ@JALJPDOK@?5?5System?5specification?5version?5@ 0002bcd4     MmcAccessLib:MmcAccessLibGeneric.obj
 0002:00008840       ??_C@_0CJ@DJLOKPE@?5?5Data?5read?5access?9time?51?5?5?5?5?5?5@ 0002bd00     MmcAccessLib:MmcAccessLibGeneric.obj
 0002:0000886c       ??_C@_0CJ@FAABLBHA@?5?5Data?5read?5access?9time?52?5?5?5?5?5?5@ 0002bd2c     MmcAccessLib:MmcAccessLibGeneric.obj
 0002:00008898       ??_C@_0CJ@FKNLDLK@?5?5Max?4?5bus?5clock?5frequency?5?5?5?5?5@ 0002bd58     MmcAccessLib:MmcAccessLibGeneric.obj
 0002:000088c4       ??_C@_0CJ@FCFLBCAN@?5?5Device?5command?5classes?5?5?5?5?5?5?5@ 0002bd84     MmcAccessLib:MmcAccessLibGeneric.obj
 0002:000088f0       ??_C@_0CJ@NIMDBGEN@?5?5Max?4?5read?5data?5block?5length?5?5@ 0002bdb0     MmcAccessLib:MmcAccessLibGeneric.obj
 0002:0000891c       ??_C@_0CJ@PEPHAOID@?5?5Partial?5blocks?5for?5read?5allow@ 0002bddc     MmcAccessLib:MmcAccessLibGeneric.obj
 0002:00008948       ??_C@_0CJ@FLCBNFPP@?5?5Write?5block?5misalignment?5?5?5?5?5@ 0002be08     MmcAccessLib:MmcAccessLibGeneric.obj
 0002:00008974       ??_C@_0CJ@JKDEEKLM@?5?5Read?5block?5misalignment?5?5?5?5?5?5@ 0002be34     MmcAccessLib:MmcAccessLibGeneric.obj
 0002:000089a0       ??_C@_0CJ@KMBKLPMO@?5?5DSR?5implemented?5?5?5?5?5?5?5?5?5?5?5?5?5?5@ 0002be60     MmcAccessLib:MmcAccessLibGeneric.obj
 0002:000089cc       ??_C@_0CJ@EJJBNBPC@?5?5Device?5size?5?5?5?5?5?5?5?5?5?5?5?5?5?5?5?5?5?5@ 0002be8c     MmcAccessLib:MmcAccessLibGeneric.obj
 0002:000089f8       ??_C@_0CJ@GPHMPLEL@?5?5Max?4?5read?5current?5?$EA?5VDD?5min?5?5@ 0002beb8     MmcAccessLib:MmcAccessLibGeneric.obj
 0002:00008a24       ??_C@_0CJ@EIMHJMHK@?5?5Max?4?5read?5current?5?$EA?5VDD?5max?5?5@ 0002bee4     MmcAccessLib:MmcAccessLibGeneric.obj
 0002:00008a50       ??_C@_0CJ@GMHHHBEL@?5?5Max?4?5write?5current?5?$EA?5VDD?5min?5@ 0002bf10     MmcAccessLib:MmcAccessLibGeneric.obj
 0002:00008a7c       ??_C@_0CJ@NFFBOKDK@?5?5Max?4?5write?5current?5?$EA?5VDD?5max?5@ 0002bf3c     MmcAccessLib:MmcAccessLibGeneric.obj
 0002:00008aa8       ??_C@_0CJ@MIDJHLOK@?5?5Device?5size?5multiplier?5?5?5?5?5?5?5@ 0002bf68     MmcAccessLib:MmcAccessLibGeneric.obj
 0002:00008ad4       ??_C@_0CJ@GPGAFLFN@?5?5Erase?5group?5size?5?5?5?5?5?5?5?5?5?5?5?5?5@ 0002bf94     MmcAccessLib:MmcAccessLibGeneric.obj
 0002:00008b00       ??_C@_0CJ@KFKOPANN@?5?5Erase?5group?5size?5multiplier?5?5@ 0002bfc0     MmcAccessLib:MmcAccessLibGeneric.obj
 0002:00008b2c       ??_C@_0CJ@EOLHLHML@?5?5Write?5protect?5group?5size?5?5?5?5?5@ 0002bfec     MmcAccessLib:MmcAccessLibGeneric.obj
 0002:00008b58       ??_C@_0CJ@DEDBLDKB@?5?5Write?5protect?5group?5enable?5?5?5@ 0002c018     MmcAccessLib:MmcAccessLibGeneric.obj
 0002:00008b84       ??_C@_0CJ@BKDJPIBK@?5?5Manufacturer?5default?5ECC?5?5?5?5?5@ 0002c044     MmcAccessLib:MmcAccessLibGeneric.obj
 0002:00008bb0       ??_C@_0CJ@KFMGMOAH@?5?5Write?5speed?5factor?5?5?5?5?5?5?5?5?5?5?5@ 0002c070     MmcAccessLib:MmcAccessLibGeneric.obj
 0002:00008bdc       ??_C@_0CJ@GOMGEMDF@?5?5Max?4?5write?5data?5block?5length?5@ 0002c09c     MmcAccessLib:MmcAccessLibGeneric.obj
 0002:00008c08       ??_C@_0CJ@OMIANMHB@?5?5Partial?5blocks?5for?5write?5allo@ 0002c0c8     MmcAccessLib:MmcAccessLibGeneric.obj
 0002:00008c34       ??_C@_0CJ@JGCDPMNF@?5?5Content?5protection?5applicatio@ 0002c0f4     MmcAccessLib:MmcAccessLibGeneric.obj
 0002:00008c60       ??_C@_0CJ@OPMNCAAF@?5?5File?5format?5group?5?5?5?5?5?5?5?5?5?5?5?5@ 0002c120     MmcAccessLib:MmcAccessLibGeneric.obj
 0002:00008c8c       ??_C@_0CJ@JGFIKMPN@?5?5Copy?5flag?5?$CIOTP?$CJ?5?5?5?5?5?5?5?5?5?5?5?5?5?5@ 0002c14c     MmcAccessLib:MmcAccessLibGeneric.obj
 0002:00008cb8       ??_C@_0CJ@NAADDNFA@?5?5Permanent?5write?5protection?5?5?5@ 0002c178     MmcAccessLib:MmcAccessLibGeneric.obj
 0002:00008ce4       ??_C@_0CJ@NPDLNFGD@?5?5Temporary?5write?5protection?5?5?5@ 0002c1a4     MmcAccessLib:MmcAccessLibGeneric.obj
 0002:00008d10       ??_C@_0CJ@ICDKPMI@?5?5File?5format?5?5?5?5?5?5?5?5?5?5?5?5?5?5?5?5?5?5@ 0002c1d0     MmcAccessLib:MmcAccessLibGeneric.obj
 0002:00008d3c       ??_C@_0CJ@EGPLGKAO@?5?5ECC?5code?5?5?5?5?5?5?5?5?5?5?5?5?5?5?5?5?5?5?5?5?5@ 0002c1fc     MmcAccessLib:MmcAccessLibGeneric.obj
 0002:00008d68       ??_C@_0BP@NGEJOJAC@?$DN?$DNDump?5Emmc?5ExtCsd?5Register?$DN?$DN?6@ 0002c228     MmcAccessLib:MmcAccessLibGeneric.obj
 0002:00008d88       ??_C@_0CP@HNCMBKBA@?5?5Supported?5Command?5Sets?5?5?5?5?5?5?5@ 0002c248     MmcAccessLib:MmcAccessLibGeneric.obj
 0002:00008db8       ??_C@_0CP@FBGPBKML@?5?5HPI?5features?5?5?5?5?5?5?5?5?5?5?5?5?5?5?5?5?5@ 0002c278     MmcAccessLib:MmcAccessLibGeneric.obj
 0002:00008de8       ??_C@_0CP@MOCOFKIN@?5?5Background?5operations?5support@ 0002c2a8     MmcAccessLib:MmcAccessLibGeneric.obj
 0002:00008e18       ??_C@_0CP@PLMPAJLP@?5?5Background?5operations?5status?5@ 0002c2d8     MmcAccessLib:MmcAccessLibGeneric.obj
 0002:00008e48       ??_C@_0CP@EDDFBIJM@?5?5Number?5of?5correctly?5programme@ 0002c308     MmcAccessLib:MmcAccessLibGeneric.obj
 0002:00008e78       ??_C@_0CP@NPDLLLGN@?5?5Initialization?5time?5after?5par@ 0002c338     MmcAccessLib:MmcAccessLibGeneric.obj
 0002:00008ea8       ??_C@_0CP@HAHCBGL@?5?5TRIM?5Multiplier?5?5?5?5?5?5?5?5?5?5?5?5?5?5@ 0002c368     MmcAccessLib:MmcAccessLibGeneric.obj
 0002:00008ed8       ??_C@_0CP@ENMCLFDE@?5?5Secure?5Feature?5support?5?5?5?5?5?5?5@ 0002c398     MmcAccessLib:MmcAccessLibGeneric.obj
 0002:00008f08       ??_C@_0CP@DFLPOMDB@?5?5Secure?5Erase?5Multiplier?5?5?5?5?5?5@ 0002c3c8     MmcAccessLib:MmcAccessLibGeneric.obj
 0002:00008f38       ??_C@_0CP@DOLLFHEB@?5?5Secure?5TRIM?5Multiplier?5?5?5?5?5?5?5@ 0002c3f8     MmcAccessLib:MmcAccessLibGeneric.obj
 0002:00008f68       ??_C@_0CP@KBCDJIBB@?5?5Boot?5information?5?5?5?5?5?5?5?5?5?5?5?5?5@ 0002c428     MmcAccessLib:MmcAccessLibGeneric.obj
 0002:00008f98       ??_C@_0CP@MPJALAD@?5?5Boot?5partition?5size?5?5?5?5?5?5?5?5?5?5@ 0002c458     MmcAccessLib:MmcAccessLibGeneric.obj
 0002:00008fc8       ??_C@_0CP@KHJEHGKE@?5?5Access?5size?5?5?5?5?5?5?5?5?5?5?5?5?5?5?5?5?5?5@ 0002c488     MmcAccessLib:MmcAccessLibGeneric.obj
 0002:00008ff8       ??_C@_0CP@DCLPBPLB@?5?5High?9capacity?5erase?5unit?5size@ 0002c4b8     MmcAccessLib:MmcAccessLibGeneric.obj
 0002:00009028       ??_C@_0CP@CPFCKDGK@?5?5High?9capacity?5erase?5timeout?5?5@ 0002c4e8     MmcAccessLib:MmcAccessLibGeneric.obj
 0002:00009058       ??_C@_0CP@GLGHEOED@?5?5Reliable?5write?5sector?5count?5?5@ 0002c518     MmcAccessLib:MmcAccessLibGeneric.obj
 0002:00009088       ??_C@_0CP@INOHOEBN@?5?5High?9capacity?5write?5protect?5g@ 0002c548     MmcAccessLib:MmcAccessLibGeneric.obj
 0002:000090b8       ??_C@_0CP@FGGEJJPI@?5?5Sleep?1awake?5timeout?5?5?5?5?5?5?5?5?5?5@ 0002c578     MmcAccessLib:MmcAccessLibGeneric.obj
 0002:000090e8       ??_C@_0CP@HPAONMDA@?5?5Sector?5Count?5?5?5?5?5?5?5?5?5?5?5?5?5?5?5?5?5@ 0002c5a8     MmcAccessLib:MmcAccessLibGeneric.obj
 0002:00009118       ??_C@_0CP@LMPCNHAM@?5?5Partition?5switching?5timing?5?5?5@ 0002c5d8     MmcAccessLib:MmcAccessLibGeneric.obj
 0002:00009148       ??_C@_0CP@BCICELFH@?5?5Out?9of?9interrupt?5busy?5timing?5@ 0002c608     MmcAccessLib:MmcAccessLibGeneric.obj
 0002:00009178       ??_C@_0CP@IAFLJAPD@?5?5I?1O?5Driver?5Strength?5?5?5?5?5?5?5?5?5?5@ 0002c638     MmcAccessLib:MmcAccessLibGeneric.obj
 0002:000091a8       ??_C@_0CP@NPNIPNNJ@?5?5Device?5type?5?5?5?5?5?5?5?5?5?5?5?5?5?5?5?5?5?5@ 0002c668     MmcAccessLib:MmcAccessLibGeneric.obj
 0002:000091d8       ??_C@_0CP@DCCHMNNO@?5?5CSD?5STRUCTURE?5?5?5?5?5?5?5?5?5?5?5?5?5?5?5?5@ 0002c698     MmcAccessLib:MmcAccessLibGeneric.obj
 0002:00009208       ??_C@_0CP@CANCHMPB@?5?5Extended?5CSD?5revision?5?5?5?5?5?5?5?5@ 0002c6c8     MmcAccessLib:MmcAccessLibGeneric.obj
 0002:00009238       ??_C@_0CP@OJJKCLDF@?5?5Command?5set?5?5?5?5?5?5?5?5?5?5?5?5?5?5?5?5?5?5@ 0002c6f8     MmcAccessLib:MmcAccessLibGeneric.obj
 0002:00009268       ??_C@_0CP@IKGDEFEH@?5?5Command?5set?5revision?5?5?5?5?5?5?5?5?5@ 0002c728     MmcAccessLib:MmcAccessLibGeneric.obj
 0002:00009298       ??_C@_0CP@JCNKPMMA@?5?5Power?5class?5?5?5?5?5?5?5?5?5?5?5?5?5?5?5?5?5?5@ 0002c758     MmcAccessLib:MmcAccessLibGeneric.obj
 0002:000092c8       ??_C@_0CP@BFEGPHOP@?5?5High?9speed?5interface?5timing?5?5@ 0002c788     MmcAccessLib:MmcAccessLibGeneric.obj
 0002:000092f8       ??_C@_0CP@FBBCCEHA@?5?5Bus?5width?5mode?5?5?5?5?5?5?5?5?5?5?5?5?5?5?5@ 0002c7b8     MmcAccessLib:MmcAccessLibGeneric.obj
 0002:00009328       ??_C@_0CP@BOCFBPAC@?5?5Erased?5memory?5content?5?5?5?5?5?5?5?5@ 0002c7e8     MmcAccessLib:MmcAccessLibGeneric.obj
 0002:00009358       ??_C@_0CP@IHGFIHNJ@?5?5Partition?5configuration?5?5?5?5?5?5@ 0002c818     MmcAccessLib:MmcAccessLibGeneric.obj
 0002:00009388       ??_C@_0CP@DFBNLALF@?5?5Boot?5config?5protection?5?5?5?5?5?5?5@ 0002c848     MmcAccessLib:MmcAccessLibGeneric.obj
 0002:000093b8       ??_C@_0CP@BPEDENIO@?5?5Boot?5bus?5Conditions?5?5?5?5?5?5?5?5?5?5@ 0002c878     MmcAccessLib:MmcAccessLibGeneric.obj
 0002:000093e8       ??_C@_0CP@JMKDJGIM@?5?5High?9density?5erase?5group?5defi@ 0002c8a8     MmcAccessLib:MmcAccessLibGeneric.obj
 0002:00009418       ??_C@_0CP@JMEBJFHJ@?5?5Boot?5write?5protection?5status?5@ 0002c8d8     MmcAccessLib:MmcAccessLibGeneric.obj
 0002:00009448       ??_C@_0CP@CLHPMEFO@?5?5Boot?5area?5write?5protection?5re@ 0002c908     MmcAccessLib:MmcAccessLibGeneric.obj
 0002:00009478       ??_C@_0CP@IIGPFMEH@?5?5User?5area?5write?5protection?5re@ 0002c938     MmcAccessLib:MmcAccessLibGeneric.obj
 0002:000094a8       ??_C@_0CP@DCBHCBBM@?5?5FW?5configuration?5?5?5?5?5?5?5?5?5?5?5?5?5@ 0002c968     MmcAccessLib:MmcAccessLibGeneric.obj
 0002:000094d8       ??_C@_0CP@OLPDJBAB@?5?5RPMB?5Size?5?5?5?5?5?5?5?5?5?5?5?5?5?5?5?5?5?5?5?5@ 0002c998     MmcAccessLib:MmcAccessLibGeneric.obj
 0002:00009508       ??_C@_0CP@KMJHHGFA@?5?5H?1W?5reset?5function?5?5?5?5?5?5?5?5?5?5?5@ 0002c9c8     MmcAccessLib:MmcAccessLibGeneric.obj
 0002:00009538       ??_C@_0CP@DPBJPBII@?5?5Partitioning?5Support?5?5?5?5?5?5?5?5?5@ 0002c9f8     MmcAccessLib:MmcAccessLibGeneric.obj
 0002:00009568       ??_C@_0DJ@GAIGHGLD@?5?5Max?5Enhanced?5Area?5Size?5?5?5?5?5?5?5@ 0002ca28     MmcAccessLib:MmcAccessLibGeneric.obj
 0002:000095a4       ??_C@_0CP@MPIACNBG@?5?5Partitions?5attribute?5?5?5?5?5?5?5?5?5@ 0002ca64     MmcAccessLib:MmcAccessLibGeneric.obj
 0002:000095d4       ??_C@_0CP@NHIEDMDN@?5?5Partitioning?5Setting?5?5?5?5?5?5?5?5?5@ 0002ca94     MmcAccessLib:MmcAccessLibGeneric.obj
 0002:00009604       ??_C@_0DJ@BKLBPHMJ@?5?5General?5Purpose?5Partition?51?5S@ 0002cac4     MmcAccessLib:MmcAccessLibGeneric.obj
 0002:00009640       ??_C@_0DJ@LPLJJMKF@?5?5General?5Purpose?5Partition?52?5S@ 0002cb00     MmcAccessLib:MmcAccessLibGeneric.obj
 0002:0000967c       ??_C@_0DJ@NMLOEFIB@?5?5General?5Purpose?5Partition?53?5S@ 0002cb3c     MmcAccessLib:MmcAccessLibGeneric.obj
 0002:000096b8       ??_C@_0DJ@CONIEMDM@?5?5General?5Purpose?5Partition?54?5S@ 0002cb78     MmcAccessLib:MmcAccessLibGeneric.obj
 0002:000096f4       ??_C@_0DJ@EFOEENNB@?5?5Enhanced?5User?5Data?5Area?5Size?5@ 0002cbb4     MmcAccessLib:MmcAccessLibGeneric.obj
 0002:00009730       ??_C@_0CP@INLJIIOI@?5?5Enhanced?5User?5Data?5Start?5Addr@ 0002cbf0     MmcAccessLib:MmcAccessLibGeneric.obj
 0002:00009760       ??_C@_0CP@GIPCKJDF@?5?5Bad?5Block?5Management?5mode?5?5?5?5@ 0002cc20     MmcAccessLib:MmcAccessLibGeneric.obj
 0002:00009790       ??_C@_0CP@PBBAHDAG@?5?5Native?5sector?5size?5?5?5?5?5?5?5?5?5?5?5@ 0002cc50     MmcAccessLib:MmcAccessLibGeneric.obj
 0002:000097c0       ??_C@_0CP@HDFHOKBI@?5?5Sector?5size?5emulation?5?5?5?5?5?5?5?5@ 0002cc80     MmcAccessLib:MmcAccessLibGeneric.obj
 0002:000097f0       ??_C@_0CP@ICILIHKK@?5?5Sector?5size?5?5?5?5?5?5?5?5?5?5?5?5?5?5?5?5?5?5@ 0002ccb0     MmcAccessLib:MmcAccessLibGeneric.obj
 0002:00009820       ??_C@_0DH@CBHDFBKJ@MmcTuningClkForHs200?3?5Send?5tuni@ 0002cce0     MmcAccessLib:MmcAccessLibGeneric.obj
 0002:00009858       ??_C@_0EP@CKFKLOML@MmcTuningClkForHs200?3?5Send?5tuni@ 0002cd18     MmcAccessLib:MmcAccessLibGeneric.obj
 0002:000098a8       ??_C@_0DB@NNLBCMBL@MmcCheckSwitchStatus?3?5Send?5stat@ 0002cd68     MmcAccessLib:MmcAccessLibGeneric.obj
 0002:000098e0       ??_C@_0EJ@FHJMNGFP@MmcCheckSwitchStatus?3?5The?5switc@ 0002cda0     MmcAccessLib:MmcAccessLibGeneric.obj
 0002:0000992c       ??_C@_0DJ@OCMLEDMI@MmcSwitchBusWidth?3?5Switch?5to?5bu@ 0002cdec     MmcAccessLib:MmcAccessLibGeneric.obj
 0002:00009968       ??_C@_0DC@LBCLHCGA@MmcCheckSwitchStatus?3?5Check?5sta@ 0002ce28     MmcAccessLib:MmcAccessLibGeneric.obj
 0002:0000999c       ??_C@_0DJ@PCJEOLAG@MmcSwitchClockFreq?3?5Switch?5to?5h@ 0002ce5c     MmcAccessLib:MmcAccessLibGeneric.obj
 0002:000099d8       ??_C@_0CP@MGIMELLF@MmcSwitchClockFreq?3?5Send?5status@ 0002ce98     MmcAccessLib:MmcAccessLibGeneric.obj
 0002:00009a08       ??_C@_0EH@DBPPKOJM@MmcSwitchClockFreq?3?5The?5switch?5@ 0002cec8     MmcAccessLib:MmcAccessLibGeneric.obj
 0002:00009a50       ??_C@_0DL@FGGKKLDE@MmcSwitchBusTiming?3?5Switch?5to?5b@ 0002cf10     MmcAccessLib:MmcAccessLibGeneric.obj
 0002:00009a8c       ??_C@_0CF@KPHGJOEG@MmcSetBusMode?3?5GetCsd?5fails?5wit@ 0002cf4c     MmcAccessLib:MmcAccessLibGeneric.obj
 0002:00009ab4       ??_C@_0CF@KFJHICPC@MmcSetBusMode?3?5Select?5fails?5wit@ 0002cf74     MmcAccessLib:MmcAccessLibGeneric.obj
 0002:00009adc       ??_C@_0DH@IGHHHBJE@MmcSetBusMode?3?5Set?5bus?5mode?5for@ 0002cf9c     MmcAccessLib:MmcAccessLibGeneric.obj
 0002:00009b14       ??_C@_0CF@GJNNNGAK@Private?9?$DOCapability?4BaseClkFreq@ 0002cfd4     MmcAccessLib:MmcAccessLibGeneric.obj
 0002:00009b40       ??_C@_0GJ@EOCKJDKD@e?3?2code?2adl_n100_code?2sblplatfo@ 0002d000     MmcAccessLib:MmcAccessLibGeneric.obj
 0002:00009bac       ??_C@_0CI@GDOEILCM@MmcSetBusMode?3?5GetExtCsd?5fails?5@ 0002d06c     MmcAccessLib:MmcAccessLibGeneric.obj
 0002:00009bd4       ??_C@_0O@OEKJCAMM@BusWidth?5?$DN?$DN?58@ 0002d094     MmcAccessLib:MmcAccessLibGeneric.obj
 0002:00009be4       ??_C@_04HCDDPBNL@TRUE@     0002d0a4     MmcAccessLib:MmcAccessLibGeneric.obj
 0002:00009bec       ??_C@_05MAJJAKPI@FALSE@    0002d0ac     MmcAccessLib:MmcAccessLibGeneric.obj
 0002:00009bf4       ??_C@_0DM@KDKGNEIN@MmcSetBusMode?3?5HsTiming?5?$CFd?5Cloc@ 0002d0b4     MmcAccessLib:MmcAccessLibGeneric.obj
 0002:00009c30       ??_C@_05FGOBNPND@HS400@    0002d0f0     MmcAccessLib:MmcAccessLibGeneric.obj
 0002:00009c38       ??_C@_05HDIKIAAP@HS200@    0002d0f8     MmcAccessLib:MmcAccessLibGeneric.obj
 0002:00009c40       ??_C@_09DDBCHGMN@HighSpeed@ 0002d100     MmcAccessLib:MmcAccessLibGeneric.obj
 0002:00009c4c       ??_C@_0CA@KLPADKBN@MmcSetBusMode?3?5Switch?5to?5?$CFa?5?$CFr?6@ 0002d10c     MmcAccessLib:MmcAccessLibGeneric.obj
 0002:00009c70       ??_C@_0EC@MAHNEMCM@MmcReadWrite?5Lba?$DN0x?$CFx?5Buffer?$DN0x@ 0002d130     MmcAccessLib:MmcAccessLibGeneric.obj
 0002:00009cb4       ??_C@_05HGJNIKF@Read?5@    0002d174     MmcAccessLib:MmcAccessLibGeneric.obj
 0002:00009cbc       ??_C@_05NBPIDCFL@Write@    0002d17c     MmcAccessLib:MmcAccessLibGeneric.obj
 0002:00009cc8       ??_C@_0EB@DFCMFAEC@Emmc?$CFa?5MmcSetBlkCount?5Failed?3?5L@ 0002d188     MmcAccessLib:MmcAccessLibGeneric.obj
 0002:00009d0c       ??_C@_0DA@HCNLHKAO@Emmc?$CFa?5Failed?3?5Lba?50x?$CFx?0?5BlockN@ 0002d1cc     MmcAccessLib:MmcAccessLibGeneric.obj
 0002:00009d3c       ??_C@_0DP@BLNBIKHH@EMMC?5device?5state?5is?5?8RCV?8?0?5Sen@ 0002d1fc     MmcAccessLib:MmcAccessLibGeneric.obj
 0002:00009d7c       ??_C@_0CJ@BHCLJOCJ@Emmc?$CFa?3?5Lba?50x?$CFx?0?5BlockNum?50x?$CFx@ 0002d23c     MmcAccessLib:MmcAccessLibGeneric.obj
 0002:00009da8       ??_C@_0BF@HHJEJPLC@?5?$DN?$DN?5SD?5CARD?5INFO?5?$DN?$DN?6@ 0002d268     MmcAccessLib:MmcAccessLibGeneric.obj
 0002:00009dc0       ??_C@_0BG@KNAEDEAG@?5?5Block?5?5?5Length?3?5?$CFd?6@ 0002d280     MmcAccessLib:MmcAccessLibGeneric.obj
 0002:00009dd8       ??_C@_0BI@CKBDEBPA@?5?5Partition?5size?3?5?$CFdMB?6@ 0002d298     MmcAccessLib:MmcAccessLibGeneric.obj
 0002:00009df0       ??_C@_0BH@OOFGGIAG@?5?$DN?$DN?5EMMC?5CARD?5INFO?5?$DN?$DN?6@ 0002d2b0     MmcAccessLib:MmcAccessLibGeneric.obj
 0002:00009e08       ??_C@_0BD@OGMKKINF@?5?5MMC?5Version?3?5?$CFd?6@ 0002d2c8     MmcAccessLib:MmcAccessLibGeneric.obj
 0002:00009e1c       ??_C@_0BN@KGICJIFN@?5?5High?5Capacity?5Support?3?5?$CFd?6@ 0002d2dc     MmcAccessLib:MmcAccessLibGeneric.obj
 0002:00009e3c       ??_C@_0BE@KECPFABC@?5?5Block?5Number?3?5?$CFd?6@ 0002d2fc     MmcAccessLib:MmcAccessLibGeneric.obj
 0002:00009e50       ??_C@_0BE@DEPNAGDP@?5?5Block?5Length?3?5?$CFd?6@ 0002d310     MmcAccessLib:MmcAccessLibGeneric.obj
 0002:00009e64       ??_C@_0BN@GOLHIBGH@?5?5BOOT?5partition?5size?3?5?$CFdKB?6@ 0002d324     MmcAccessLib:MmcAccessLibGeneric.obj
 0002:00009e84       ??_C@_0BN@EIELCMOA@?5?5RPMB?5partition?5size?3?5?$CFdKB?6@ 0002d344     MmcAccessLib:MmcAccessLibGeneric.obj
 0002:00009ea4       ??_C@_0BN@BOMCDEMI@?5?5USER?5partition?5size?3?5?$CFdMB?6@ 0002d364     MmcAccessLib:MmcAccessLibGeneric.obj
 0002:00009ec4       ??_C@_0BJ@DLMFHNFP@?5?5Current?5Partition?3?5?$CFd?6@ 0002d384     MmcAccessLib:MmcAccessLibGeneric.obj
 0002:00009ee0       ??_C@_0BC@ONCPMEEI@MMC?5Phase?52?5init?6@ 0002d3a0     MmcAccessLib:MmcAccessLibGeneric.obj
 0002:00009ef4       ??_C@_0CA@GHDMIBFC@SdCardSendOpCond?5fails?5with?5?$CFr?6@ 0002d3b4     MmcAccessLib:MmcAccessLibGeneric.obj
 0002:00009f14       ??_C@_0BO@KEBINGFP@Card?5is?5always?5in?5busy?5state?6@ 0002d3d4     MmcAccessLib:MmcAccessLibGeneric.obj
 0002:00009f34       ??_C@_0BO@IJLGCGCD@MmcGetOcr?5Fail?5Status?5?$DN?50x?$CFx?6@ 0002d3f4     MmcAccessLib:MmcAccessLibGeneric.obj
 0002:00009f54       ??_C@_0BO@CEDJEKJE@Executing?5Cmd1?5fails?5with?5?$CFr?6@ 0002d414     MmcAccessLib:MmcAccessLibGeneric.obj
 0002:00009f74       ??_C@_0BO@HHKDBBBA@Executing?5Cmd2?5fails?5with?5?$CFr?6@ 0002d434     MmcAccessLib:MmcAccessLibGeneric.obj
 0002:00009f94       ??_C@_0BO@PAAFNKFD@Executing?5Cmd3?5fails?5with?5?$CFr?6@ 0002d454     MmcAccessLib:MmcAccessLibGeneric.obj
 0002:00009fb4       ??_C@_0CC@HBMHKHJP@MmcSetBusMode?5Fail?5Status?5?$DN?50x?$CF@ 0002d474     MmcAccessLib:MmcAccessLibGeneric.obj
 0002:00009fd8       ??_C@_0CE@ENJBIFM@MmcInitCardInfo?5Fail?5Status?5?$DN?50@ 0002d498     MmcAccessLib:MmcAccessLibGeneric.obj
 0002:00009ffc       ??_C@_0CN@CLKDDMBD@MmcSelectPart?5?9?5Same?5with?5curre@ 0002d4bc     MmcAccessLib:MmcAccessLibGeneric.obj
 0002:0000a02c       ??_C@_0BE@BMAKABDI@MmcSelectPart?5Fail?6@ 0002d4ec     MmcAccessLib:MmcAccessLibGeneric.obj
 0002:0000a040       ??_C@_0CJ@PILBJDHE@MmcGetHsTiming?3?5GetExtCsd?5fails@ 0002d500     MmcAccessLib:MmcAccessLibGeneric.obj
 0002:0000a06c       ??_C@_0CK@OEMLELJF@Memory?5Allocation?5Fail?5?9?5Out?5Of@ 0002d52c     MmcAccessLib:MmcAccessLibGeneric.obj
 0002:0000a098       ??_C@_0CO@HKIHALMC@EmmcModeSelection?3?5GetHsTiming?5@ 0002d558     MmcAccessLib:MmcAccessLibGeneric.obj
 0002:0000a0c8       ??_C@_0DG@OOFAJNPG@EmmcModeSelection?3?5eMMC?5HS200?5M@ 0002d588     MmcAccessLib:MmcAccessLibGeneric.obj
 0002:0000a100       ??_C@_0DG@OLOMJDLI@EmmcModeSelection?3?5eMMC?5HS400?5M@ 0002d5c0     MmcAccessLib:MmcAccessLibGeneric.obj
 0002:0000a138       ??_C@_0EK@KADAHJGO@EmmcModeSelection?3?5Unsupported?5@ 0002d5f8     MmcAccessLib:MmcAccessLibGeneric.obj
 0002:0000a184       ??_C@_0P@ODIBHNDJ@badbadbadbadba@ 0002d644     MmcAccessLib:MmcAccessLibGeneric.obj
 0002:0000a194       ??_C@_0BI@DONGCLHH@Early?5EMMC?5is?5skipped?5?6@ 0002d654     MmcAccessLib:MmcAccessLib.obj
 0002:0000a1ac       ??_C@_0BC@GDKAMDKL@MMC?5Phase?51?5init?6@ 0002d66c     MmcAccessLib:MmcAccessLib.obj
 0002:0000a1c0       ??_C@_0CB@EMIIOLBJ@SdMmcHcReset?5Fail?5Status?5?$DN?50x?$CFx@ 0002d680     MmcAccessLib:MmcAccessLib.obj
 0002:0000a1e4       ??_C@_0CE@FJJHEGLN@SdMmcHcInitHost?5Fail?5Status?5?$DN?50@ 0002d6a4     MmcAccessLib:MmcAccessLib.obj
 0002:0000a208       ??_C@_0BN@MJLMLBAB@MmcReset?5Fail?5Status?5?$DN?50x?$CFx?6@ 0002d6c8     MmcAccessLib:MmcAccessLib.obj
 0002:0000a228       ??_C@_0CI@JKOFKOAD@SdCardVoltageCheck?5the?5?$CFd?5time?5@ 0002d6e8     MmcAccessLib:MmcAccessLib.obj
 0002:0000a250       ??_C@_0CF@MJGAGACH@SdCardVoltageCheck?5Fail?5Status?5@ 0002d710     MmcAccessLib:MmcAccessLib.obj
 0002:0000a278       ??_C@_0CF@MGEKKDAJ@SdCardSendOpCond?5Fail?5Status?5?$DN?5@ 0002d738     MmcAccessLib:MmcAccessLib.obj
 0002:0000a2a0       ??_C@_0BG@KMNEBANJ@MmcGetOcr?5Ocr?5?$DN?50x?$CFx?6@ 0002d760     MmcAccessLib:MmcAccessLib.obj
 0002:0000a2b8       ??_C@_0BG@OJENFHHB@MMC?5global?5data?5init?6@ 0002d778     MmcAccessLib:MmcAccessLib.obj
 0002:0000a2d0       ??_C@_0CJ@DBAMCDOI@SdMmcHcGetCapability?5Fail?5Statu@ 0002d790     MmcAccessLib:MmcAccessLib.obj
 0002:0000a2fc       ??_C@_0BL@JPCGABAI@Use?5SDMA?5instead?5of?5ADMA2?6@ 0002d7bc     MmcAccessLib:MmcAccessLib.obj
 0002:0000a318       ??_C@_0BI@PMAENIEE@Unsupported?5card?5type?$CB?6@ 0002d7d8     MmcAccessLib:MmcAccessLib.obj
 0002:0000a330       ??_C@_0BL@BOHLPMKE@?5?$DN?$DN?5Capability?5is?50x?$CFx?5?$DN?$DN?6@ 0002d7f0     MmcAccessLib:SdMmcPciHci.obj
 0002:0000a34c       ??_C@_03BMJMONAH@MHz@      0002d80c     MmcAccessLib:SdMmcPciHci.obj
 0002:0000a350       ??_C@_03DJPHLCNL@KHz@      0002d810     MmcAccessLib:SdMmcPciHci.obj
 0002:0000a354       ??_C@_0BL@JNIAEICH@?5?5?5Timeout?5Clk?5Freq?5?5?$CFd?$CFa?6@ 0002d814     MmcAccessLib:SdMmcPciHci.obj
 0002:0000a370       ??_C@_0BM@IGBPIDFK@?5?5?5Base?5Clk?5Freq?5?5?5?5?5?$CFdMHz?6@ 0002d830     MmcAccessLib:SdMmcPciHci.obj
 0002:0000a38c       ??_C@_0BO@HIANFEFD@?5?5?5Max?5Blk?5Len?5?5?5?5?5?5?5?$CFdbytes?6@ 0002d84c     MmcAccessLib:SdMmcPciHci.obj
 0002:0000a3ac       ??_C@_0BJ@JAMDOHJA@?5?5?58?9bit?5Support?5?5?5?5?5?$CFa?6@ 0002d86c     MmcAccessLib:SdMmcPciHci.obj
 0002:0000a3c8       ??_C@_0BJ@PBDIDLIK@?5?5?5ADMA2?5Support?5?5?5?5?5?$CFa?6@ 0002d888     MmcAccessLib:SdMmcPciHci.obj
 0002:0000a3e4       ??_C@_0BJ@JHNMJBHP@?5?5?5HighSpeed?5Support?5?$CFa?6@ 0002d8a4     MmcAccessLib:SdMmcPciHci.obj
 0002:0000a400       ??_C@_0BJ@EEGFMFLJ@?5?5?5SDMA?5Support?5?5?5?5?5?5?$CFa?6@ 0002d8c0     MmcAccessLib:SdMmcPciHci.obj
 0002:0000a41c       ??_C@_0BJ@FCCPBOAK@?5?5?5Suspend?1Resume?5?5?5?5?$CFa?6@ 0002d8dc     MmcAccessLib:SdMmcPciHci.obj
 0002:0000a438       ??_C@_0BJ@PLOGGIIF@?5?5?5Voltage?53?43?5?5?5?5?5?5?5?$CFa?6@ 0002d8f8     MmcAccessLib:SdMmcPciHci.obj
 0002:0000a454       ??_C@_0BJ@IMHILKHF@?5?5?5Voltage?53?40?5?5?5?5?5?5?5?$CFa?6@ 0002d914     MmcAccessLib:SdMmcPciHci.obj
 0002:0000a470       ??_C@_0BJ@GLBKAICG@?5?5?5Voltage?51?48?5?5?5?5?5?5?5?$CFa?6@ 0002d930     MmcAccessLib:SdMmcPciHci.obj
 0002:0000a48c       ??_C@_0BJ@CMLHALKD@?5?5?564?9bit?5Sys?5Bus?5?5?5?5?$CFa?6@ 0002d94c     MmcAccessLib:SdMmcPciHci.obj
 0002:0000a4a8       ??_C@_0BJ@IIOPMGF@?5?5?5Async?5Interrupt?5?5?5?$CFa?6@ 0002d968     MmcAccessLib:SdMmcPciHci.obj
 0002:0000a4c4       ??_C@_0BG@BGNHMKHD@?5?5?5SlotType?5?5?5?5?5?5?5?5?5?5@ 0002d984     MmcAccessLib:SdMmcPciHci.obj
 0002:0000a4dc       ??_C@_0P@BAIOEBLF@Removable?5Slot@ 0002d99c     MmcAccessLib:SdMmcPciHci.obj
 0002:0000a4ec       ??_C@_03PKKNDGHC@?$CFa?6@  0002d9ac     MmcAccessLib:SdMmcPciHci.obj
 0002:0000a4f0       ??_C@_0O@HICNBHJL@Embedded?5Slot@ 0002d9b0     MmcAccessLib:SdMmcPciHci.obj
 0002:0000a500       ??_C@_0BA@GDNKKNAA@Shared?5Bus?5Slot@ 0002d9c0     MmcAccessLib:SdMmcPciHci.obj
 0002:0000a510       ??_C@_08NKCLJDKG@Reserved@ 0002d9d0     MmcAccessLib:SdMmcPciHci.obj
 0002:0000a51c       ??_C@_0BJ@JPMILMIO@?5?5?5SDR50?5?5Support?5?5?5?5?$CFa?6@ 0002d9dc     MmcAccessLib:SdMmcPciHci.obj
 0002:0000a538       ??_C@_0BJ@BCPJAPNO@?5?5?5SDR104?5Support?5?5?5?5?$CFa?6@ 0002d9f8     MmcAccessLib:SdMmcPciHci.obj
 0002:0000a554       ??_C@_0BJ@FDOGMIIP@?5?5?5DDR50?5?5Support?5?5?5?5?$CFa?6@ 0002da14     MmcAccessLib:SdMmcPciHci.obj
 0002:0000a570       ??_C@_0BJ@HNJLBBMI@?5?5?5Driver?5Type?5A?5?5?5?5?5?$CFa?6@ 0002da30     MmcAccessLib:SdMmcPciHci.obj
 0002:0000a58c       ??_C@_0BJ@HJGOMBPF@?5?5?5Driver?5Type?5C?5?5?5?5?5?$CFa?6@ 0002da4c     MmcAccessLib:SdMmcPciHci.obj
 0002:0000a5a8       ??_C@_0BJ@JLLCNKIM@?5?5?5Driver?5Type?5D?5?5?5?5?5?$CFa?6@ 0002da68     MmcAccessLib:SdMmcPciHci.obj
 0002:0000a5c4       ??_C@_0BJ@GNPLFPBE@?5?5?5Driver?5Type?54?5?5?5?5?5?$CFa?6@ 0002da84     MmcAccessLib:SdMmcPciHci.obj
 0002:0000a5e0       ??_C@_0BP@DPDNFAHH@?5?5?5Retuning?5TimerCnt?5Disabled?6@ 0002daa0     MmcAccessLib:SdMmcPciHci.obj
 0002:0000a600       ??_C@_0CA@NIEMOGCD@?5?5?5Retuning?5TimerCnt?5?$CFdseconds?6@ 0002dac0     MmcAccessLib:SdMmcPciHci.obj
 0002:0000a620       ??_C@_0BJ@OJANJLGH@?5?5?5SDR50?5Tuning?5?5?5?5?5?5?$CFa?6@ 0002dae0     MmcAccessLib:SdMmcPciHci.obj
 0002:0000a63c       ??_C@_0BO@MNLCKCHJ@?5?5?5Retuning?5Mode?5?5?5?5?5Mode?5?$CFd?6@ 0002dafc     MmcAccessLib:SdMmcPciHci.obj
 0002:0000a65c       ??_C@_0BN@EEFHFMEH@?5?5?5Clock?5Multiplier?5?5M?5?$DN?5?$CFd?6@ 0002db1c     MmcAccessLib:SdMmcPciHci.obj
 0002:0000a67c       ??_C@_0BJ@HCPAONE@?5?5?5HS?5400?5?5?5?5?5?5?5?5?5?5?5?5?$CFa?6@ 0002db3c     MmcAccessLib:SdMmcPciHci.obj
 0002:0000a698       ??_C@_0CG@LJHOMPPC@SdMmcHcReset?3?5write?5full?51?5fail@ 0002db58     MmcAccessLib:SdMmcPciHci.obj
 0002:0000a6c0       ??_C@_0CC@IMLENHHB@SdMmcHcReset?3?5reset?5done?5with?5?$CF@ 0002db80     MmcAccessLib:SdMmcPciHci.obj
 0002:0000a6e4       ??_C@_0BM@HBFGJMBP@Capability?4BaseClkFreq?5?$CB?$DN?50@ 0002dba4     MmcAccessLib:SdMmcPciHci.obj
 0002:0000a700       ??_C@_0GB@HFFKOJKD@e?3?2code?2adl_n100_code?2sblplatfo@ 0002dbc0     MmcAccessLib:SdMmcPciHci.obj
 0002:0000a764       ??_C@_0BB@KKKABECN@Divisor?5?$DM?$DN?50x3FF@ 0002dc24     MmcAccessLib:SdMmcPciHci.obj
 0002:0000a778       ??_C@_0BA@EANHKHFK@Divisor?5?$DM?$DN?50x80@ 0002dc38     MmcAccessLib:SdMmcPciHci.obj
 0002:0000a788       ??_C@_0DD@IPOEJFJL@Unknown?5SD?5Host?5Controller?5Spec@ 0002dc48     MmcAccessLib:SdMmcPciHci.obj
 0002:0000a7c0       ??_C@_0ED@MOPPJJEP@Set?5SDCLK?5Frequency?5Select?5and?5@ 0002dc80     MmcAccessLib:SdMmcPciHci.obj
 0002:0000a804       ??_C@_0CP@CPICDKCO@BuildAdmaDescTable?5Data?$DN0x?$CF08X?5@ 0002dcc4     MmcAccessLib:SdMmcPciHci.obj
 0002:0000a838       ??_C@_0EO@DFNPICMB@The?5buffer?5?$FL0x?$CFx?$FN?5to?5construct?5@ 0002dcf8     MmcAccessLib:SdMmcPciHci.obj
 0002:0000a888       ??_C@_0DC@KGDGIMGP@No?5valid?5EXT?5superblock?5on?5Star@ 0002dd48     Ext23Lib:ExtLib.obj
 0002:0000a8bc       ??_C@_0CH@HMIFEHMH@Detected?5EXT?5on?5StartBlock?5?$CFd?5P@ 0002dd7c     Ext23Lib:ExtLib.obj
 0002:0000a8e8       ??_C@_0FA@CJPDOCNN@PrivateData?9?$DOSignature?5?$DN?$DN?5?$CI?$CI?$CI?8p@ 0002dda8     Ext23Lib:ExtLib.obj
 0002:0000a938       ??_C@_0FI@GLHOIOIL@e?3?2code?2adl_n100_code?2sblplatfo@ 0002ddf8     Ext23Lib:ExtLib.obj
 0002:0000a990       ??_C@_0BJ@MKHDAELP@OpenFile?5?$CB?$DN?5?$CI?$CIvoid?5?$CK?$CJ?50?$CJ@ 0002de50     Ext23Lib:ExtLib.obj
 0002:0000a9ac       ??_C@_0BO@DLPPPJID@FileBufferPtr?5?$CB?$DN?5?$CI?$CIvoid?5?$CK?$CJ?50?$CJ@ 0002de6c     Ext23Lib:ExtLib.obj
 0002:0000a9cc       ??_C@_07CIFAGBMG@unknown@  0002de8c     Ext23Lib:Ext2FsLs.obj
 0002:0000a9d4       ??_C@_03HGNGHBCD@REG@      0002de94     Ext23Lib:Ext2FsLs.obj
 0002:0000a9d8       ??_C@_03DNALGGBA@DIR@      0002de98     Ext23Lib:Ext2FsLs.obj
 0002:0000a9dc       ??_C@_03KBBODEJO@CHR@      0002de9c     Ext23Lib:Ext2FsLs.obj
 0002:0000a9e0       ??_C@_03IFKLFCDP@BLK@      0002dea0     Ext23Lib:Ext2FsLs.obj
 0002:0000a9e4       ??_C@_04LIEBAAE@FIFO@      0002dea4     Ext23Lib:Ext2FsLs.obj
 0002:0000a9ec       ??_C@_04OEEIFAMF@SOCK@     0002deac     Ext23Lib:Ext2FsLs.obj
 0002:0000a9f4       ??_C@_03GGPAPBGC@LNK@      0002deb4     Ext23Lib:Ext2FsLs.obj
 0002:0000a9f8       ??_C@_1BI@MAOGEGEK@?$AA?5?$AA?5?$AA?$CF?$AA?9?$AA1?$AA6?$AAa?$AA?5?$AA?$CF?$AAu?$AA?6@ 0002deb8     Ext23Lib:Ext2FsLs.obj
 0002:0000aa10       ??_C@_0BE@LNCFEMJM@bad?5dir?5entry?5?9?5?$CFd?6@ 0002ded0     Ext23Lib:Ext2FsLs.obj
 0002:0000aa24       ??_C@_0N@IDDFNDBP@?$CFd?3?5?$CFs?5?$CI?$CFs?$CJ?6@ 0002dee4     Ext23Lib:Ext2FsLs.obj
 0002:0000aa34       ??_C@_1O@NHGDBKCO@?$AA?5?$AA?5?$AA?$CF?$AAa?$AA?1?$AA?6@ 0002def4     Ext23Lib:Ext2FsLs.obj
 0002:0000aa44       ??_C@_1CM@CPBLPKKK@?$AA?5?$AA?5?$AA?$CF?$AAa?$AA?5?$AA?$CI?$AAs?$AAy?$AAm?$AAb?$AAo?$AAl?$AAi?$AAc?$AA?5@ 0002df04     Ext23Lib:Ext2FsLs.obj
 0002:0000aa90       ??_C@_0CJ@NLBBDHOK@EXT4?5extent?5header?5magic?5mismat@ 0002df50     Ext23Lib:Ext2Fs.obj
 0002:0000aabc       ??_C@_0BI@HBIMCILD@ExtIndex?9?$DOEiLeafHi?5?$DN?$DN?50@ 0002df7c     Ext23Lib:Ext2Fs.obj
 0002:0000aad8       ??_C@_0FI@PBGCGKBF@e?3?2code?2adl_n100_code?2sblplatfo@ 0002df98     Ext23Lib:Ext2Fs.obj
 0002:0000ab30       ??_C@_0DI@EOCMNIND@Could?5not?5find?5FileBlock?5?$CD?$CFd?5in@ 0002dff0     Ext23Lib:Ext2Fs.obj
 0002:0000ab68       ??_C@_0BG@KNDMLJHA@Extent?9?$DOEstartHi?5?$DN?$DN?50@ 0002e028     Ext23Lib:Ext2Fs.obj
 0002:0000ab80       ??_C@_04BBDFLMDN@?5?9?$DO?5@ 0002e040     Ext23Lib:Ext2Fs.obj
 0002:0000ab88       ??_C@_1O@OJPNCMHI@?$AA?5?$AA?5?$AA?$CF?$AAs?$AA?1?$AA?6@ 0002e048     FatLib:FatLib.obj
 0002:0000ab98       ??_C@_1BI@CAMFDFCJ@?$AA?5?$AA?5?$AA?$CF?$AA?9?$AA1?$AA6?$AAs?$AA?5?$AA?$CF?$AAu?$AA?6@ 0002e058     FatLib:FatLib.obj
 0002:0000abb0       ??_C@_0FG@OKELFILD@e?3?2code?2adl_n100_code?2sblplatfo@ 0002e070     FatLib:FatLib.obj
 0002:0000ac08       ??_C@_0CC@NOPDBPDI@Detected?5FAT?5on?5HwDev?5?$CFd?5Part?5?$CF@ 0002e0c8     FatLib:FatLib.obj
 0002:0000ac30       ??_C@_0FA@JKOLJPN@PrivateData?9?$DOSignature?5?$DN?$DN?5?$CI?$CI?$CI?8p@ 0002e0f0     FatLib:FatLib.obj
 0002:0000ac80       ??_C@_0BF@IJMMNDME@File?5?$CB?$DN?5?$CI?$CIvoid?5?$CK?$CJ?50?$CJ@ 0002e140     FatLib:FatLib.obj
 0002:0000ac98       ??_C@_0BM@PGEFCEPL@?5?5FatFsOpenFile?3?5?$CFs?5opened?6@ 0002e158     FatLib:FatLib.obj
 0002:0000acb4       ??_C@_0BM@FMGIGGBH@PrivateData?5?$CB?$DN?5?$CI?$CIvoid?5?$CK?$CJ?50?$CJ@ 0002e174     FatLib:FatLib.obj
 0002:0000acd0       ??_C@_0CG@NFEKDODL@?5?5FatFsReadFile?3?5?$CFs?$CI?$CFd?5bytes?$CJ?5l@ 0002e190     FatLib:FatLib.obj
 0002:0000acf8       ??_C@_0BN@HEAPOELK@?5?5FatFsCloseFile?3?5?$CFs?5closed?6@ 0002e1b8     FatLib:FatLib.obj
 0002:0000b180       ??_C@_0CA@IBBIEIMA@HeciRevokeOemKey?5Result?3?5?$CF08x?5?6@ 0002e640     HeciDxeMeExtLib:HeciMeExtLib.obj
 0002:0000b1a0       ??_C@_0CJ@KBJGOOLL@PeiHubEnumeration?3?5DownStreamPo@ 0002e660     UsbBusPei:UsbPeim.obj
 0002:0000b1cc       ??_C@_0DK@HIFAKAII@USB?5Status?5?9?9?9?5Port?3?5?$CFx?5Connect@ 0002e68c     UsbBusPei:UsbPeim.obj
 0002:0000b208       ??_C@_0BC@HHLDCNGE@Device?5Speed?5?$DN?$CFd?6@ 0002e6c8     UsbBusPei:UsbPeim.obj
 0002:0000b21c       ??_C@_0DC@MPEFLGBE@PeiHubEnumeration?3?5PeiConfigure@ 0002e6dc     UsbBusPei:UsbPeim.obj
 0002:0000b250       ??_C@_0FK@NLIPDEDO@e?3?2code?2adl_n100_code?2sblplatfo@ 0002e710     UsbBusPei:UsbPeim.obj
 0002:0000b2ac       ??_C@_0CG@CALMDCGO@PeiUsbEnumeration?3?5NumOfRootPor@ 0002e76c     UsbBusPei:UsbPeim.obj
 0002:0000b2d4       ??_C@_0DC@NPGCDHDA@PeiUsbEnumeration?3?5PeiConfigure@ 0002e794     UsbBusPei:UsbPeim.obj
 0002:0000b308       ??_C@_0DB@HBCLGKCF@PeiUsbGet?5Device?5Descriptor?5the@ 0002e7c8     UsbBusPei:UsbPeim.obj
 0002:0000b33c       ??_C@_0CJ@OKEBEDLN@PeiUsbGet?5Device?5Descriptor?5fai@ 0002e7fc     UsbBusPei:UsbPeim.obj
 0002:0000b368       ??_C@_0CD@FLADJLCF@PeiUsbSetDeviceAddress?5Failed?3?5@ 0002e828     UsbBusPei:UsbPeim.obj
 0002:0000b38c       ??_C@_0CC@JNILEFMP@PeiUsbGetDescriptor?5First?5Faile@ 0002e84c     UsbBusPei:UsbPeim.obj
 0002:0000b3b0       ??_C@_13HOIJIPNN@?$AA?5@   0002e870     UsbBusPei:UsbPeim.obj
 0002:0000b3b4       ??_C@_0CK@FDMNFKIH@PeiUsbGet?5Config?5Descriptor?5Fir@ 0002e874     UsbBusPei:UsbPeim.obj
 0002:0000b3e0       ??_C@_0CI@NAAMHIGM@PeiUsbGet?5Config?5Descriptor?5all@ 0002e8a0     UsbBusPei:UsbPeim.obj
 0002:0000b408       ??_C@_0BE@JAHGIDJM@NumOfEndpoint?5?$DM?$DN?516@ 0002e8c8     UsbBusPei:UsbPeim.obj
 0002:0000b41c       ??_C@_0CO@CHHIPOCI@SetRootHubPortFeature?5EfiUsbPor@ 0002e8dc     UsbBusPei:UsbPeim.obj
 0002:0000b44c       ??_C@_0DA@BFNFHKPD@ClearRootHubPortFeature?5EfiUsbP@ 0002e90c     UsbBusPei:UsbPeim.obj
 0002:0000b47c       ??_C@_0DG@LNHFKOOP@ResetRootPort?3?5reset?5not?5finish@ 0002e93c     UsbBusPei:UsbPeim.obj
 0002:0000b4b4       ??_C@_0BJ@CNPMOALD@UsbIoPpi?5?$CB?$DN?5?$CI?$CIvoid?5?$CK?$CJ?50?$CJ@ 0002e974     UsbBusPei:PeiUsbLib.obj
 0002:0000b4d0       ??_C@_0FM@FGKJPJBA@e?3?2code?2adl_n100_code?2sblplatfo@ 0002e990     UsbBusPei:PeiUsbLib.obj
 0002:0000b530       ??_C@_0FM@FGHFBOKN@e?3?2code?2adl_n100_code?2sblplatfo@ 0002e9f0     UsbBusPei:UsbIoPeim.obj
 0002:0000b58c       ??_C@_0BL@ILLAFBCN@PeiUsbControlTransfer?3?5?$CFr?6@ 0002ea4c     UsbBusPei:UsbIoPeim.obj
 0002:0000b5a8       ??_C@_0BI@MPFLHCDK@PeiUsbBulkTransfer?3?5?$CFr?6@ 0002ea68     UsbBusPei:UsbIoPeim.obj
 0002:0000b5c0       ??_C@_0CD@GMAJCJGF@EndpointDescriptor?5?$CB?$DN?5?$CI?$CIvoid?5?$CK?$CJ@ 0002ea80     UsbBusPei:UsbIoPeim.obj
 0002:0000b5e4       ??_C@_0BE@PLKJIHLH@EndpointIndex?5?$DM?$DN?515@ 0002eaa4     UsbBusPei:UsbIoPeim.obj
 0002:0000b5f8       ??_C@_0CH@DCKAOPPD@PeiDoHubConfig?3?5Set?5Hub?5Depth?5a@ 0002eab8     UsbBusPei:HubPeim.obj
 0002:0000b620       ??_C@_0EA@OMBOLADM@PeiDoHubConfig?3?5PeiHubSetPortFe@ 0002eae0     UsbBusPei:HubPeim.obj
 0002:0000b660       ??_C@_0DD@EFLFKANC@PeiDoHubConfig?3?5HubDescriptor?4P@ 0002eb20     UsbBusPei:HubPeim.obj
 0002:0000b694       ??_C@_0DI@OPCNGHKJ@PeiResetHubPort?3?5reset?5not?5fini@ 0002eb54     UsbBusPei:HubPeim.obj
 0002:0000b6cc       ??_C@_0BH@OGBBDPLH@Deinit?5USB?5controller?6@ 0002eb8c     UsbInitLib:UsbInitLib.obj
 0002:0000b6e4       ??_C@_0BE@OPKFDKFI@Init?5USB?5XHCI?5?9?5?$CFr?6@ 0002eba4     UsbInitLib:UsbInitLib.obj
 0002:0000b6f8       ??_C@_0BE@GAMMICPA@Enumerate?5Bus?5?9?5?$CFr?6@ 0002ebb8     UsbInitLib:UsbInitLib.obj
 0002:0000b70c       ??_C@_0BN@IDDJEIKK@Found?5?$CFd?5USB?5devices?5on?5bus?6@ 0002ebcc     UsbInitLib:UsbInitLib.obj
 0002:0000b730       ??_C@_0FK@OJDDJLKN@e?3?2code?2adl_n100_code?2sblplatfo@ 0002ebf0     IoMmuLib:IoMmuLib.obj
 0002:0000b790       ??_C@_0EN@NNLMBEDB@e?3?2code?2adl_n100_code?2sblplatfo@ 0002ec50     BaseLib:ModU64x32.obj
 0002:0000b7e0       ??_C@_0BJ@IAPBALDE@?5?5SPI?5ERASE?3?5?$CF08X?5?5?$CF08X?6@ 0002eca0     LiteVariableLib:LiteVariableLib.obj
 0002:0000b7fc       ??_C@_0BJ@PMOOIBCE@?5?5SPI?5WRITE?3?5?$CF08X?5?5?$CF08X?6@ 0002ecbc     LiteVariableLib:LiteVariableLib.obj
 0002:0000b818       ??_C@_0HJ@LLDGICLF@?$CIVarStoreHdrPtr?5?$CB?$DN?5?$CI?$CIvoid?5?$CK?$CJ?50?$CJ@ 0002ecd8     LiteVariableLib:LiteVariableLib.obj
 0002:0000b898       ??_C@_0GI@PBODLLCK@e?3?2code?2adl_n100_code?2sblplatfo@ 0002ed58     LiteVariableLib:LiteVariableLib.obj
 0002:0000b900       ??_C@_0BN@FMODBJA@Reclaiming?5variable?5storage?6@ 0002edc0     LiteVariableLib:LiteVariableLib.obj
 0002:0000b920       ??_C@_0FC@PAJFLLD@CheckAndFixHeciForAccess?5?$CI?$CJ?5?9?5M@ 0002ede0     HeciLib:HeciCore.obj
 0002:0000b978       ??_C@_0EK@CGHJLMC@HECI?5Interface?5ERROR?3?5Timeout?5d@ 0002ee38     HeciLib:HeciCore.obj
 0002:0000b9c8       ??_C@_0FK@IBHBFIOF@HeciPacketWrite?3?5EFI_TIMEOUT?5du@ 0002ee88     HeciLib:HeciCore.obj
 0002:0000ba24       ??_C@_0BL@HHFEMIAE@?$FLHECI?$CFd?$FN?5Got?5msg?5?$CFr?3?5?$CF08X?6@ 0002eee4     HeciLib:HeciCore.obj
 0002:0000ba40       ??_C@_0N@CKELMLLI@ME?5Mode?3?5?$CFX?6@ 0002ef00     HeciLib:HeciCore.obj
 0002:0000ba50       ??_C@_0BI@PCPONEOM@Failed?5to?5Get?5ME?5Mode?$CB?6@ 0002ef10     HeciLib:HeciCore.obj
 0002:0000ba68       ??_C@_0DK@LOLMBBFB@?$FLHECI?$CFd?$FN?5HeciSendwAck?5failed?5on@ 0002ef28     HeciLib:HeciCore.obj
 0002:0000baa4       ??_C@_0DC@MJAJGKP@?$FLHECI?$CFd?$FN?5HeciSendwAck?5failed?5on@ 0002ef64     HeciLib:HeciCore.obj
 0002:0000bad8       ??_C@_0BO@LICAOHCC@?$FLHECI?$CFd?$FN?5Resetting?5interface?6@ 0002ef98     HeciLib:HeciCore.obj
 0002:0000baf8       ??_C@_0DF@HFJNNIPC@?$FLHECI?$CFd?$FN?5?9?5Step1?5Enable?5Host?5Re@ 0002efb8     HeciLib:HeciCore.obj
 0002:0000bb30       ??_C@_0DJ@HKBBNFHB@?$FLHECI?$CFd?$FN?5?9?5Step2?5Wait?5for?5reset@ 0002eff0     HeciLib:HeciCore.obj
 0002:0000bb6c       ??_C@_0DJ@KMAJBFOA@?$FLHECI?$CFd?$FN?5?9?5Step3?5?5Wait?5for?5ME?5r@ 0002f02c     HeciLib:HeciCore.obj
 0002:0000bba8       ??_C@_0BE@CHEKNMKH@Xhc?9?$DOCapLength?5?$CB?$DN?50@ 0002f068     XhciLib:XhcPeim.obj
 0002:0000bbc0       ??_C@_0FI@OLAGIKLH@e?3?2code?2adl_n100_code?2sblplatfo@ 0002f080     XhciLib:XhcPeim.obj
 0002:0000bc18       ??_C@_0BA@MBBPPMKO@Xhc?9?$DODBOff?5?$CB?$DN?50@ 0002f0d8     XhciLib:XhcPeim.obj
 0002:0000bc28       ??_C@_0BB@KPINHBLN@Xhc?9?$DORTSOff?5?$CB?$DN?50@ 0002f0e8     XhciLib:XhcPeim.obj
 0002:0000bc3c       ??_C@_0BD@MMDJJDHC@XhcPeiResetHC?3?5?$CFr?6@ 0002f0fc     XhciLib:XhcPeim.obj
 0002:0000bc50       ??_C@_0BC@IBAKAOPJ@XhcPeiHaltHC?3?5?$CFr?6@ 0002f110     XhciLib:XhcPeim.obj
 0002:0000bc64       ??_C@_0BB@HHPELCIK@XhcPeiRunHC?3?5?$CFr?6@ 0002f124     XhciLib:XhcPeim.obj
 0002:0000bc78       ??_C@_0DJ@KGECHGJF@XhcPeiControlTransfer?3?5HC?5is?5ha@ 0002f138     XhciLib:XhcPeim.obj
 0002:0000bcb4       ??_C@_0CM@HMAJFGNK@XhcPeiControlTransfer?3?5failed?5t@ 0002f174     XhciLib:XhcPeim.obj
 0002:0000bce0       ??_C@_0DM@PCIFBFGF@XhcPeiControlTransfer?3?5XhcPeiDe@ 0002f1a0     XhciLib:XhcPeim.obj
 0002:0000bd1c       ??_C@_0DL@GBAKHGNG@XhcPeiControlTransfer?3?5XhcPeiRe@ 0002f1dc     XhciLib:XhcPeim.obj
 0002:0000bd58       ??_C@_0BF@OBJIPFIC@Data?5?$CB?$DN?5?$CI?$CIvoid?5?$CK?$CJ?50?$CJ@ 0002f218     XhciLib:XhcPeim.obj
 0002:0000bd70       ??_C@_0DN@IDAOKJCH@Index?5?$DM?5Xhc?9?$DOUsbDevContext?$FLSlot@ 0002f230     XhciLib:XhcPeim.obj
 0002:0000bdb0       ??_C@_0BI@MACGCHBJ@HubDesc?9?$DONumPorts?5?$DM?$DN?515@ 0002f270     XhciLib:XhcPeim.obj
 0002:0000bdc8       ??_C@_0EK@OEDOEFIC@XHCI?3?5Don?8t?5support?5multi?9TT?5fe@ 0002f288     XhciLib:XhcPeim.obj
 0002:0000be14       ??_C@_0DC@GBMNDOFB@XhcPeiControlTransfer?3?5error?5?9?5@ 0002f2d4     XhciLib:XhcPeim.obj
 0002:0000be48       ??_C@_0DG@IPHPEEMF@XhcPeiBulkTransfer?3?5HC?5is?5halte@ 0002f308     XhciLib:XhcPeim.obj
 0002:0000be80       ??_C@_0CK@ODJOMHBH@XhcPeiBulkTransfer?3?5failed?5to?5c@ 0002f340     XhciLib:XhcPeim.obj
 0002:0000beac       ??_C@_0DJ@CLCBCDJM@XhcPeiBulkTransfer?3?5XhcPeiDeque@ 0002f36c     XhciLib:XhcPeim.obj
 0002:0000bee8       ??_C@_0DI@BDGGFDDP@XhcPeiBulkTransfer?3?5XhcPeiRecov@ 0002f3a8     XhciLib:XhcPeim.obj
 0002:0000bf20       ??_C@_0CP@FKCMBCHL@XhcPeiBulkTransfer?3?5error?5?9?5?$CFr?0@ 0002f3e0     XhciLib:XhcPeim.obj
 0002:0000bf50       ??_C@_0CN@LHEAHEFK@XhcPeiGetRootHubPortNumber?3?5Por@ 0002f410     XhciLib:XhcPeim.obj
 0002:0000bf80       ??_C@_0DD@CKEEDMMF@XhcPeiClearRootHubPortFeature?3?5@ 0002f440     XhciLib:XhcPeim.obj
 0002:0000bfb4       ??_C@_0DM@IONJCDPL@XhcPeiClearRootHubPortFeature?3?5@ 0002f474     XhciLib:XhcPeim.obj
 0002:0000bff0       ??_C@_0DB@BHBAPKIK@XhcPeiSetRootHubPortFeature?3?5Po@ 0002f4b0     XhciLib:XhcPeim.obj
 0002:0000c024       ??_C@_0DK@FMEFHIEK@XhcPeiSetRootHubPortFeature?3?5Po@ 0002f4e4     XhciLib:XhcPeim.obj
 0002:0000c060       ??_C@_0DA@GBAOAKLC@XhcPeiGetRootHubPortStatus?3?5Por@ 0002f520     XhciLib:XhcPeim.obj
 0002:0000c090       ??_C@_0EB@MDEGJNJF@XhcPeiGetRootHubPortStatus?3?5Por@ 0002f550     XhciLib:XhcPeim.obj
 0002:0000c0d4       ??_C@_0CL@EEPGOOPN@XhciPei?3?5UsbHostControllerBaseA@ 0002f594     XhciLib:XhcPeim.obj
 0002:0000c100       ??_C@_0CL@BEKNMLGP@XhciPei?3?5CapLength?3?5?5?5?5?5?5?5?5?5?5?5?5@ 0002f5c0     XhciLib:XhcPeim.obj
 0002:0000c12c       ??_C@_0CL@KDHGNEEB@XhciPei?3?5HcSParams1?3?5?5?5?5?5?5?5?5?5?5?5@ 0002f5ec     XhciLib:XhcPeim.obj
 0002:0000c158       ??_C@_0CL@JGJLGCBC@XhciPei?3?5HcSParams2?3?5?5?5?5?5?5?5?5?5?5?5@ 0002f618     XhciLib:XhcPeim.obj
 0002:0000c184       ??_C@_0CL@NDJEBAMA@XhciPei?3?5HcCParams?3?5?5?5?5?5?5?5?5?5?5?5?5@ 0002f644     XhciLib:XhcPeim.obj
 0002:0000c1b0       ??_C@_0CL@KLBLCBHK@XhciPei?3?5DBOff?3?5?5?5?5?5?5?5?5?5?5?5?5?5?5?5?5@ 0002f670     XhciLib:XhcPeim.obj
 0002:0000c1dc       ??_C@_0CL@NHIHJKPJ@XhciPei?3?5RTSOff?3?5?5?5?5?5?5?5?5?5?5?5?5?5?5?5@ 0002f69c     XhciLib:XhcPeim.obj
 0002:0000c208       ??_C@_0CL@NDMHINKM@XhciPei?3?5PageSize?3?5?5?5?5?5?5?5?5?5?5?5?5?5@ 0002f6c8     XhciLib:XhcPeim.obj
 0002:0000c234       ??_C@_0BG@FBEPBEJN@XhcPeiIsHalt?5?$CIXhcDev?$CJ@ 0002f6f4     XhciLib:XhcPeim.obj
 0002:0000c24c       ??_C@_0DF@NOMEELKM@XhcPeiCmdTransfer?3?5HC?5is?5halted@ 0002f70c     XhciLib:XhciSched.obj
 0002:0000c284       ??_C@_0CJ@LPCPHHJG@XhcPeiCmdTransfer?3?5failed?5to?5cr@ 0002f744     XhciLib:XhciSched.obj
 0002:0000c2b0       ??_C@_0DO@BAFLAFHB@XhcPeiCreateUrb?3?5XhcPeiCreateTr@ 0002f770     XhciLib:XhciSched.obj
 0002:0000c2f0       ??_C@_0BM@PFLBPNJC@Not?5supported?5EPType?50x?$CFx?$CB?6@ 0002f7b0     XhciLib:XhciSched.obj
 0002:0000c310       ??_C@_0EC@NANCHEBA@XhcPeiRecoverHaltedEndpoint?3?5Re@ 0002f7d0     XhciLib:XhciSched.obj
 0002:0000c358       ??_C@_0EB@IHFCIFKP@XhcPeiRecoverHaltedEndpoint?3?5Re@ 0002f818     XhciLib:XhciSched.obj
 0002:0000c3a0       ??_C@_0EG@NKCIEEJE@XhcPeiRecoverHaltedEndpoint?3?5Se@ 0002f860     XhciLib:XhciSched.obj
 0002:0000c3e8       ??_C@_0DI@ENBELNBI@XhcPeiDequeueTrbFromEndpoint?3?5S@ 0002f8a8     XhciLib:XhciSched.obj
 0002:0000c420       ??_C@_0EB@HLJAEHGG@XhcPeiDequeueTrbFromEndpoint?3?5S@ 0002f8e0     XhciLib:XhciSched.obj
 0002:0000c468       ??_C@_0EH@FEMPDOGO@XhcPeiDequeueTrbFromEndpoint?3?5S@ 0002f928     XhciLib:XhciSched.obj
 0002:0000c4b0       ??_C@_0DP@KDGAEPHC@Urb?9?$DORing?9?$DOTrbNumber?5?$DN?$DN?50x100?5?$HM@ 0002f970     XhciLib:XhciSched.obj
 0002:0000c4f0       ??_C@_0FK@FNJDFJKG@e?3?2code?2adl_n100_code?2sblplatfo@ 0002f9b0     XhciLib:XhciSched.obj
 0002:0000c54c       ??_C@_0CP@EOCOMBDJ@?$CIXhc?5?$CB?$DN?5?$CI?$CIvoid?5?$CK?$CJ?50?$CJ?$CJ?5?$CG?$CG?5?$CIUrb?5?$CB@ 0002fa0c     XhciLib:XhciSched.obj
 0002:0000c57c       ??_C@_0DG@PHBMJMLF@XhcPeiCheckUrbResult?3?5STALL_ERR@ 0002fa3c     XhciLib:XhciSched.obj
 0002:0000c5b4       ??_C@_0DH@LCAMLJGH@XhcPeiCheckUrbResult?3?5BABBLE_ER@ 0002fa74     XhciLib:XhciSched.obj
 0002:0000c5ec       ??_C@_0DF@MCFOKEHF@XhcPeiCheckUrbResult?3?5ERR_BUFFE@ 0002faac     XhciLib:XhciSched.obj
 0002:0000c624       ??_C@_0DM@MOIFIFIJ@XhcPeiCheckUrbResult?3?5TRANSACTI@ 0002fae4     XhciLib:XhciSched.obj
 0002:0000c660       ??_C@_0CN@KJPLHOAG@XhcPeiCheckUrbResult?3?5short?5pac@ 0002fb20     XhciLib:XhciSched.obj
 0002:0000c690       ??_C@_0EK@BEAKFENL@XhcPeiCheckUrbResult?3?5Transfer?5@ 0002fb50     XhciLib:XhciSched.obj
 0002:0000c6e0       ??_C@_0EB@DBKGHAPD@XhcPeiPollPortStatusChange?3?5Por@ 0002fba0     XhciLib:XhciSched.obj
 0002:0000c724       ??_C@_0N@JGENFOAD@EpAddr?5?$DM?$DN?515@ 0002fbe4     XhciLib:XhciSched.obj
 0002:0000c734       ??_C@_0DN@OFACKHIC@XhcPeiInitializeDeviceSlot?3?5Ena@ 0002fbf4     XhciLib:XhciSched.obj
 0002:0000c774       ??_C@_0CC@LOEPGABN@EvtTrb?9?$DOSlotId?5?$DM?$DN?5Xhc?9?$DOMaxSlots@ 0002fc34     XhciLib:XhciSched.obj
 0002:0000c798       ??_C@_0EK@JAFHMBKB@XhcPeiInitializeDeviceSlot?3?5Ena@ 0002fc58     XhciLib:XhciSched.obj
 0002:0000c7e4       ??_C@_0M@EPMOJKGK@SlotId?5?$CB?$DN?50@ 0002fca4     XhciLib:XhciSched.obj
 0002:0000c7f0       ??_C@_0BN@LJONCGAN@InputContext?5?$CB?$DN?5?$CI?$CIvoid?5?$CK?$CJ?50?$CJ@ 0002fcb0     XhciLib:XhciSched.obj
 0002:0000c810       ??_C@_0CD@HOFCJKHI@?$CI?$CIUINTN?$CJ?5InputContext?5?$CG?50x3F?$CJ?5?$DN@ 0002fcd0     XhciLib:XhciSched.obj
 0002:0000c834       ??_C@_0BC@CHBJICNE@ParentSlotId?5?$CB?$DN?50@ 0002fcf4     XhciLib:XhciSched.obj
 0002:0000c848       ??_C@_0BO@JLCJGJNB@OutputContext?5?$CB?$DN?5?$CI?$CIvoid?5?$CK?$CJ?50?$CJ@ 0002fd08     XhciLib:XhciSched.obj
 0002:0000c868       ??_C@_0CE@EJHBGGGI@?$CI?$CIUINTN?$CJ?5OutputContext?5?$CG?50x3F?$CJ?5@ 0002fd28     XhciLib:XhciSched.obj
 0002:0000c88c       ??_C@_0DO@FAFKBADG@XhcPeiInitializeDeviceSlot?3?5Add@ 0002fd4c     XhciLib:XhciSched.obj
 0002:0000c8cc       ??_C@_0DG@DAPBDDBD@XhcPeiInitializeDeviceSlot?3?5Ena@ 0002fd8c     XhciLib:XhciSched.obj
 0002:0000c904       ??_C@_0DP@JKOPADGL@XhcPeiInitializeDeviceSlot64?3?5E@ 0002fdc4     XhciLib:XhciSched.obj
 0002:0000c948       ??_C@_0EM@CJEIILNC@XhcPeiInitializeDeviceSlot64?3?5E@ 0002fe08     XhciLib:XhciSched.obj
 0002:0000c998       ??_C@_0EA@IJPDKHEO@XhcPeiInitializeDeviceSlot64?3?5A@ 0002fe58     XhciLib:XhciSched.obj
 0002:0000c9d8       ??_C@_0DI@HLJNGFKK@XhcPeiInitializeDeviceSlot64?3?5E@ 0002fe98     XhciLib:XhciSched.obj
 0002:0000ca10       ??_C@_0DN@FNLLOGPE@XhcPeiDisableSlotCmd?3?5failed?5to@ 0002fed0     XhciLib:XhciSched.obj
 0002:0000ca50       ??_C@_0CP@HCFPALB@XhcPeiDisableSlotCmd?3?5Disable?5d@ 0002ff10     XhciLib:XhciSched.obj
 0002:0000ca80       ??_C@_0EA@CLKFOIC@XhcPeiDisableSlotCmd?3?5Disable?5S@ 0002ff40     XhciLib:XhciSched.obj
 0002:0000cac0       ??_C@_0DJ@PGCPIAE@XhcPeiDisableSlotCmd?3?5Disable?5S@ 0002ff80     XhciLib:XhciSched.obj
 0002:0000cafc       ??_C@_0DP@OPPECPMC@XhcPeiDisableSlotCmd64?3?5failed?5@ 0002ffbc     XhciLib:XhciSched.obj
 0002:0000cb3c       ??_C@_0DB@FGGLAKGO@XhcPeiDisableSlotCmd64?3?5Disable@ 0002fffc     XhciLib:XhciSched.obj
 0002:0000cb70       ??_C@_0EC@NOAHPHBE@XhcPeiDisableSlotCmd64?3?5Disable@ 00030030     XhciLib:XhciSched.obj
 0002:0000cbb4       ??_C@_0DL@BLBFFHBI@XhcPeiDisableSlotCmd64?3?5Disable@ 00030074     XhciLib:XhciSched.obj
 0002:0000cbf0       ??_C@_0BL@PDDKCBEA@ConfigDesc?5?$CB?$DN?5?$CI?$CIvoid?5?$CK?$CJ?50?$CJ@ 000300b0     XhciLib:XhciSched.obj
 0002:0000cc0c       ??_C@_0CA@JCMJLNHI@Interval?5?$DO?$DN?51?5?$CG?$CG?5Interval?5?$DM?$DN?516@ 000300cc     XhciLib:XhciSched.obj
 0002:0000cc30       ??_C@_0EN@KKBALJH@XhcPeiSetConfigCmd?3?5Unsupport?5I@ 000300f0     XhciLib:XhciSched.obj
 0002:0000cc80       ??_C@_0O@MGEOCDF@Interval?5?$CB?$DN?50@ 00030140     XhciLib:XhciSched.obj
 0002:0000cc90       ??_C@_0FB@HIEDCBAJ@XhcPeiSetConfigCmd?3?5Unsupport?5C@ 00030150     XhciLib:XhciSched.obj
 0002:0000cce8       ??_C@_0EH@FAKMHNMJ@XhcPeiSetConfigCmd?3?5Unknown?5EP?5@ 000301a8     XhciLib:XhciSched.obj
 0002:0000cd30       ??_C@_0CF@JLGPFHLA@XhcSetConfigCmd?3?5Configure?5Endp@ 000301f0     XhciLib:XhciSched.obj
 0002:0000cd58       ??_C@_0DG@CFMFCFKC@XhcSetConfigCmd?3?5Config?5Endpoin@ 00030218     XhciLib:XhciSched.obj
 0002:0000cd90       ??_C@_08NCNAOHAD@Dci?5?$DM?532@ 00030250     XhciLib:XhciSched.obj
 0002:0000cda0       ??_C@_0EP@IKFLCCDF@XhcPeiSetConfigCmd64?3?5Unsupport@ 00030260     XhciLib:XhciSched.obj
 0002:0000cdf0       ??_C@_0FD@KLFGAHPP@XhcPeiSetConfigCmd64?3?5Unsupport@ 000302b0     XhciLib:XhciSched.obj
 0002:0000ce48       ??_C@_0EJ@BOBJFHK@XhcPeiSetConfigCmd64?3?5Unknown?5E@ 00030308     XhciLib:XhciSched.obj
 0002:0000ce94       ??_C@_0CH@MCHFGCOP@XhcSetConfigCmd64?3?5Configure?5En@ 00030354     XhciLib:XhciSched.obj
 0002:0000cebc       ??_C@_0DI@IICBKEIP@XhcSetConfigCmd64?3?5Config?5Endpo@ 0003037c     XhciLib:XhciSched.obj
 0002:0000cef4       ??_C@_0CH@FADINCIA@Xhc?9?$DOUsbDevContext?$FLSlotId?$FN?4Slot@ 000303b4     XhciLib:XhciSched.obj
 0002:0000cf1c       ??_C@_0CG@JAHLIJJB@XhcEvaluateContext?3?5Evaluate?5co@ 000303dc     XhciLib:XhciSched.obj
 0002:0000cf44       ??_C@_0DK@HPNAHFBK@XhcEvaluateContext?3?5Evaluate?5Co@ 00030404     XhciLib:XhciSched.obj
 0002:0000cf80       ??_C@_0CL@GAMHLLGF@XhcEvaluateContext64?3?5Evaluate?5@ 00030440     XhciLib:XhciSched.obj
 0002:0000cfac       ??_C@_0DM@FDDKCCAE@XhcEvaluateContext64?3?5Evaluate?5@ 0003046c     XhciLib:XhciSched.obj
 0002:0000cfe8       ??_C@_0BM@IHAKFBIF@Configure?5Hub?5Slot?5Context?6@ 000304a8     XhciLib:XhciSched.obj
 0002:0000d004       ??_C@_0DK@NEMLNIJA@XhcConfigHubContext?3?5Config?5End@ 000304c4     XhciLib:XhciSched.obj
 0002:0000d040       ??_C@_0BP@CDDHGJPJ@Configure?5Hub?5Slot?5Context?564?6@ 00030500     XhciLib:XhciSched.obj
 0002:0000d060       ??_C@_0DM@KGFNIPFB@XhcConfigHubContext64?3?5Config?5E@ 00030520     XhciLib:XhciSched.obj
 0002:0000d09c       ??_C@_0CN@POFFMOGO@XhcPeiStopEndpoint?3?5Slot?5?$DN?50x?$CFx@ 0003055c     XhciLib:XhciSched.obj
 0002:0000d0cc       ??_C@_0DH@FCKPNNNC@XhcPeiStopEndpoint?3?5Stop?5Endpoi@ 0003058c     XhciLib:XhciSched.obj
 0002:0000d104       ??_C@_0CO@EICJHJAB@XhcPeiResetEndpoint?3?5Slot?5?$DN?50x?$CF@ 000305c4     XhciLib:XhciSched.obj
 0002:0000d134       ??_C@_0DJ@HCNLNEDM@XhcPeiResetEndpoint?3?5Reset?5Endp@ 000305f4     XhciLib:XhciSched.obj
 0002:0000d170       ??_C@_0EA@JOHMGGAL@XhcPeiSetTrDequeuePointer?3?5Slot@ 00030630     XhciLib:XhciSched.obj
 0002:0000d1b0       ??_C@_0EH@GANEJFJE@XhcPeiSetTrDequeuePointer?3?5Set?5@ 00030670     XhciLib:XhciSched.obj
 0002:0000d1f8       ??_C@_0BI@NBJLCPFM@EvtRing?5?$CB?$DN?5?$CI?$CIvoid?5?$CK?$CJ?50?$CJ@ 000306b8     XhciLib:XhciSched.obj
 0002:0000d210       ??_C@_0BK@BDDHKJNJ@EventRing?5?$CB?$DN?5?$CI?$CIvoid?5?$CK?$CJ?50?$CJ@ 000306d0     XhciLib:XhciSched.obj
 0002:0000d22c       ??_C@_0BE@MKMIHFDD@Buf?5?$CB?$DN?5?$CI?$CIvoid?5?$CK?$CJ?50?$CJ@ 000306ec     XhciLib:XhciSched.obj
 0002:0000d240       ??_C@_0BK@ECFIKCPJ@?$CI?$CIUINTN?$CJ?5Buf?5?$CG?50x3F?$CJ?5?$DN?$DN?50@ 00030700     XhciLib:XhciSched.obj
 0002:0000d25c       ??_C@_0BI@EKFAKKJF@TrsRing?5?$CB?$DN?5?$CI?$CIvoid?5?$CK?$CJ?50?$CJ@ 0003071c     XhciLib:XhciSched.obj
 0002:0000d274       ??_C@_0BH@IPFEEL@TrsTrb?5?$CB?$DN?5?$CI?$CIvoid?5?$CK?$CJ?50?$CJ@ 00030734     XhciLib:XhciSched.obj
 0002:0000d28c       ??_C@_0BP@GAMGKKGE@?$CI?$CILINK_TRB?5?$CK?$CJ?5TrsTrb?$CJ?9?$DOTC?5?$CB?$DN?50@ 0003074c     XhciLib:XhciSched.obj
 0002:0000d2ac       ??_C@_0BM@CDIMGDJI@Index?5?$CB?$DN?5TrsRing?9?$DOTrbNumber@ 0003076c     XhciLib:XhciSched.obj
 0002:0000d2c8       ??_C@_0BN@IMFCFFGJ@Xhc?9?$DOMemPool?5?$CB?$DN?5?$CI?$CIvoid?5?$CK?$CJ?50?$CJ@ 00030788     XhciLib:XhciSched.obj
 0002:0000d2e8       ??_C@_0CP@MDJOFIKN@Xhc?9?$DOMaxSlotsEn?5?$DO?$DN?51?5?$CG?$CG?5Xhc?9?$DOMa@ 000307a8     XhciLib:XhciSched.obj
 0002:0000d318       ??_C@_0BG@OCBEGJNE@Dcbaa?5?$CB?$DN?5?$CI?$CIvoid?5?$CK?$CJ?50?$CJ@ 000307d8     XhciLib:XhciSched.obj
 0002:0000d330       ??_C@_0CA@JIDGCCG@ScratchEntryMap?5?$CB?$DN?5?$CI?$CIvoid?5?$CK?$CJ?50?$CJ@ 000307f0     XhciLib:XhciSched.obj
 0002:0000d350       ??_C@_0BN@BODOHAL@ScratchEntry?5?$CB?$DN?5?$CI?$CIvoid?5?$CK?$CJ?50?$CJ@ 00030810     XhciLib:XhciSched.obj
 0002:0000d370       ??_C@_0BM@IIADCEHH@XhcPeiInitSched?3DCBAA?$DN0x?$CFx?6@ 00030830     XhciLib:XhciSched.obj
 0002:0000d38c       ??_C@_0BJ@GBBOLFPK@?$CICmdRingPhy?5?$CG?50x3F?$CJ?5?$DN?$DN?50@ 0003084c     XhciLib:XhciSched.obj
 0002:0000d3a8       ??_C@_0BP@JFJOCELL@XhcPeiInitSched?3XHC_CRCR?$DN0x?$CFx?6@ 00030868     XhciLib:XhciSched.obj
 0002:0000d3c8       ??_C@_0CE@JDDKMFAG@XhcPeiInitSched?3XHC_EVENTRING?$DN0@ 00030888     XhciLib:XhciSched.obj
 0002:0000d3f0       ??_C@_0FJ@IJLPMBJP@e?3?2code?2adl_n100_code?2sblplatfo@ 000308b0     XhciLib:UsbHcMem.obj
 0002:0000d44c       ??_C@_0BI@BGPKDIHO@?$CIBlock?5?$CB?$DN?5?$CI?$CIvoid?5?$CK?$CJ?50?$CJ?$CJ@ 0003090c     XhciLib:UsbHcMem.obj
 0002:0000d464       ??_C@_0CC@HJOLPFE@?$FLHeciInfo?$FN?5Invalid?5HECI?$CFd?5devic@ 00030924     MeChipsetLib:MeChipsetLib.obj
 0002:0000d488       ??_C@_0GD@FCCAGBOC@e?3?2code?2adl_n100_code?2sblplatfo@ 00030948     MeChipsetLib:MeChipsetLib.obj
 0002:0000d540       ___volatile_metadata       00030a00     <linker-defined>
 0003:00000000       __gPcd_BinaryPatch_PcdPayloadStackSize 00030de0     FirmwareUpdate:AutoGen.obj
 0003:00000004       _gPayloadKeyHashGuid       00030de4     FirmwareUpdate:AutoGen.obj
 0003:00000014       _gBootLoaderServiceGuid    00030df4     FirmwareUpdate:AutoGen.obj
 0003:00000024       _gLoaderLibraryDataGuid    00030e04     FirmwareUpdate:AutoGen.obj
 0003:00000034       _gLoaderPlatformDataGuid   00030e14     FirmwareUpdate:AutoGen.obj
 0003:00000044       __gPcd_BinaryPatch_PcdPayloadHeapSize 00030e24     FirmwareUpdate:AutoGen.obj
 0003:00000048       _gDeviceTableHobGuid       00030e28     FirmwareUpdate:AutoGen.obj
 0003:00000058       _gLoaderPlatformInfoGuid   00030e38     FirmwareUpdate:AutoGen.obj
 0003:00000068       _gSblCompFWUpdateImageFileGuid 00030e48     FirmwareUpdate:AutoGen.obj
 0003:00000078       _gLoaderSystemTableInfoGuid 00030e58     FirmwareUpdate:AutoGen.obj
 0003:00000088       _gBootLoaderVersionFileGuid 00030e68     FirmwareUpdate:AutoGen.obj
 0003:00000098       _gUniversalPayloadSerialPortInfoGuid 00030e78     FirmwareUpdate:AutoGen.obj
 0003:000000a8       _gBootLoaderVersionGuid    00030e88     FirmwareUpdate:AutoGen.obj
 0003:000000b8       _gLoaderMemoryMapInfoGuid  00030e98     FirmwareUpdate:AutoGen.obj
 0003:000000c8       __gPcd_BinaryPatch_PcdPciExpressBaseAddress 00030ea8     FirmwareUpdate:AutoGen.obj
 0003:000000d0       __gPcd_BinaryPatch_PcdAcpiPmTimerBase 00030eb0     FirmwareUpdate:AutoGen.obj
 0003:000000d4       __gPcd_BinaryPatch_PcdEmmcMaxRwBlockNumber 00030eb4     FirmwareUpdate:AutoGen.obj
 0003:000000d8       _gFirmwareUpdateImageFileGuid 00030eb8     FirmwareUpdate:AutoGen.obj
 0003:000000e8       _gEfiGraphicsInfoHobGuid   00030ec8     FirmwareUpdate:AutoGen.obj
 0003:000000f8       _gFlashMapInfoGuid         00030ed8     FirmwareUpdate:AutoGen.obj
 0003:00000108       _gLoaderPerformanceInfoGuid 00030ee8     FirmwareUpdate:AutoGen.obj
 0003:00000120       _gUsStdNarrowGlyphData     00030f00     GraphicsLib:Font.obj
 0003:00000f38       _mFreeMemoryMapEntryList   00031d18     FullMemoryAllocationLib:Page.obj
 0003:00000f40       _mPoolHeadList             00031d20     FullMemoryAllocationLib:Pool.obj
 0003:00000f48       _gMemoryMap                00031d28     FullMemoryAllocationLib:MemData.obj
 0003:00000f50       _mCurrentMediaType         00031d30     MediaAccessLib:MediaAccessLib.obj
 0003:00000f54       _mRecoveryBlkIoPpi         00031d34     UsbBlockIoLib:UsbBotPeim.obj
 0003:00000f60       _mPpiList                  00031d40     UsbBlockIoLib:UsbBotPeim.obj
 0003:00000f78       _gUfsHcTemplate            00031d58     UfsBlockIoLib:UfsBlockIoLib.obj
 0003:00001080       _gEfiNvmExpressPassThruMode 00031e60     NvmExpressLib:NvmExpress.obj
 0003:0000108c       _gNvmExpressDiskInfoProtocolTemplate 00031e6c     NvmExpressLib:NvmExpressDiskInfo.obj
 0003:00001184       _mUsbIoPpiList             00031f64     UsbBusPei:UsbPeim.obj
 0003:00001190       _mUsbIoPpi                 00031f70     UsbBusPei:UsbPeim.obj
 0003:000011b0       _mUsbHubClearPortChangeMap 00031f90     XhciLib:XhcPeim.obj
 0003:000011e0       _mUsbHubPortChangeMap      00031fc0     XhciLib:XhcPeim.obj
 0003:00001200       _mUsbClearPortChangeMap    00031fe0     XhciLib:XhcPeim.obj
 0003:00001220       _mUsbPortChangeMap         00032000     XhciLib:XhcPeim.obj
 0003:00001240       _mUsbPortStateMap          00032020     XhciLib:XhcPeim.obj
 0003:00001270       _mUsbHubPortStateMap       00032050     XhciLib:XhcPeim.obj
 0003:000012a0       __gPcd_BinaryPatch_PcdPayloadHobList 00032080     FirmwareUpdate:AutoGen.obj
 0003:000012a4       __gPcd_BinaryPatch_PcdGlobalDataAddress 00032084     FirmwareUpdate:AutoGen.obj
 0003:000012a8       __gPcd_BinaryPatch_PcdSerialRegisterBase 00032088     FirmwareUpdate:AutoGen.obj
 0003:000012b0       __gPcd_BinaryPatch_PcdSerialRegisterStride 00032090     FirmwareUpdate:AutoGen.obj
 0003:000012b4       __gPcd_BinaryPatch_PcdFwUpdStatusBase 00032094     FirmwareUpdate:AutoGen.obj
 0003:000012b8       _gZeroGuid                 00032098     FirmwareUpdate:AutoGen.obj
 0003:000012c8       __gPcd_BinaryPatch_PcdSerialUseMmio 000320a8     FirmwareUpdate:AutoGen.obj
 0003:000012cc       __gPcd_BinaryPatch_PcdSerialBaudRate 000320ac     FirmwareUpdate:AutoGen.obj
 0003:000012d0       _gEfiPartTypeUnusedGuid    000320b0     FirmwareUpdate:AutoGen.obj
 0003:000012e0       _mFwuSpiService            000320c0     FirmwareUpdate:FirmwareUpdateHelper.obj
 0003:000012e4       _mFreeMapStack             000320c4     FullMemoryAllocationLib:Page.obj
 0003:000012e8       _mMemoryMapKey             000320c8     FullMemoryAllocationLib:Page.obj
 0003:000012ec       _mMapDepth                 000320cc     FullMemoryAllocationLib:Page.obj
 0003:000012f4       _gPrivate                  000320d4     UfsBlockIoLib:UfsBlockIoLib.obj
 0003:000012f8       _mSpiService               000320d8     SpiBlockIoLib:SpiBlockIoLib.obj
 0003:00001380       _mUsbInit                  00032160     <common>
 0003:00001408       _mUsbIoCb                  000321e8     <common>
 0003:00001420       _mCrc32Table               00032200     <common>
 0003:00001820       _mNvmeCtrlPrivate          00032600     <common>
 0003:00001840       _mMultiNvmeDrive           00032620     <common>
 0003:00001868       _mAhciPrivateData          00032648     <common>
 0003:0000186c       _mUsbBlkIoCb               0003264c     <common>
 0003:00001880       _mUsbBlkArray              00032660     <common>
 0003:000018a0       _mUsbBlkCount              00032680     <common>
 0003:000018c0       _mDeviceBlockFuncs         000326a0     <common>
 0003:00001980       _gMemoryLock               00032760     <common>
 0003:000019a0       _mPoolHead                 00032780     <common>
 0003:00002080       _mMemoryTypeStatistics     00032e60     <common>
 0003:00002300       _mMapStack                 000330e0     <common>
 0003:00002450       _mSblImageBiosRgnOffset    00033230     <common>

 entry point at        0001:00000000

 Static symbols

 0001:0000002a       _InternalMemCopyMem.0      0000028a     BaseMemoryLibSse2:CopyMem.obj
 0001:0000003c       _InternalMemCopyMem.1      0000029c     BaseMemoryLibSse2:CopyMem.obj
 0001:0000004e       _InternalMemCopyMem.2      000002ae     BaseMemoryLibSse2:CopyMem.obj
 0001:0000006b       @CopyBackward              000002cb     BaseMemoryLibSse2:CopyMem.obj
 0001:00000072       @CopyBytes                 000002d2     BaseMemoryLibSse2:CopyMem.obj
 0001:000000a2       _InternalMemSetMem32.0     00000302     BaseMemoryLibSse2:SetMem32.obj
 0001:000000b5       _InternalMemSetMem32.1     00000315     BaseMemoryLibSse2:SetMem32.obj
 0001:000000d0       @SetDwords                 00000330     BaseMemoryLibSse2:SetMem32.obj
 0001:000000fd       _InternalMemZeroMem.0      0000035d     BaseMemoryLibSse2:ZeroMem.obj
 0001:0000010b       _InternalMemZeroMem.1      0000036b     BaseMemoryLibSse2:ZeroMem.obj
 0001:00000126       @ZeroBytes                 00000386     BaseMemoryLibSse2:ZeroMem.obj
 0001:0000016c       _InternalMemSetMem64.0     000003cc     BaseMemoryLibSse2:SetMem64.obj
 0001:0000017a       _InternalMemSetMem64.1     000003da     BaseMemoryLibSse2:SetMem64.obj
 0001:00000195       @SetQwords                 000003f5     BaseMemoryLibSse2:SetMem64.obj
 0001:0000019b       @SetQwords.2               000003fb     BaseMemoryLibSse2:SetMem64.obj
 0001:000001a4       @SetQwords.3               00000404     BaseMemoryLibSse2:SetMem64.obj
 0001:000001cf       _InternalMemSetMem.0       0000042f     BaseMemoryLibSse2:SetMem.obj
 0001:000001ef       _InternalMemSetMem.1       0000044f     BaseMemoryLibSse2:SetMem.obj
 0001:00000212       @SetBytes                  00000472     BaseMemoryLibSse2:SetMem.obj
 0001:00000236       _InternalMathDivRemU64x64.0 00000496     BaseLib:DivU64x64Remainder.obj
 0001:0000023b       _@DivRemU64x64             0000049b     BaseLib:DivU64x64Remainder.obj
 0001:0000024e       _@DivRemU64x64.1           000004ae     BaseLib:DivU64x64Remainder.obj
 0001:0000027b       @TooLarge                  000004db     BaseLib:DivU64x64Remainder.obj
 0001:00000286       @Correct                   000004e6     BaseLib:DivU64x64Remainder.obj
 0001:00000291       @Return                    000004f1     BaseLib:DivU64x64Remainder.obj
 0001:000002c8       CetDone                    00000528     BaseLib:LongJump.obj
 0001:000002e8       rn16_ok                    00000548     BaseLib:RdRand.obj
 0001:000002fd       rn32_ok                    0000055d     BaseLib:RdRand.obj
 0001:00000322       rn64_ret                   00000582     BaseLib:RdRand.obj
 0001:00000396       _UpdateSHA256Ni.loop0      000005f6     IppCryptoLib:pcpsha256nias.obj
 0001:0000067f       _UpdateSHA256Ni.done_hash  000008df     IppCryptoLib:pcpsha256nias.obj
 0001:000006a0       SWP_BYTE                   00000900     IppCryptoLib:pcpsha512w7as.obj
 0001:000006a0       pByteSwp                   00000900     IppCryptoLib:pcpsha512w7as.obj
 0001:00000752       sha512_block_loop          000009b2     IppCryptoLib:pcpsha512w7as.obj
 0001:00000780       loop1                      000009e0     IppCryptoLib:pcpsha512w7as.obj
 0001:000007a0       loop2                      00000a00     IppCryptoLib:pcpsha512w7as.obj
 0001:000008a0       loop3                      00000b00     IppCryptoLib:pcpsha512w7as.obj
 0001:000011ff       @Is16BytesZero             0000145f     BaseMemoryLibSse2:IsZeroBuffer.obj
 0001:00001209       @Is16BytesZero.0           00001469     BaseMemoryLibSse2:IsZeroBuffer.obj
 0001:00001221       @IsBytesZero               00001481     BaseMemoryLibSse2:IsZeroBuffer.obj
 0001:00001230       @ReturnFalse               00001490     BaseMemoryLibSse2:IsZeroBuffer.obj
 0001:0000125d       FlushNext                  000014bd     ExtraBaseLib:CpuSupport.obj
 0001:00001265       FlushExit                  000014c5     ExtraBaseLib:CpuSupport.obj
 0001:00001295       NoAvxSupport               000014f5     ExtraBaseLib:CpuSupport.obj
 0001:00001297       _PayloadInit               000014f7 f   PayloadEntryLib:PayloadEntryLib.obj
 0001:00004601       _DisplaySendStatus         00004861 f   FirmwareUpdate:CsmeFwUpdate.obj
 0001:000073e4       _GetPoolIndexFromSize      00007644 f   FullMemoryAllocationLib:Pool.obj
 0001:00009392       _RegisterFileSystems       000095f2 f   FileSystemLib:FileSystemLib.obj
 0001:0000a234       _GetFirstFfsFileInFv       0000a494 f   LiteFvLib:FvLib.obj
 0001:0000a358       _GetContainerBySignature   0000a5b8 f   ContainerLib:ContainerLib.obj
 0001:0000a381       _GetContainerHeaderSize    0000a5e1 f   ContainerLib:ContainerLib.obj
 0001:0000a3c7       _RegisterContainerInternal 0000a627 f   ContainerLib:ContainerLib.obj
 0001:0000a525       _AuthenticateComponent     0000a785 f   ContainerLib:ContainerLib.obj
 0001:0000f164       $LN144                     0000f3c4     UfsBlockIoLib:UfsHci.obj
 0001:0000f210       $LN121                     0000f470     UfsBlockIoLib:UfsHci.obj
 0001:0000fbfc       $LN17                      0000fe5c     UfsBlockIoLib:UfsHci.obj
 0001:00012d51       _GetMaxTransferBlockNumber 00012fb1 f   NvmExpressLib:NvmExpressBlockIo.obj
 0001:00013833       $LN575                     00013a93     NvmExpressLib:NvmExpressPassthru.obj
 0001:00013877       $LN576                     00013ad7     NvmExpressLib:NvmExpressPassthru.obj
 0001:00017808       $LN60                      00017a68     MmcAccessLib:SdMmcPciHci.obj
 0001:0001834b       _BlockMap                  000185ab f   Ext23Lib:Ext2Fs.obj
 0001:000186dc       _SearchDirectory           0001893c f   Ext23Lib:Ext2Fs.obj
 0001:00018e9b       _FindFile                  000190fb f   FatLib:FatLib.obj
 0001:00019889       _UnicodeStrLwr             00019ae9 f   FatLib:FatLiteAccess.obj
 0001:0001a679       _EMSA_PKCSv15              0001a8d9 f   IppCryptoLib:pcpngrsassapkcsv15ca_rmf.obj
 0001:0001a6de       _VerifySing                0001a93e f   IppCryptoLib:pcpngrsassapkcsv15ca_rmf.obj
 0001:0001aadc       _cpFix_BNU                 0001ad3c f   IppCryptoLib:pcpbnu32arith.obj
 0001:0001aadc       _cpFix_BNU                 0001ad3c f   IppCryptoLib:pcpbnumisc.obj
 0001:0001aadc       _cpFix_BNU                 0001ad3c f   IppCryptoLib:pcpngrsaencodec.obj
 0001:0001ac92       _hashInit                  0001aef2 f   IppCryptoLib:pcpsha512ca.obj
 0001:0001acf7       _sha512_384_hashInit       0001af57 f   IppCryptoLib:pcpsha512ca.obj
 0001:0001ad05       _sha512_hashUpdate         0001af65 f   IppCryptoLib:pcpsha512ca.obj
 0001:0001ad1f       _sha512_384_hashOctString  0001af7f f   IppCryptoLib:pcpsha512ca.obj
 0001:0001adf3       _sha512_msgRep             0001b053 f   IppCryptoLib:pcpsha512ca.obj
 0001:0001b313       _gs_mont_mul               0001b573 f   IppCryptoLib:gsmodmethod.obj
 0001:0001b65a       _gs_mont_sqr               0001b8ba f   IppCryptoLib:gsmodmethod.obj
 0001:0001b673       _gs_mont_encode            0001b8d3 f   IppCryptoLib:gsmodmethod.obj
 0001:0001b68c       _gs_mont_decode            0001b8ec f   IppCryptoLib:gsmodmethod.obj
 0001:0001b87c       _cpEqu_BNU_CHUNK           0001badc f   IppCryptoLib:pcpngrsamontstuff.obj
 0001:0001b8a2       _gsMontExp_WinSize         0001bb02 f   IppCryptoLib:pcpngrsamontstuff.obj
 0001:0001bab9       _gsPrvBuffer_gpr           0001bd19 f   IppCryptoLib:pcpngrsamontstuff.obj
 0001:0001e13d       _GetFilledSlots            0001e39d f   HeciLib:HeciCore.obj
 0001:0001e15c       _CheckAndFixHeciForAccess  0001e3bc f   HeciLib:HeciCore.obj
 0001:0001e1f4       _IsMeReady                 0001e454 f   HeciLib:HeciCore.obj
 0001:0001e401       _HeciPacketWrite           0001e661 f   HeciLib:HeciCore.obj
 0002:00003510       _mPoolSizeTable            000269d0     FullMemoryAllocationLib:Pool.obj
 0002:0000aa70       _mTypeStr                  0002df30     Ext23Lib:Ext2FsLs.obj
 0002:0000ad18       _SHA224_fixPS              0002e1d8     IppCryptoLib:pcpngrsassapkcsv15ca_rmf.obj
 0002:0000ad2c       _MD5_fixPS                 0002e1ec     IppCryptoLib:pcpngrsassapkcsv15ca_rmf.obj
 0002:0000ad40       _SHA512_fixPS              0002e200     IppCryptoLib:pcpngrsassapkcsv15ca_rmf.obj
 0002:0000ad54       _SHA256_fixPS              0002e214     IppCryptoLib:pcpngrsassapkcsv15ca_rmf.obj
 0002:0000ad68       _SHA512_256_fixPS          0002e228     IppCryptoLib:pcpngrsassapkcsv15ca_rmf.obj
 0002:0000ad7c       _SHA384_fixPS              0002e23c     IppCryptoLib:pcpngrsassapkcsv15ca_rmf.obj
 0002:0000ad90       _SHA512_224_fixPS          0002e250     IppCryptoLib:pcpngrsassapkcsv15ca_rmf.obj
 0002:0000ada4       _SHA1_fixPS                0002e264     IppCryptoLib:pcpngrsassapkcsv15ca_rmf.obj
 0002:0000adc0       _sha256_cnt                0002e280     IppCryptoLib:pcpsha256ca.obj
 0002:0000aec0       _sha512_384_iv             0002e380     IppCryptoLib:pcpsha512ca.obj
 0002:0000af00       _sha512_cnt                0002e3c0     IppCryptoLib:pcpsha512ca.obj
 0003:000010b0       _pksc15_salt               00031e90     IppCryptoLib:pcpngrsassapkcsv15ca_rmf.obj
 0003:00001100       ?method@?1??ippsHashMethod_SHA256@@9@9 00031ee0     IppCryptoLib:pcpsha256ca.obj
 0003:00001120       ?method@?1??ippsHashMethod_SHA384@@9@9 00031f00     IppCryptoLib:pcpsha512ca.obj
 0003:00001140       ?m@?1??gsModArithRSA@@9@9  00031f20     IppCryptoLib:gsmodmethod.obj
 0003:0000116c       ?m@?1??gsMethod_RSA_gpr_public@@9@9 00031f4c     IppCryptoLib:pcpngrsamontstuff.obj
 0003:000012f0       _mFileSystemRegistered     000320d0     FileSystemLib:FileSystemLib.obj
 0003:00001300       _mFbConsole                000320e0     GraphicsLib:GraphicsLib.obj
 0003:00001338       ?Seed@?1??FatGetCacheBlock@@9@9 00032118     FatLib:FatLiteLib.obj
 0003:00001340       _mFileSystemFuncs          00032120     FileSystemLib:FileSystemLib.obj
