 UfsPlatform

 Timestamp is 65f95285 (Tue Mar 19 16:53:25 2024)

 Preferred load address is 0000000000000000

 Start         Length     Name                   Class
 0001:00000000 000000c4H .text                   CODE
 0001:000000c4 00003652H .text$mn                CODE
 0002:00000000 00002254H .rdata                  DATA
 0002:00002254 0000030cH .rdata$voltmd           DATA
 0002:00002560 00000160H .rdata$zzzdbg           DATA
 0003:00000000 000000b0H .data                   DATA
 0003:000000b0 00000058H .bss                    DATA
 0004:00000000 0000018cH .pdata                  DATA
 0005:00000000 00000164H .xdata                  DATA

  Address         Publics by Value              Rva+Base               Lib:Object

 0000:00000000       __guard_longjmp_table      0000000000000000     <absolute>
 0000:00000000       __guard_fids_count         0000000000000000     <absolute>
 0000:00000000       __x64_code_ranges_to_entry_points_count 0000000000000000     <absolute>
 0000:00000000       __arm64x_extra_rfe_table   0000000000000000     <absolute>
 0000:00000000       __hybrid_code_map          0000000000000000     <absolute>
 0000:00000000       __arm64x_redirection_metadata 0000000000000000     <absolute>
 0000:00000000       __arm64x_extra_rfe_table_size 0000000000000000     <absolute>
 0000:00000000       __guard_iat_table          0000000000000000     <absolute>
 0000:00000000       __guard_iat_count          0000000000000000     <absolute>
 0000:00000000       __x64_code_ranges_to_entry_points 0000000000000000     <absolute>
 0000:00000000       __guard_longjmp_count      0000000000000000     <absolute>
 0000:00000000       __dynamic_value_reloc_table 0000000000000000     <absolute>
 0000:00000000       __hybrid_auxiliary_iat     0000000000000000     <absolute>
 0000:00000000       __hybrid_auxiliary_iat_copy 0000000000000000     <absolute>
 0000:00000000       __guard_flags              0000000000000000     <absolute>
 0000:00000000       __guard_eh_cont_count      0000000000000000     <absolute>
 0000:00000000       __AbsoluteZero             0000000000000000     <absolute>
 0000:00000000       __guard_check_icall_a64n_fptr 0000000000000000     <absolute>
 0000:00000000       __guard_fids_table         0000000000000000     <absolute>
 0000:00000000       __arm64x_redirection_metadata_count 0000000000000000     <absolute>
 0000:00000000       __enclave_config           0000000000000000     <absolute>
 0000:00000000       __guard_eh_cont_table      0000000000000000     <absolute>
 0000:00000000       __arm64x_native_entrypoint 0000000000000000     <absolute>
 0000:00000000       __hybrid_code_map_count    0000000000000000     <absolute>
 0001:00000000       InternalMemSetMem          00000000000002c0     BaseMemoryLibRepStr:SetMem.obj
 0001:00000020       InternalMemCopyMem         00000000000002e0     BaseMemoryLibRepStr:CopyMem.obj
 0001:00000060       InternalMemZeroMem         0000000000000320     BaseMemoryLibRepStr:ZeroMem.obj
 0001:00000080       InternalMemSetMem64        0000000000000340     BaseMemoryLibRepStr:SetMem64.obj
 0001:000000a0       InternalMemSetMem32        0000000000000360     BaseMemoryLibRepStr:SetMem32.obj
 0001:000000c0       CpuPause                   0000000000000380     BaseLib:CpuPause.obj
 0001:000000c4       _ModuleEntryPoint          0000000000000384 f   UefiDriverEntryPoint:DriverEntryPoint.obj
 0001:000000fc       ProcessLibraryConstructorList 00000000000003bc f   UfsPlatform:AutoGen.obj
 0001:000002f0       UfsWaitMemSet              00000000000005b0 f   UfsPlatform:UfsPlatform.obj
 0001:00000384       UfsActivateAllLanes        0000000000000644 f   UfsPlatform:UfsPlatform.obj
 0001:000005b4       UfsDumpLinkConfig          0000000000000874 f   UfsPlatform:UfsPlatform.obj
 0001:00000ea0       UfsHcPlatformOverrideHcInfo 0000000000001160 f   UfsPlatform:UfsPlatform.obj
 0001:00000ea4       UfsPwmGearSwitch           0000000000001164 f   UfsPlatform:UfsPlatform.obj
 0001:000010b0       UfsHsRecipieProgramming    0000000000001370 f   UfsPlatform:UfsPlatform.obj
 0001:0000126c       UfsPowerModeAndGearSwitch  000000000000152c f   UfsPlatform:UfsPlatform.obj
 0001:000017e4       UfsHcPlatformPostHceSwithGear 0000000000001aa4 f   UfsPlatform:UfsPlatform.obj
 0001:000018cc       UfsHcPlatformCallback      0000000000001b8c f   UfsPlatform:UfsPlatform.obj
 0001:0000198c       DebugPrint                 0000000000001c4c f   BaseDebugLibSerialPort:DebugLib.obj
 0001:000019b0       DebugPrintMarker           0000000000001c70 f   BaseDebugLibSerialPort:DebugLib.obj
 0001:00001a48       DebugAssert                0000000000001d08 f   BaseDebugLibSerialPort:DebugLib.obj
 0001:00001ac8       PlatformHookSerialPortInitialize 0000000000001d88 f   PlatformHookLib:PlatformHookLib.obj
 0001:00001b94       GetHobList                 0000000000001e54 f   DxeHobLib:HobLib.obj
 0001:00001cac       GetNextHob                 0000000000001f6c f   DxeHobLib:HobLib.obj
 0001:00001d04       AcpiTimerLibConstructor    0000000000001fc4 f   AcpiTimerLib:AcpiTimerLib.obj
 0001:00001d74       InternalAcpiDelay          0000000000002034 f   AcpiTimerLib:AcpiTimerLib.obj
 0001:00001dec       CopyMem                    00000000000020ac f   BaseMemoryLibRepStr:CopyMemWrapper.obj
 0001:00001e80       CompareGuid                0000000000002140 f   BaseMemoryLibRepStr:MemLibGuid.obj
 0001:00001f78       AsciiStrLen                0000000000002238 f   BaseLib:String.obj
 0001:00001ff8       StrnLenS                   00000000000022b8 f   BaseLib:SafeString.obj
 0001:00002058       IoRead32                   0000000000002318 f   BaseIoLibIntrinsic:IoLibMsc.obj
 0001:00002098       SerialPortReadRegister     0000000000002358 f   BaseSerialPortLib16550:BaseSerialPortLib16550.obj
 0001:000020cc       SerialPortWriteRegister    000000000000238c f   BaseSerialPortLib16550:BaseSerialPortLib16550.obj
 0001:00002108       SerialPortInitialize       00000000000023c8 f   BaseSerialPortLib16550:BaseSerialPortLib16550.obj
 0001:000022cc       SerialPortWrite            000000000000258c f   BaseSerialPortLib16550:BaseSerialPortLib16550.obj
 0001:0000241c       AsciiSPrint                00000000000026dc f   BasePrintLib:PrintLib.obj
 0001:00002448       BasePrintLibFillBuffer     0000000000002708 f   BasePrintLib:PrintLibInternal.obj
 0001:0000247c       BasePrintLibValueToString  000000000000273c f   BasePrintLib:PrintLibInternal.obj
 0001:000024f0       BasePrintLibSPrintMarker   00000000000027b0 f   BasePrintLib:PrintLibInternal.obj
 0001:000034f0       BasePrintLibSPrint         00000000000037b0 f   BasePrintLib:PrintLibInternal.obj
 0001:00003514       GetGuidHobDataFromSbl      00000000000037d4 f   SblParseLib:SblParseLib.obj
 0001:000035e0       MmioRead32                 00000000000038a0 f   BaseIoLibIntrinsic:IoLib.obj
 0001:00003618       PciExpressRead32           00000000000038d8 f   BasePciExpressLib:PciExpressLib.obj
 0001:00003668       GetPcdProtocol             0000000000003928 f   DxePcdLib:DxePcdLib.obj
 0002:00000000       ??_C@_0CB@DMEJJJHA@?6ASSERT_EFI_ERROR?5?$CIStatus?5?$DN?5?$CFr?$CJ@ 00000000000039e0     UefiDriverEntryPoint:DriverEntryPoint.obj
 0002:00000028       ??_C@_0BE@DCHLEIGN@?$CBEFI_ERROR?5?$CIStatus?$CJ@ 0000000000003a08     UefiDriverEntryPoint:DriverEntryPoint.obj
 0002:00000040       ??_C@_0M@DPJIEGAE@UfsPlatform@ 0000000000003a20     UfsPlatform:AutoGen.obj
 0002:00000050       ??_C@_0CE@IBFOBMLB@?6ASSERT_RETURN_ERROR?5?$CIStatus?5?$DN?5@ 0000000000003a30     UfsPlatform:AutoGen.obj
 0002:00000078       ??_C@_0BH@BACADMEC@?$CBRETURN_ERROR?5?$CIStatus?$CJ@ 0000000000003a58     UfsPlatform:AutoGen.obj
 0002:00000090       ??_C@_0IF@KLDOMJHP@e?3?2code?2adl_n100_code?2uefipldpl@ 0000000000003a70     UfsPlatform:AutoGen.obj
 0002:00000118       ??_C@_0DJ@BMPNEELO@Failed?5to?5Get?5UfsUicDmeGet?5PA_C@ 0000000000003af8     UfsPlatform:UfsPlatform.obj
 0002:00000158       ??_C@_0DG@PGCBJFIE@Failed?5to?5Get?5UfsUicDmeGet?5PA_A@ 0000000000003b38     UfsPlatform:UfsPlatform.obj
 0002:00000190       ??_C@_0EP@EGCGCI@UfsActivateAllLanes?5?3?5PA_Active@ 0000000000003b70     UfsPlatform:UfsPlatform.obj
 0002:000001e0       ??_C@_0CE@EHJJINIO@Failed?5to?5set?5active?5Rx?5data?5la@ 0000000000003bc0     UfsPlatform:UfsPlatform.obj
 0002:00000208       ??_C@_0DI@LJKPEOGP@Failed?5to?5Get?5UfsUicDmeGet?5PA_C@ 0000000000003be8     UfsPlatform:UfsPlatform.obj
 0002:00000240       ??_C@_0DG@PIFNCJAB@Failed?5to?5Get?5UfsUicDmeGet?5PA_A@ 0000000000003c20     UfsPlatform:UfsPlatform.obj
 0002:00000280       ??_C@_0EP@IDJOPAGF@UfsActivateAllLanes?5?3?5PA_Active@ 0000000000003c60     UfsPlatform:UfsPlatform.obj
 0002:000002d0       ??_C@_0CE@GFGDFJHM@Failed?5to?5set?5active?5Tx?5data?5la@ 0000000000003cb0     UfsPlatform:UfsPlatform.obj
 0002:000002f8       ??_C@_0BK@PLMCEMEN@UfsDumpLinkConfig?5Entry?5?6@ 0000000000003cd8     UfsPlatform:UfsPlatform.obj
 0002:00000318       ??_C@_0DH@IDKNFGPJ@Failed?5to?5Get?5UfsUicDmeGet?5PA_L@ 0000000000003cf8     UfsPlatform:UfsPlatform.obj
 0002:00000350       ??_C@_0CP@PEJNEMDD@UfsUicDmeGet?5PA_Local_TX_LCC_En@ 0000000000003d30     UfsPlatform:UfsPlatform.obj
 0002:00000380       ??_C@_0CP@NICLKNOC@Failed?5to?5Get?5UfsUicDmeGet?5PA_M@ 0000000000003d60     UfsPlatform:UfsPlatform.obj
 0002:000003b0       ??_C@_0CH@LEEGNKEK@UfsUicDmeGet?5PA_MaxRxHSGear?$CI?$CFx?$CJ@ 0000000000003d90     UfsPlatform:UfsPlatform.obj
 0002:000003d8       ??_C@_0DD@GEHCDNCK@Failed?5to?5Get?5UfsUicDmePeerGet?5@ 0000000000003db8     UfsPlatform:UfsPlatform.obj
 0002:00000410       ??_C@_0CL@DBMMBFMG@UfsUicDmePeerGet?5PA_MaxRxHSGear@ 0000000000003df0     UfsPlatform:UfsPlatform.obj
 0002:00000440       ??_C@_0DA@ONOMNMDF@Failed?5to?5Get?5UfsUicDmeGet?5PA_M@ 0000000000003e20     UfsPlatform:UfsPlatform.obj
 0002:00000470       ??_C@_0CI@OBLKDGDF@UfsUicDmeGet?5PA_MaxRxPWMGear?$CI?$CFx@ 0000000000003e50     UfsPlatform:UfsPlatform.obj
 0002:00000498       ??_C@_0DE@HIOPMPCH@Failed?5to?5Get?5UfsUicDmePeerGet?5@ 0000000000003e78     UfsPlatform:UfsPlatform.obj
 0002:000004d0       ??_C@_0CM@FDBHDPB@UfsUicDmePeerGet?5PA_MaxRxPWMGea@ 0000000000003eb0     UfsPlatform:UfsPlatform.obj
 0002:00000500       ??_C@_0DE@MOPNOGAL@Failed?5to?5Get?5UfsUicDmeGet?5PA_A@ 0000000000003ee0     UfsPlatform:UfsPlatform.obj
 0002:00000538       ??_C@_0CM@ICENOGHP@UfsUicDmeGet?5PA_AvailTxDataLane@ 0000000000003f18     UfsPlatform:UfsPlatform.obj
 0002:00000568       ??_C@_0DE@GJMJFBAD@Failed?5to?5Get?5UfsUicDmeGet?5PA_A@ 0000000000003f48     UfsPlatform:UfsPlatform.obj
 0002:000005a0       ??_C@_0CM@GPIHJEAF@UfsUicDmeGet?5PA_AvailRxDataLane@ 0000000000003f80     UfsPlatform:UfsPlatform.obj
 0002:000005d0       ??_C@_0DA@BEMCOGBK@UfsUicDmeGet?5PA_ConnectedTxData@ 0000000000003fb0     UfsPlatform:UfsPlatform.obj
 0002:00000600       ??_C@_0DI@BOJLPJGH@Failed?5to?5Get?5UfsUicDmeGet?5PA_C@ 0000000000003fe0     UfsPlatform:UfsPlatform.obj
 0002:00000638       ??_C@_0DA@PJAIJEGA@UfsUicDmeGet?5PA_ConnectedRxData@ 0000000000004018     UfsPlatform:UfsPlatform.obj
 0002:00000668       ??_C@_0DF@LADJENOL@Failed?5to?5Get?5UfsUicDmeGet?5PA_A@ 0000000000004048     UfsPlatform:UfsPlatform.obj
 0002:000006a0       ??_C@_0CN@IGODOFEM@UfsUicDmeGet?5PA_ActiveTxDataLan@ 0000000000004080     UfsPlatform:UfsPlatform.obj
 0002:000006d0       ??_C@_0DF@BHANPKOD@Failed?5to?5Get?5UfsUicDmeGet?5PA_A@ 00000000000040b0     UfsPlatform:UfsPlatform.obj
 0002:00000708       ??_C@_0CN@GLCJJHDG@UfsUicDmeGet?5PA_ActiveRxDataLan@ 00000000000040e8     UfsPlatform:UfsPlatform.obj
 0002:00000738       ??_C@_0CP@KKANPDMD@Failed?5to?5Get?5UfsUicDmeGet?5PA_T@ 0000000000004118     UfsPlatform:UfsPlatform.obj
 0002:00000768       ??_C@_0CH@CNLJDBKP@UfsUicDmeGet?5PA_TxPWRStatus?$CI?$CFx?$CJ@ 0000000000004148     UfsPlatform:UfsPlatform.obj
 0002:00000790       ??_C@_0CP@NDJEEML@Failed?5to?5Get?5UfsUicDmeGet?5PA_R@ 0000000000004170     UfsPlatform:UfsPlatform.obj
 0002:000007c0       ??_C@_0CH@MAHDEDNF@UfsUicDmeGet?5PA_RxPWRStatus?$CI?$CFx?$CJ@ 00000000000041a0     UfsPlatform:UfsPlatform.obj
 0002:000007e8       ??_C@_0DL@BHHCEHKJ@Failed?5to?5Get?5UfsUicDmeGet?5DL_F@ 00000000000041c8     UfsPlatform:UfsPlatform.obj
 0002:00000828       ??_C@_0DD@MIOPDNIP@UfsUicDmeGet?5DL_FC0ProtectionTi@ 0000000000004208     UfsPlatform:UfsPlatform.obj
 0002:00000860       ??_C@_0DH@HALLAJOK@Failed?5to?5Get?5UfsUicDmeGet?5DL_T@ 0000000000004240     UfsPlatform:UfsPlatform.obj
 0002:00000898       ??_C@_0CP@JGMKBNG@UfsUicDmeGet?5DL_TC0ReplayTimeOu@ 0000000000004278     UfsPlatform:UfsPlatform.obj
 0002:000008c8       ??_C@_0DF@GIFLODLG@Failed?5to?5Get?5UfsUicDmeGet?5DL_A@ 00000000000042a8     UfsPlatform:UfsPlatform.obj
 0002:00000900       ??_C@_0CN@OLFBIEJC@UfsUicDmeGet?5DL_AFC0ReqTimeOutV@ 00000000000042e0     UfsPlatform:UfsPlatform.obj
 0002:00000930       ??_C@_0CK@KENBDNDJ@Failed?5to?5Get?5UfsUicDmeGet?5PA_T@ 0000000000004310     UfsPlatform:UfsPlatform.obj
 0002:00000960       ??_C@_0CC@COIDKOCJ@UfsUicDmeGet?5PA_TXGear?$CI?$CFx?$CJ?5?$DN?5?$CFx@ 0000000000004340     UfsPlatform:UfsPlatform.obj
 0002:00000988       ??_C@_0DB@BAGIFDN@Failed?5to?5Get?5UfsUicDmeGet?5PA_T@ 0000000000004368     UfsPlatform:UfsPlatform.obj
 0002:000009c0       ??_C@_0CJ@NDOFNOMM@UfsUicDmeGet?5PA_TxTermination?$CI?$CF@ 00000000000043a0     UfsPlatform:UfsPlatform.obj
 0002:000009f0       ??_C@_0CM@CHNGFEOJ@Failed?5to?5Get?5UfsUicDmeGet?5PA_H@ 00000000000043d0     UfsPlatform:UfsPlatform.obj
 0002:00000a20       ??_C@_0CE@NBGHGJJE@UfsUicDmeGet?5PA_HSSeries?$CI?$CFx?$CJ?5?$DN?5@ 0000000000004400     UfsPlatform:UfsPlatform.obj
 0002:00000a48       ??_C@_0CK@ELOMJINJ@Failed?5to?5Get?5UfsUicDmeGet?5PA_R@ 0000000000004428     UfsPlatform:UfsPlatform.obj
 0002:00000a78       ??_C@_0CC@CAPPBCKM@UfsUicDmeGet?5PA_RXGear?$CI?$CFx?$CJ?5?$DN?5?$CFx@ 0000000000004458     UfsPlatform:UfsPlatform.obj
 0002:00000aa0       ??_C@_0DB@JMNKIOCO@Failed?5to?5Get?5UfsUicDmeGet?5PA_R@ 0000000000004480     UfsPlatform:UfsPlatform.obj
 0002:00000ad8       ??_C@_0CJ@LIDOLCGK@UfsUicDmeGet?5PA_RxTermination?$CI?$CF@ 00000000000044b8     UfsPlatform:UfsPlatform.obj
 0002:00000b08       ??_C@_0BJ@JCEHPFDP@UfsDumpLinkConfig?5Exit?5?6@ 00000000000044e8     UfsPlatform:UfsPlatform.obj
 0002:00000b28       ??_C@_0DL@DBFKGHCP@UfsPwmGearSwitch?3?5Failed?5to?5act@ 0000000000004508     UfsPlatform:UfsPlatform.obj
 0002:00000b70       ??_C@_0ED@NLJBPGJM@UfsPwmGearSwitch?3?5Failed?5to?5Get@ 0000000000004550     UfsPlatform:UfsPlatform.obj
 0002:00000bc0       ??_C@_0EH@NBPOEAGH@UfsPwmGearSwitch?3?5Failed?5to?5Get@ 00000000000045a0     UfsPlatform:UfsPlatform.obj
 0002:00000c08       ??_C@_0DJ@BAEPIBCH@UfsPwmGearSwitch?3?5Failed?5to?5set@ 00000000000045e8     UfsPlatform:UfsPlatform.obj
 0002:00000c48       ??_C@_0DJ@GDFFPIKN@UfsPwmGearSwitch?3?5Failed?5to?5set@ 0000000000004628     UfsPlatform:UfsPlatform.obj
 0002:00000c88       ??_C@_0DB@LPPKOHFJ@UfsPwmGearSwitch?3?5Failed?5to?5set@ 0000000000004668     UfsPlatform:UfsPlatform.obj
 0002:00000cc0       ??_C@_0CP@BNGHJJP@UfsPwmGearSwitch?3?5Failed?5to?5swi@ 00000000000046a0     UfsPlatform:UfsPlatform.obj
 0002:00000cf0       ??_C@_0DE@EFOLKLEG@Failed?5to?5set?5active?5FC0?5protec@ 00000000000046d0     UfsPlatform:UfsPlatform.obj
 0002:00000d28       ??_C@_0DA@IEMKEKJJ@Failed?5to?5set?5active?5TC0?5replay@ 0000000000004708     UfsPlatform:UfsPlatform.obj
 0002:00000d58       ??_C@_0CO@GDFCNLO@Failed?5to?5set?5active?5AFC0?5req?5t@ 0000000000004738     UfsPlatform:UfsPlatform.obj
 0002:00000d88       ??_C@_0BJ@IINEOAIE@Failed?5to?5enable?5rate?5B?6@ 0000000000004768     UfsPlatform:UfsPlatform.obj
 0002:00000da8       ??_C@_0CB@NKHCKFBF@Failed?5to?5enable?5Rx?5termination@ 0000000000004788     UfsPlatform:UfsPlatform.obj
 0002:00000dd0       ??_C@_0CB@IJODMMPB@Failed?5to?5enable?5Tx?5termination@ 00000000000047b0     UfsPlatform:UfsPlatform.obj
 0002:00000df8       ??_C@_0CD@LNPKMPFF@UfsPowerModeAndGearSwitch?5Entry@ 00000000000047d8     UfsPlatform:UfsPlatform.obj
 0002:00000e20       ??_C@_0BO@LBMMLOKB@Failed?5to?5Program?5UFS?5Lanes?5?6@ 0000000000004800     UfsPlatform:UfsPlatform.obj
 0002:00000e40       ??_C@_0DA@IBOJIDEF@Failed?5to?5Get?5UfsUicDmeGet?5PA_M@ 0000000000004820     UfsPlatform:UfsPlatform.obj
 0002:00000e70       ??_C@_0DF@GKEHHBBI@Failed?5to?5Get?5UfsUicDmePeerGet?5@ 0000000000004850     UfsPlatform:UfsPlatform.obj
 0002:00000ea8       ??_C@_0DE@BEOKJAFH@Failed?5to?5Get?5UfsUicDmePeerGet?5@ 0000000000004888     UfsPlatform:UfsPlatform.obj
 0002:00000ee0       ??_C@_0BM@EJOCCPHO@PowerMode?$FLUfsRxLane?$FN?5?$DN?5?$CFx?5?6@ 00000000000048c0     UfsPlatform:UfsPlatform.obj
 0002:00000f00       ??_C@_0BM@GLBIPLIM@PowerMode?$FLUfsTxLane?$FN?5?$DN?5?$CFx?5?6@ 00000000000048e0     UfsPlatform:UfsPlatform.obj
 0002:00000f20       ??_C@_0BM@BOOKFFJN@MaxHsGear?$FLUfsRxLane?$FN?5?$DN?5?$CFx?5?6@ 0000000000004900     UfsPlatform:UfsPlatform.obj
 0002:00000f40       ??_C@_0BM@DMBAIBGP@MaxHsGear?$FLUfsTxLane?$FN?5?$DN?5?$CFx?5?6@ 0000000000004920     UfsPlatform:UfsPlatform.obj
 0002:00000f60       ??_C@_0BN@HLLCPEAD@MaxPwmGear?$FLUfsRxLane?$FN?5?$DN?5?$CFx?5?6@ 0000000000004940     UfsPlatform:UfsPlatform.obj
 0002:00000f80       ??_C@_0BN@FJEICAPB@MaxPwmGear?$FLUfsTxLane?$FN?5?$DN?5?$CFx?5?6@ 0000000000004960     UfsPlatform:UfsPlatform.obj
 0002:00000fa0       ??_C@_0CH@OJCCANGC@Failed?5to?5set?5UfsUicDmeSet?5PA_R@ 0000000000004980     UfsPlatform:UfsPlatform.obj
 0002:00000fc8       ??_C@_0BK@CNOCMCIG@Limited?5MaxHsGear?5to?5?$CFx?5?6@ 00000000000049a8     UfsPlatform:UfsPlatform.obj
 0002:00000ff0       ??_C@_0EF@FADNHGGJ@CurrentHsGear?$FLUfsRxLane?$FN?5?$DN?5?$CFx?5s@ 00000000000049d0     UfsPlatform:UfsPlatform.obj
 0002:00001038       ??_C@_0CH@JKDIHEOI@Failed?5to?5set?5UfsUicDmeSet?5PA_T@ 0000000000004a18     UfsPlatform:UfsPlatform.obj
 0002:00001060       ??_C@_0CH@JNHOIHHH@Failed?5to?5Get?5UfsUicDmeSet?5PA_T@ 0000000000004a40     UfsPlatform:UfsPlatform.obj
 0002:00001090       ??_C@_0EF@FPADKHNL@CurrentHsGear?$FLUfsTxLane?$FN?5?$DN?5?$CFx?5s@ 0000000000004a70     UfsPlatform:UfsPlatform.obj
 0002:000010d8       ??_C@_0CM@CCNAFJJM@UfsHsRecipieProgramming?5Fails?0?5@ 0000000000004ab8     UfsPlatform:UfsPlatform.obj
 0002:00001108       ??_C@_0BP@GBLCLEEL@Failed?5to?5set?5PA_PWRMode?$CI?$CFx?$CJ?5?6@ 0000000000004ae8     UfsPlatform:UfsPlatform.obj
 0002:00001128       ??_C@_0BN@HFHANMIN@Failed?5to?5switch?5power?5mode?6@ 0000000000004b08     UfsPlatform:UfsPlatform.obj
 0002:00001148       ??_C@_0DB@IADLGHPK@Dump?5LinkConfig?5After?5UfsPowerM@ 0000000000004b28     UfsPlatform:UfsPlatform.obj
 0002:00001180       ??_C@_0BL@DLKMAFMH@Failed?5to?5Dump?5LinkConfig?6@ 0000000000004b60     UfsPlatform:UfsPlatform.obj
 0002:000011a0       ??_C@_0CA@GIFBHJKJ@UfsPowerModeAndGearSwitch?5Exit?6@ 0000000000004b80     UfsPlatform:UfsPlatform.obj
 0002:000011c0       ??_C@_0CF@KJKEIHJI@UfsHcPlatformPostHceSwithGear?5E@ 0000000000004ba0     UfsPlatform:UfsPlatform.obj
 0002:000011e8       ??_C@_0DM@DENBBODN@UfsHcPlatformPostHceSwithGear?5U@ 0000000000004bc8     UfsPlatform:UfsPlatform.obj
 0002:00001228       ??_C@_0CF@HILHMIGJ@UfsPwmGearSwitch?5Fails?0?5Status?5@ 0000000000004c08     UfsPlatform:UfsPlatform.obj
 0002:00001250       ??_C@_0CO@OILIIEAH@UfsPowerModeAndGearSwitch?5Fails@ 0000000000004c30     UfsPlatform:UfsPlatform.obj
 0002:00001280       ??_C@_0CE@LFLAJJBF@UfsHcPlatformPostHceSwithGear?5E@ 0000000000004c60     UfsPlatform:UfsPlatform.obj
 0002:000012a8       ??_C@_0N@KGHEHMDL@Divisor?5?$CB?$DN?50@ 0000000000004c88     BaseLib:DivU64x32.obj
 0002:000012b8       ??_C@_0BH@LKMBFCBF@Format?5?$CB?$DN?5?$CI?$CIvoid?5?$CK?$CJ?50?$CJ@ 0000000000004c98     BaseDebugLibSerialPort:DebugLib.obj
 0002:000012d0       ??_C@_0GA@HBBJHLGK@e?3?2code?2adl_n100_code?2uefipldpl@ 0000000000004cb0     BaseDebugLibSerialPort:DebugLib.obj
 0002:00001330       ??_C@_0BI@NOCKJDBJ@ASSERT?5?$FL?$CFa?$FN?5?$CFa?$CI?$CFd?$CJ?3?5?$CFa?6@ 0000000000004d10     BaseDebugLibSerialPort:DebugLib.obj
 0002:00001348       ??_C@_0BH@IACGKAP@Buffer?5?$CB?$DN?5?$CI?$CIvoid?5?$CK?$CJ?50?$CJ@ 0000000000004d28     BaseDebugLibSerialPort:DebugLib.obj
 0002:00001360       ??_C@_0BN@COECPDCC@gImageHandle?5?$CB?$DN?5?$CI?$CIvoid?5?$CK?$CJ?50?$CJ@ 0000000000004d40     UefiBootServicesTableLib:UefiBootServicesTableLib.obj
 0002:00001380       ??_C@_0HC@EIFDGPFB@e?3?2code?2adl_n100_code?2uefipldpl@ 0000000000004d60     UefiBootServicesTableLib:UefiBootServicesTableLib.obj
 0002:000013f8       ??_C@_0BE@DGNHAHIL@gST?5?$CB?$DN?5?$CI?$CIvoid?5?$CK?$CJ?50?$CJ@ 0000000000004dd8     UefiBootServicesTableLib:UefiBootServicesTableLib.obj
 0002:00001410       ??_C@_0BE@BDFJLGLN@gBS?5?$CB?$DN?5?$CI?$CIvoid?5?$CK?$CJ?50?$CJ@ 0000000000004df0     UefiBootServicesTableLib:UefiBootServicesTableLib.obj
 0002:00001428       ??_C@_0BE@OBDFIHND@gRT?5?$CB?$DN?5?$CI?$CIvoid?5?$CK?$CJ?50?$CJ@ 0000000000004e08     UefiRuntimeServicesTableLib:UefiRuntimeServicesTableLib.obj
 0002:00001440       ??_C@_0HI@DCCKLNND@e?3?2code?2adl_n100_code?2uefipldpl@ 0000000000004e20     UefiRuntimeServicesTableLib:UefiRuntimeServicesTableLib.obj
 0002:000014c0       ??_C@_0FB@KBFNGELC@e?3?2code?2adl_n100_code?2uefipldpl@ 0000000000004ea0     DxeHobLib:HobLib.obj
 0002:00001518       ??_C@_0BJ@OBFMLLDO@mHobList?5?$CB?$DN?5?$CI?$CIvoid?5?$CK?$CJ?50?$CJ@ 0000000000004ef8     DxeHobLib:HobLib.obj
 0002:00001538       ??_C@_0BJ@NOLLDKJB@HobStart?5?$CB?$DN?5?$CI?$CIvoid?5?$CK?$CJ?50?$CJ@ 0000000000004f18     DxeHobLib:HobLib.obj
 0002:00001558       ??_C@_0BC@FEDIJHFF@?$CI?$CIBOOLEAN?$CJ?$CI0?$DN?$DN1?$CJ?$CJ@ 0000000000004f38     DxeHobLib:HobLib.obj
 0002:00001570       ??_C@_0BI@EDOKPJOP@GuidHob?5?$CB?$DN?5?$CI?$CIvoid?5?$CK?$CJ?50?$CJ@ 0000000000004f50     AcpiTimerLib:AcpiTimerLib.obj
 0002:00001590       ??_C@_0GC@KBKBDNKG@e?3?2code?2adl_n100_code?2uefipldpl@ 0000000000004f70     AcpiTimerLib:AcpiTimerLib.obj
 0002:00001600       ??_C@_0ED@MKGCMJG@?$CILength?5?9?51?$CJ?5?$DM?$DN?5?$CI0xFFFFFFFFFFFF@ 0000000000004fe0     BaseMemoryLibRepStr:CopyMemWrapper.obj
 0002:00001650       ??_C@_0GD@KEIKLFBO@e?3?2code?2adl_n100_code?2uefipldpl@ 0000000000005030     BaseMemoryLibRepStr:CopyMemWrapper.obj
 0002:000016b8       ??_C@_0DO@MAOBOFEG@?$CILength?5?9?51?$CJ?5?$DM?$DN?5?$CI0xFFFFFFFFFFFF@ 0000000000005098     BaseMemoryLibRepStr:CopyMemWrapper.obj
 0002:00001700       ??_C@_0EP@EKIACOFF@e?3?2code?2adl_n100_code?2uefipldpl@ 00000000000050e0     BaseLib:String.obj
 0002:00001750       ??_C@_0BH@MAAHKCPC@String?5?$CB?$DN?5?$CI?$CIvoid?5?$CK?$CJ?50?$CJ@ 0000000000005130     BaseLib:String.obj
 0002:00001768       ??_C@_0CD@BDCLIGHD@?$CI?$CIUINTN?$CJ?5String?5?$CG?50x00000001?$CJ?5?$DN@ 0000000000005148     BaseLib:String.obj
 0002:00001790       ??_C@_0DI@MDIKFADO@Length?5?$DM?5_gPcd_FixedAtBuild_Pcd@ 0000000000005170     BaseLib:String.obj
 0002:000017d0       ??_C@_0FC@OLDIOFBJ@e?3?2code?2adl_n100_code?2uefipldpl@ 00000000000051b0     BaseLib:Unaligned.obj
 0002:00001830       ??_C@_0FD@GHHGINGE@e?3?2code?2adl_n100_code?2uefipldpl@ 0000000000005210     BaseLib:SafeString.obj
 0002:00001890       ??_C@_0FM@GDLDJIBH@e?3?2code?2adl_n100_code?2uefipldpl@ 0000000000005270     BaseIoLibIntrinsic:IoLibMsc.obj
 0002:000018f0       ??_C@_0BA@HCECIDGN@?$CIPort?5?$CG?53?$CJ?5?$DN?$DN?50@ 00000000000052d0     BaseIoLibIntrinsic:IoLibMsc.obj
 0002:00001900       ??_C@_0FO@GLOLNBHK@e?3?2code?2adl_n100_code?2uefipldpl@ 00000000000052e0     BasePrintLib:PrintLibInternal.obj
 0002:00001960       ??_C@_0BJ@CNKJJNE@?$CIBuffer?5?$CB?$DN?5?$CI?$CIvoid?5?$CK?$CJ?50?$CJ?$CJ@ 0000000000005340     BasePrintLib:PrintLibInternal.obj
 0002:00001980       ??_C@_0EB@HDGIDCIO@?$CIBufferSize?5?$DM?$DN?5?$CI_gPcd_FixedAtBu@ 0000000000005360     BasePrintLib:PrintLibInternal.obj
 0002:000019c8       ??_C@_0BJ@PPAKKDJG@?$CIFormat?5?$CB?$DN?5?$CI?$CIvoid?5?$CK?$CJ?50?$CJ?$CJ@ 00000000000053a8     BasePrintLib:PrintLibInternal.obj
 0002:000019f0       ??_C@_0ED@LPDDCECB@?$CIBufferSize?5?$DM?$DN?5?$CI_gPcd_FixedAtBu@ 00000000000053d0     BasePrintLib:PrintLibInternal.obj
 0002:00001a40       ??_C@_0IM@BFJJFLGB@?$CIStrnLenS?5?$CI?$CICHAR16?5?$CK?$CJFormat?0?5?$CI_@ 0000000000005420     BasePrintLib:PrintLibInternal.obj
 0002:00001ad0       ??_C@_0ID@PLGJGION@?$CIAsciiStrnLenS?5?$CIFormat?0?5?$CI_gPcd_@ 00000000000054b0     BasePrintLib:PrintLibInternal.obj
 0002:00001b58       ??_C@_0O@MLOLIMFM@?$DMnull?5string?$DO@ 0000000000005538     BasePrintLib:PrintLibInternal.obj
 0002:00001b68       ??_C@_0M@BJJDNPHK@?$DMnull?5guid?$DO@ 0000000000005548     BasePrintLib:PrintLibInternal.obj
 0002:00001b78       ??_C@_0DB@PMLHLBMO@?$CF08x?9?$CF04x?9?$CF04x?9?$CF02x?$CF02x?9?$CF02x?$CF02@ 0000000000005558     BasePrintLib:PrintLibInternal.obj
 0002:00001bb0       ??_C@_0M@LHGBCIKM@?$DMnull?5time?$DO@ 0000000000005590     BasePrintLib:PrintLibInternal.obj
 0002:00001bc0       ??_C@_0BK@FCPKCIDD@?$CF02d?1?$CF02d?1?$CF04d?5?5?$CF02d?3?$CF02d@ 00000000000055a0     BasePrintLib:PrintLibInternal.obj
 0002:00001bdc       ??_C@_04JIMNDDED@?$CF08X@  00000000000055bc     BasePrintLib:PrintLibInternal.obj
 0002:00001be4       ??_C@_02PCIJFNDE@?$AN?6@   00000000000055c4     BasePrintLib:PrintLibInternal.obj
 0002:00001be8       ??_C@_01LIIJDEN@?$AN@      00000000000055c8     BasePrintLib:PrintLibInternal.obj
 0002:00001bf0       mWarningString             00000000000055d0     BasePrintLib:PrintLibInternal.obj
 0002:00001c90       mErrorString               0000000000005670     BasePrintLib:PrintLibInternal.obj
 0002:00001f50       mHexStr                    0000000000005930     BasePrintLib:PrintLibInternal.obj
 0002:00001f60       ??_C@_0HM@INGECGBC@e?3?2code?2adl_n100_code?2uefipldpl@ 0000000000005940     SblParseLib:SblParseLib.obj
 0002:00001fe0       ??_C@_0BF@GKGPMHBK@HandoffTable?5?$DN?50x?$CFp?6@ 00000000000059c0     SblParseLib:SblParseLib.obj
 0002:00001ff8       ??_C@_0BO@JGHCOEDD@?6?6ERROR?5?5the?5hob?5check?5fail?4?6@ 00000000000059d8     SblParseLib:SblParseLib.obj
 0002:00002018       ??_C@_0BI@NCGMODPG@HobList?5?$CB?$DN?5?$CI?$CIvoid?5?$CK?$CJ?50?$CJ@ 00000000000059f8     SblParseLib:SblParseLib.obj
 0002:00002030       ??_C@_0FL@HLNNCKBP@e?3?2code?2adl_n100_code?2uefipldpl@ 0000000000005a10     BaseLib:DivU64x32Remainder.obj
 0002:00002090       ??_C@_0FJ@GBGHCPBH@e?3?2code?2adl_n100_code?2uefipldpl@ 0000000000005a70     BaseIoLibIntrinsic:IoLib.obj
 0002:000020f0       ??_C@_0BD@OMMAJMCK@?$CIAddress?5?$CG?53?$CJ?5?$DN?$DN?50@ 0000000000005ad0     BaseIoLibIntrinsic:IoLib.obj
 0002:00002108       ??_C@_0BO@BAKALPJK@?$CI?$CIAddress?$CJ?5?$CG?5?$HO0xfffffff?$CJ?5?$DN?$DN?50@ 0000000000005ae8     BasePciExpressLib:PciExpressLib.obj
 0002:00002130       ??_C@_0GA@NDAEIBGJ@e?3?2code?2adl_n100_code?2uefipldpl@ 0000000000005b10     BasePciExpressLib:PciExpressLib.obj
 0002:00002190       ??_C@_0FE@EJOAIEGJ@e?3?2code?2adl_n100_code?2uefipldpl@ 0000000000005b70     DxePcdLib:DxePcdLib.obj
 0002:000021e8       ??_C@_0BF@OOKDELHM@mPcd?5?$CB?$DN?5?$CI?$CIvoid?5?$CK?$CJ?50?$CJ@ 0000000000005bc8     DxePcdLib:DxePcdLib.obj
 0002:00002254       __volatile_metadata        0000000000005c34     <linker-defined>
 0003:00000000       gUefiSerialPortInfoGuid    00000000000060a0     UfsPlatform:AutoGen.obj
 0003:00000010       gPcdProtocolGuid           00000000000060b0     UfsPlatform:AutoGen.obj
 0003:00000020       _gPcd_BinaryPatch_PcdPciSerialParameters 00000000000060c0     UfsPlatform:AutoGen.obj
 0003:00000040       gEfiPciIoProtocolGuid      00000000000060e0     UfsPlatform:AutoGen.obj
 0003:00000050       gUefiAcpiBoardInfoGuid     00000000000060f0     UfsPlatform:AutoGen.obj
 0003:00000060       _gPcd_BinaryPatch_PcdSerialLineControl 0000000000006100     UfsPlatform:AutoGen.obj
 0003:00000061       _gPcd_BinaryPatch_PcdSerialUseMmio 0000000000006101     UfsPlatform:AutoGen.obj
 0003:00000064       _gPcd_BinaryPatch_PcdDebugPrintErrorLevel 0000000000006104     UfsPlatform:AutoGen.obj
 0003:00000068       _gPcd_BinaryPatch_PcdDebugPropertyMask 0000000000006108     UfsPlatform:AutoGen.obj
 0003:00000070       gEfiHobListGuid            0000000000006110     UfsPlatform:AutoGen.obj
 0003:00000080       gEdkiiUfsHcPlatformProtocolGuid 0000000000006120     UfsPlatform:AutoGen.obj
 0003:00000090       _gPcd_BinaryPatch_PcdSerialFifoControl 0000000000006130     UfsPlatform:AutoGen.obj
 0003:00000094       _gPcd_BinaryPatch_PcdSerialExtendedTxFifoSize 0000000000006134     UfsPlatform:AutoGen.obj
 0003:00000098       gEdkiiUfsHcPlatformProtocol 0000000000006138     UfsPlatform:UfsPlatform.obj
 0003:000000b0       _gPcd_BinaryPatch_PcdSerialRegisterBase 0000000000006150     UfsPlatform:AutoGen.obj
 0003:000000b8       _gPcd_BinaryPatch_PcdSerialRegisterStride 0000000000006158     UfsPlatform:AutoGen.obj
 0003:000000bc       _gPcd_BinaryPatch_PcdSerialDetectCable 000000000000615c     UfsPlatform:AutoGen.obj
 0003:000000bd       _gPcd_BinaryPatch_PcdSerialUseHardwareFlowControl 000000000000615d     UfsPlatform:AutoGen.obj
 0003:000000c0       _gPcd_BinaryPatch_PcdUartDefaultBaudRate 0000000000006160     UfsPlatform:AutoGen.obj
 0003:000000c8       _gPcd_BinaryPatch_PcdSerialClockRate 0000000000006168     UfsPlatform:AutoGen.obj
 0003:000000cc       _gPcd_BinaryPatch_PcdSerialBaudRate 000000000000616c     UfsPlatform:AutoGen.obj
 0003:000000d0       gST                        0000000000006170     UefiBootServicesTableLib:UefiBootServicesTableLib.obj
 0003:000000d8       gBS                        0000000000006178     UefiBootServicesTableLib:UefiBootServicesTableLib.obj
 0003:000000e0       gImageHandle               0000000000006180     UefiBootServicesTableLib:UefiBootServicesTableLib.obj
 0003:000000e8       gRT                        0000000000006188     UefiRuntimeServicesTableLib:UefiRuntimeServicesTableLib.obj
 0003:000000f0       mHobList                   0000000000006190     DxeHobLib:HobLib.obj
 0003:000000f8       mPmTimerReg                0000000000006198     AcpiTimerLib:AcpiTimerLib.obj
 0003:00000100       mPcd                       00000000000061a0     DxePcdLib:DxePcdLib.obj

 entry point at        0001:000000c4

 Static symbols

 0001:0000003a       InternalMemCopyMem.0       00000000000002fa     BaseMemoryLibRepStr:CopyMem.obj
 0001:0000004a       @CopyBackward              000000000000030a     BaseMemoryLibRepStr:CopyMem.obj
 0001:00000053       @CopyBytes                 0000000000000313     BaseMemoryLibRepStr:CopyMem.obj
 0005:00000000       $unwind$GetPcdProtocol     0000000000006360     DxePcdLib:DxePcdLib.obj
 0005:00000000       $unwind$_ModuleEntryPoint  0000000000006360     UefiDriverEntryPoint:DriverEntryPoint.obj
 0005:00000008       $unwind$AsciiStrLen        0000000000006368     BaseLib:String.obj
 0005:00000008       $unwind$CopyMem            0000000000006368     BaseMemoryLibRepStr:CopyMemWrapper.obj
 0005:00000008       $unwind$ProcessLibraryConstructorList 0000000000006368     UfsPlatform:AutoGen.obj
 0005:00000008       $unwind$GetGuidHobDataFromSbl 0000000000006368     SblParseLib:SblParseLib.obj
 0005:00000014       $unwind$UfsWaitMemSet      0000000000006374     UfsPlatform:UfsPlatform.obj
 0005:00000020       $unwind$UfsActivateAllLanes 0000000000006380     UfsPlatform:UfsPlatform.obj
 0005:00000020       $unwind$UfsHsRecipieProgramming 0000000000006380     UfsPlatform:UfsPlatform.obj
 0005:00000034       $unwind$UfsDumpLinkConfig  0000000000006394     UfsPlatform:UfsPlatform.obj
 0005:00000050       $unwind$UfsPwmGearSwitch   00000000000063b0     UfsPlatform:UfsPlatform.obj
 0005:00000068       $unwind$UfsPowerModeAndGearSwitch 00000000000063c8     UfsPlatform:UfsPlatform.obj
 0005:00000084       $unwind$UfsHcPlatformPostHceSwithGear 00000000000063e4     UfsPlatform:UfsPlatform.obj
 0005:00000098       $unwind$UfsHcPlatformCallback 00000000000063f8     UfsPlatform:UfsPlatform.obj
 0005:000000a8       $unwind$DebugPrint         0000000000006408     BaseDebugLibSerialPort:DebugLib.obj
 0005:000000b0       $unwind$DebugPrintMarker   0000000000006410     BaseDebugLibSerialPort:DebugLib.obj
 0005:000000c4       $unwind$DebugAssert        0000000000006424     BaseDebugLibSerialPort:DebugLib.obj
 0005:000000cc       $unwind$PlatformHookSerialPortInitialize 000000000000642c     PlatformHookLib:PlatformHookLib.obj
 0005:000000d4       $unwind$BasePrintLibValueToString 0000000000006434     BasePrintLib:PrintLibInternal.obj
 0005:000000d4       $unwind$GetHobList         0000000000006434     DxeHobLib:HobLib.obj
 0005:000000d4       $unwind$InternalAcpiDelay  0000000000006434     AcpiTimerLib:AcpiTimerLib.obj
 0005:000000e4       $unwind$MmioRead32         0000000000006444     BaseIoLibIntrinsic:IoLib.obj
 0005:000000e4       $unwind$IoRead32           0000000000006444     BaseIoLibIntrinsic:IoLibMsc.obj
 0005:000000e4       $unwind$StrnLenS           0000000000006444     BaseLib:SafeString.obj
 0005:000000e4       $unwind$PciExpressRead32   0000000000006444     BasePciExpressLib:PciExpressLib.obj
 0005:000000e4       $unwind$GetNextHob         0000000000006444     DxeHobLib:HobLib.obj
 0005:000000e4       $unwind$AcpiTimerLibConstructor 0000000000006444     AcpiTimerLib:AcpiTimerLib.obj
 0005:000000ec       $unwind$CompareGuid        000000000000644c     BaseMemoryLibRepStr:MemLibGuid.obj
 0005:00000108       $unwind$SerialPortInitialize 0000000000006468     BaseSerialPortLib16550:BaseSerialPortLib16550.obj
 0005:00000120       $unwind$SerialPortWrite    0000000000006480     BaseSerialPortLib16550:BaseSerialPortLib16550.obj
 0005:00000138       $unwind$AsciiSPrint        0000000000006498     BasePrintLib:PrintLib.obj
 0005:00000140       $unwind$BasePrintLibSPrintMarker 00000000000064a0     BasePrintLib:PrintLibInternal.obj
 0005:0000015c       $unwind$BasePrintLibSPrint 00000000000064bc     BasePrintLib:PrintLibInternal.obj
