 SecurityStubDxe

 Timestamp is 65f952cc (Tue Mar 19 16:54:36 2024)

 Preferred load address is 0000000000000000

 Start         Length     Name                   Class
 0001:00000000 00000158H .text                   CODE
 0001:00000158 000548f1H .text$mn                CODE
 0002:00000000 0002da84H .rdata                  DATA
 0002:0002da84 00000948H .rdata$voltmd           DATA
 0002:0002e3cc 00000178H .rdata$zzzdbg           DATA
 0003:00000000 00000ee0H .data                   DATA
 0003:00000ee0 00000be8H .bss                    DATA
 0004:00000000 0000333cH .pdata                  DATA
 0005:00000000 00001be0H .xdata                  DATA

  Address         Publics by Value              Rva+Base               Lib:Object

 0000:00000000       __guard_longjmp_count      0000000000000000     <absolute>
 0000:00000000       __guard_iat_count          0000000000000000     <absolute>
 0000:00000000       __hybrid_auxiliary_iat     0000000000000000     <absolute>
 0000:00000000       __guard_iat_table          0000000000000000     <absolute>
 0000:00000000       __hybrid_auxiliary_iat_copy 0000000000000000     <absolute>
 0000:00000000       __arm64x_redirection_metadata 0000000000000000     <absolute>
 0000:00000000       __x64_code_ranges_to_entry_points_count 0000000000000000     <absolute>
 0000:00000000       __AbsoluteZero             0000000000000000     <absolute>
 0000:00000000       __guard_check_icall_a64n_fptr 0000000000000000     <absolute>
 0000:00000000       __dynamic_value_reloc_table 0000000000000000     <absolute>
 0000:00000000       __guard_longjmp_table      0000000000000000     <absolute>
 0000:00000000       __x64_code_ranges_to_entry_points 0000000000000000     <absolute>
 0000:00000000       __guard_fids_table         0000000000000000     <absolute>
 0000:00000000       __guard_fids_count         0000000000000000     <absolute>
 0000:00000000       __arm64x_extra_rfe_table   0000000000000000     <absolute>
 0000:00000000       __hybrid_code_map          0000000000000000     <absolute>
 0000:00000000       __arm64x_extra_rfe_table_size 0000000000000000     <absolute>
 0000:00000000       __arm64x_redirection_metadata_count 0000000000000000     <absolute>
 0000:00000000       __enclave_config           0000000000000000     <absolute>
 0000:00000000       __guard_eh_cont_table      0000000000000000     <absolute>
 0000:00000000       __arm64x_native_entrypoint 0000000000000000     <absolute>
 0000:00000000       __guard_flags              0000000000000000     <absolute>
 0000:00000000       __guard_eh_cont_count      0000000000000000     <absolute>
 0000:00000000       __hybrid_code_map_count    0000000000000000     <absolute>
 0000:00000000       __ImageBase                0000000000000000     <linker-defined>
 0001:00000000       InternalMemCopyMem         00000000000002c0     BaseMemoryLibRepStr:CopyMem.obj
 0001:00000040       InternalMemCompareMem      0000000000000300     BaseMemoryLibRepStr:CompareMem.obj
 0001:00000060       CpuPause                   0000000000000320     BaseLib:CpuPause.obj
 0001:00000070       InternalMemSetMem          0000000000000330     BaseMemoryLibRepStr:SetMem.obj
 0001:00000090       InternalMemZeroMem         0000000000000350     BaseMemoryLibRepStr:ZeroMem.obj
 0001:000000b0       InternalMemSetMem64        0000000000000370     BaseMemoryLibRepStr:SetMem64.obj
 0001:000000d0       InternalMemSetMem32        0000000000000390     BaseMemoryLibRepStr:SetMem32.obj
 0001:000000f0       AsmReadTsc                 00000000000003b0     BaseLib:ReadTsc.obj
 0001:00000100       InternalMemScanMem8        00000000000003c0     BaseMemoryLibRepStr:ScanMem8.obj
 0001:00000120       InternalMemScanMem64       00000000000003e0     BaseMemoryLibRepStr:ScanMem64.obj
 0001:00000140       InternalMemScanMem32       0000000000000400     BaseMemoryLibRepStr:ScanMem32.obj
 0001:00000158       _ModuleEntryPoint          0000000000000418 f   UefiDriverEntryPoint:DriverEntryPoint.obj
 0001:0000016c       ProcessLibraryConstructorList 000000000000042c f   SecurityStubDxe:AutoGen.obj
 0001:0000043c       ProcessModuleEntryPointList 00000000000006fc f   SecurityStubDxe:AutoGen.obj
 0001:00000560       SecurityStubAuthenticateState 0000000000000820 f   SecurityStubDxe:SecurityStub.obj
 0001:000005a0       Security2StubAuthenticate  0000000000000860 f   SecurityStubDxe:SecurityStub.obj
 0001:00000608       LookupImage                00000000000008c8 f   SecurityStubDxe:Defer3rdPartyImageLoad.obj
 0001:000006cc       GetDefferedImageInfo       000000000000098c f   SecurityStubDxe:Defer3rdPartyImageLoad.obj
 0001:000007f0       EndOfDxe                   0000000000000ab0 f   SecurityStubDxe:Defer3rdPartyImageLoad.obj
 0001:000007f8       DxeSmmReadyToLock          0000000000000ab8 f   SecurityStubDxe:Defer3rdPartyImageLoad.obj
 0001:000008ac       Defer3rdPartyImageLoad     0000000000000b6c f   SecurityStubDxe:Defer3rdPartyImageLoad.obj
 0001:00000a2c       Defer3rdPartyImageLoadInitialize 0000000000000cec f   SecurityStubDxe:Defer3rdPartyImageLoad.obj
 0001:00000c1c       CopyMem                    0000000000000edc f   BaseMemoryLibRepStr:CopyMemWrapper.obj
 0001:00000cc4       CompareMem                 0000000000000f84 f   BaseMemoryLibRepStr:CompareMemWrapper.obj
 0001:00000dbc       DebugPrint                 000000000000107c f   BaseDebugLibSerialPort:DebugLib.obj
 0001:00000de0       DebugPrintMarker           00000000000010a0 f   BaseDebugLibSerialPort:DebugLib.obj
 0001:00000e78       DebugAssert                0000000000001138 f   BaseDebugLibSerialPort:DebugLib.obj
 0001:00000ef8       PlatformHookSerialPortInitialize 00000000000011b8 f   PlatformHookLib:PlatformHookLib.obj
 0001:00000fcc       AllocatePool               000000000000128c f   UefiMemoryAllocationLib:MemoryAllocationLib.obj
 0001:00001000       InternalAllocateZeroPool   00000000000012c0 f   UefiMemoryAllocationLib:MemoryAllocationLib.obj
 0001:0000104c       InternalAllocateCopyPool   000000000000130c f   UefiMemoryAllocationLib:MemoryAllocationLib.obj
 0001:00001108       InternalReallocatePool     00000000000013c8 f   UefiMemoryAllocationLib:MemoryAllocationLib.obj
 0001:00001170       FreePool                   0000000000001430 f   UefiMemoryAllocationLib:MemoryAllocationLib.obj
 0001:000011cc       GetDevicePathSize          000000000000148c f   UefiDevicePathLib:UefiDevicePathLib.obj
 0001:0000122c       DuplicateDevicePath        00000000000014ec f   UefiDevicePathLib:UefiDevicePathLib.obj
 0001:00001254       AppendDevicePath           0000000000001514 f   UefiDevicePathLib:UefiDevicePathLib.obj
 0001:0000131c       ConvertDevicePathToText    00000000000015dc f   UefiDevicePathLib:UefiDevicePathLib.obj
 0001:00001490       IsDevicePathValid          0000000000001750 f   UefiDevicePathLib:DevicePathUtilities.obj
 0001:00001558       DevicePathNodeLength       0000000000001818 f   UefiDevicePathLib:DevicePathUtilities.obj
 0001:000015bc       NextDevicePathNode         000000000000187c f   UefiDevicePathLib:DevicePathUtilities.obj
 0001:00001600       IsDevicePathEndType        00000000000018c0 f   UefiDevicePathLib:DevicePathUtilities.obj
 0001:00001664       IsDevicePathEnd            0000000000001924 f   UefiDevicePathLib:DevicePathUtilities.obj
 0001:000016e4       UefiDevicePathLibCatPrint  00000000000019a4 f   UefiDevicePathLib:DevicePathToText.obj
 0001:000017dc       DevPathToTextPci           0000000000001a9c f   UefiDevicePathLib:DevicePathToText.obj
 0001:000017f4       DevPathToTextPccard        0000000000001ab4 f   UefiDevicePathLib:DevicePathToText.obj
 0001:00001808       DevPathToTextMemMap        0000000000001ac8 f   UefiDevicePathLib:DevicePathToText.obj
 0001:00001830       DevPathToTextVendor        0000000000001af0 f   UefiDevicePathLib:DevicePathToText.obj
 0001:00001b5c       DevPathToTextController    0000000000001e1c f   UefiDevicePathLib:DevicePathToText.obj
 0001:00001b6c       DevPathToTextBmc           0000000000001e2c f   UefiDevicePathLib:DevicePathToText.obj
 0001:00001bd4       DevPathToTextAcpi          0000000000001e94 f   UefiDevicePathLib:DevicePathToText.obj
 0001:00001c64       DevPathToTextAcpiEx        0000000000001f24 f   UefiDevicePathLib:DevicePathToText.obj
 0001:00001ec8       DevPathToTextAcpiAdr       0000000000002188 f   UefiDevicePathLib:DevicePathToText.obj
 0001:00001f50       DevPathToTextAtapi         0000000000002210 f   UefiDevicePathLib:DevicePathToText.obj
 0001:00001fb4       DevPathToTextScsi          0000000000002274 f   UefiDevicePathLib:DevicePathToText.obj
 0001:00001fcc       DevPathToTextFibre         000000000000228c f   UefiDevicePathLib:DevicePathToText.obj
 0001:00001fe0       DevPathToTextFibreEx       00000000000022a0 f   UefiDevicePathLib:DevicePathToText.obj
 0001:00002078       DevPathToTextSasEx         0000000000002338 f   UefiDevicePathLib:DevicePathToText.obj
 0001:000021e8       DevPathToTextNVMe          00000000000024a8 f   UefiDevicePathLib:DevicePathToText.obj
 0001:0000225c       DevPathToTextUfs           000000000000251c f   UefiDevicePathLib:DevicePathToText.obj
 0001:00002274       DevPathToTextSd            0000000000002534 f   UefiDevicePathLib:DevicePathToText.obj
 0001:00002288       DevPathToTextEmmc          0000000000002548 f   UefiDevicePathLib:DevicePathToText.obj
 0001:0000229c       DevPathToText1394          000000000000255c f   UefiDevicePathLib:DevicePathToText.obj
 0001:000022ac       DevPathToTextUsb           000000000000256c f   UefiDevicePathLib:DevicePathToText.obj
 0001:000022c4       DevPathToTextUsbWWID       0000000000002584 f   UefiDevicePathLib:DevicePathToText.obj
 0001:0000238c       DevPathToTextLogicalUnit   000000000000264c f   UefiDevicePathLib:DevicePathToText.obj
 0001:000023a0       DevPathToTextUsbClass      0000000000002660 f   UefiDevicePathLib:DevicePathToText.obj
 0001:0000254c       DevPathToTextSata          000000000000280c f   UefiDevicePathLib:DevicePathToText.obj
 0001:00002574       DevPathToTextI2O           0000000000002834 f   UefiDevicePathLib:DevicePathToText.obj
 0001:00002584       DevPathToTextMacAddr       0000000000002844 f   UefiDevicePathLib:DevicePathToText.obj
 0001:00002600       CatIPv6Address             00000000000028c0 f   UefiDevicePathLib:DevicePathToText.obj
 0001:000026ec       DevPathToTextIPv4          00000000000029ac f   UefiDevicePathLib:DevicePathToText.obj
 0001:00002870       DevPathToTextIPv6          0000000000002b30 f   UefiDevicePathLib:DevicePathToText.obj
 0001:00002978       DevPathToTextInfiniBand    0000000000002c38 f   UefiDevicePathLib:DevicePathToText.obj
 0001:000029b0       DevPathToTextUart          0000000000002c70 f   UefiDevicePathLib:DevicePathToText.obj
 0001:00002ad4       DevPathToTextiSCSI         0000000000002d94 f   UefiDevicePathLib:DevicePathToText.obj
 0001:00002be0       DevPathToTextVlan          0000000000002ea0 f   UefiDevicePathLib:DevicePathToText.obj
 0001:00002bf4       DevPathToTextBluetooth     0000000000002eb4 f   UefiDevicePathLib:DevicePathToText.obj
 0001:00002c3c       DevPathToTextWiFi          0000000000002efc f   UefiDevicePathLib:DevicePathToText.obj
 0001:00002c78       DevPathToTextBluetoothLE   0000000000002f38 f   UefiDevicePathLib:DevicePathToText.obj
 0001:00002cd0       DevPathToTextDns           0000000000002f90 f   UefiDevicePathLib:DevicePathToText.obj
 0001:00002da4       DevPathToTextUri           0000000000003064 f   UefiDevicePathLib:DevicePathToText.obj
 0001:00002e44       DevPathToTextHardDrive     0000000000003104 f   UefiDevicePathLib:DevicePathToText.obj
 0001:00002ecc       DevPathToTextCDROM         000000000000318c f   UefiDevicePathLib:DevicePathToText.obj
 0001:00002f08       DevPathToTextFilePath      00000000000031c8 f   UefiDevicePathLib:DevicePathToText.obj
 0001:00002f18       DevPathToTextMediaProtocol 00000000000031d8 f   UefiDevicePathLib:DevicePathToText.obj
 0001:00002f28       DevPathToTextFv            00000000000031e8 f   UefiDevicePathLib:DevicePathToText.obj
 0001:00002f38       DevPathToTextFvFile        00000000000031f8 f   UefiDevicePathLib:DevicePathToText.obj
 0001:00002f48       DevPathRelativeOffsetRange 0000000000003208 f   UefiDevicePathLib:DevicePathToText.obj
 0001:00002f5c       DevPathToTextRamDisk       000000000000321c f   UefiDevicePathLib:DevicePathToText.obj
 0001:000030b4       DevPathToTextBBS           0000000000003374 f   UefiDevicePathLib:DevicePathToText.obj
 0001:00003188       DevPathToTextEndInstance   0000000000003448 f   UefiDevicePathLib:DevicePathToText.obj
 0001:00003194       DevPathToTextNodeGeneric   0000000000003454 f   UefiDevicePathLib:DevicePathToText.obj
 0001:00003308       EfiGetSystemConfigurationTable 00000000000035c8 f   UefiLib:UefiLib.obj
 0001:000033e0       GetEfiGlobalVariable2      00000000000036a0 f   UefiLib:UefiLib.obj
 0001:000034ec       GetHobList                 00000000000037ac f   DxeHobLib:HobLib.obj
 0001:00003590       GetNextHob                 0000000000003850 f   DxeHobLib:HobLib.obj
 0001:000035e8       GetFirstGuidHob            00000000000038a8 f   DxeHobLib:HobLib.obj
 0001:00003634       AcpiTimerLibConstructor    00000000000038f4 f   AcpiTimerLib:AcpiTimerLib.obj
 0001:00003684       InternalAcpiDelay          0000000000003944 f   AcpiTimerLib:AcpiTimerLib.obj
 0001:000036fc       ExecuteSecurityHandlers    00000000000039bc f   DxeSecurityManagementLib:DxeSecurityManagementLib.obj
 0001:00003870       RegisterSecurity2Handler   0000000000003b30 f   DxeSecurityManagementLib:DxeSecurityManagementLib.obj
 0001:000039b0       ExecuteSecurity2Handlers   0000000000003c70 f   DxeSecurityManagementLib:DxeSecurityManagementLib.obj
 0001:00003a78       InternalReportStatusCode   0000000000003d38 f   DxeReportStatusCodeLib:ReportStatusCodeLib.obj
 0001:00003b1c       DxeImageVerificationLibImageRead 0000000000003ddc f   DxeImageVerificationLib:DxeImageVerificationLib.obj
 0001:00003c1c       GetImageType               0000000000003edc f   DxeImageVerificationLib:DxeImageVerificationLib.obj
 0001:00003e34       HashPeImage                00000000000040f4 f   DxeImageVerificationLib:DxeImageVerificationLib.obj
 0001:000041e8       AddImageExeInfo            00000000000044a8 f   DxeImageVerificationLib:DxeImageVerificationLib.obj
 0001:00004484       IsCertHashFoundInDbx       0000000000004744 f   DxeImageVerificationLib:DxeImageVerificationLib.obj
 0001:00004774       IsSignatureFoundInDatabase 0000000000004a34 f   DxeImageVerificationLib:DxeImageVerificationLib.obj
 0001:00004948       PassTimestampCheck         0000000000004c08 f   DxeImageVerificationLib:DxeImageVerificationLib.obj
 0001:00004b20       IsForbiddenByDbx           0000000000004de0 f   DxeImageVerificationLib:DxeImageVerificationLib.obj
 0001:00004e68       IsAllowedByDb              0000000000005128 f   DxeImageVerificationLib:DxeImageVerificationLib.obj
 0001:0000512c       DxeImageVerificationHandler 00000000000053ec f   DxeImageVerificationLib:DxeImageVerificationLib.obj
 0001:000056f0       OnReadyToBoot              00000000000059b0 f   DxeImageVerificationLib:DxeImageVerificationLib.obj
 0001:00005758       AddDataMeasured            0000000000005a18 f   DxeImageVerificationLib:Measurement.obj
 0001:00005910       IsDataMeasured             0000000000005bd0 f   DxeImageVerificationLib:Measurement.obj
 0001:000059d0       MeasureVariable            0000000000005c90 f   DxeImageVerificationLib:Measurement.obj
 0001:00005af4       SecureBootHook             0000000000005db4 f   DxeImageVerificationLib:Measurement.obj
 0001:00005be0       DxeTpm2MeasureBootLibImageRead 0000000000005ea0 f   DxeTpm2MeasureBootLib:DxeTpm2MeasureBootLib.obj
 0001:00005ce0       Tcg2MeasureGptTable        0000000000005fa0 f   DxeTpm2MeasureBootLib:DxeTpm2MeasureBootLib.obj
 0001:00005f98       Tcg2MeasurePeImage         0000000000006258 f   DxeTpm2MeasureBootLib:DxeTpm2MeasureBootLib.obj
 0001:00006104       DxeTpm2MeasureBootHandler  00000000000063c4 f   DxeTpm2MeasureBootLib:DxeTpm2MeasureBootLib.obj
 0001:000065d0       StrLen                     0000000000006890 f   BaseLib:String.obj
 0001:00006684       StrCmp                     0000000000006944 f   BaseLib:String.obj
 0001:00006744       AsciiStrLen                0000000000006a04 f   BaseLib:String.obj
 0001:000067c4       AsciiStrCmp                0000000000006a84 f   BaseLib:String.obj
 0001:00006864       AsciiStriCmp               0000000000006b24 f   BaseLib:String.obj
 0001:00006964       AsciiStrnCmp               0000000000006c24 f   BaseLib:String.obj
 0001:00006a4c       StrnLenS                   0000000000006d0c f   BaseLib:SafeString.obj
 0001:00006aac       AsciiStrCpyS               0000000000006d6c f   BaseLib:SafeString.obj
 0001:00006be8       AsciiStrnCpyS              0000000000006ea8 f   BaseLib:SafeString.obj
 0001:00006d58       AsciiStrCatS               0000000000007018 f   BaseLib:SafeString.obj
 0001:00006f2c       AsciiStrDecimalToUintnS    00000000000071ec f   BaseLib:SafeString.obj
 0001:00007074       SetMem                     0000000000007334 f   BaseMemoryLibRepStr:SetMemWrapper.obj
 0001:000070e8       ZeroMem                    00000000000073a8 f   BaseMemoryLibRepStr:ZeroMemWrapper.obj
 0001:0000716c       CompareGuid                000000000000742c f   BaseMemoryLibRepStr:MemLibGuid.obj
 0001:00007264       IsZeroGuid                 0000000000007524 f   BaseMemoryLibRepStr:MemLibGuid.obj
 0001:000072ec       IoRead32                   00000000000075ac f   BaseIoLibIntrinsic:IoLibMsc.obj
 0001:0000732c       SerialPortReadRegister     00000000000075ec f   BaseSerialPortLib16550:BaseSerialPortLib16550.obj
 0001:00007360       SerialPortWriteRegister    0000000000007620 f   BaseSerialPortLib16550:BaseSerialPortLib16550.obj
 0001:0000739c       SerialPortInitialize       000000000000765c f   BaseSerialPortLib16550:BaseSerialPortLib16550.obj
 0001:00007560       SerialPortWrite            0000000000007820 f   BaseSerialPortLib16550:BaseSerialPortLib16550.obj
 0001:000076b0       UnicodeVSPrint             0000000000007970 f   BasePrintLib:PrintLib.obj
 0001:00007758       UnicodeSPrint              0000000000007a18 f   BasePrintLib:PrintLib.obj
 0001:00007778       AsciiSPrint                0000000000007a38 f   BasePrintLib:PrintLib.obj
 0001:000077a4       BasePrintLibFillBuffer     0000000000007a64 f   BasePrintLib:PrintLibInternal.obj
 0001:000077d8       BasePrintLibValueToString  0000000000007a98 f   BasePrintLib:PrintLibInternal.obj
 0001:0000784c       BasePrintLibSPrintMarker   0000000000007b0c f   BasePrintLib:PrintLibInternal.obj
 0001:0000884c       BasePrintLibSPrint         0000000000008b0c f   BasePrintLib:PrintLibInternal.obj
 0001:00008870       GetGuidHobDataFromSbl      0000000000008b30 f   SblParseLib:SblParseLib.obj
 0001:0000893c       EfiCreateEventReadyToBootEx 0000000000008bfc f   UefiLib:UefiNotTiano.obj
 0001:000089fc       GetFileBufferByFilePath    0000000000008cbc f   DxeServicesLib:DxeServicesLib.obj
 0001:00008f9c       Tpm12MeasureAndLogData     000000000000925c f   DxeTpmMeasurementLib:DxeTpmMeasurementLib.obj
 0001:00009080       TpmMeasureAndLogData       0000000000009340 f   DxeTpmMeasurementLib:DxeTpmMeasurementLib.obj
 0001:0000916c       PeCoffLoaderGetPeHeader    000000000000942c f   BasePeCoffLib:BasePeCoff.obj
 0001:00009668       PeCoffLoaderGetImageInfo   0000000000009928 f   BasePeCoffLib:BasePeCoff.obj
 0001:000099d8       Sha1GetContextSize         0000000000009c98 f   BaseCryptLib:CryptSha1.obj
 0001:000099e0       Sha1Init                   0000000000009ca0 f   BaseCryptLib:CryptSha1.obj
 0001:000099f0       Sha1Update                 0000000000009cb0 f   BaseCryptLib:CryptSha1.obj
 0001:00009a08       Sha1Final                  0000000000009cc8 f   BaseCryptLib:CryptSha1.obj
 0001:00009a24       Sha384GetContextSize       0000000000009ce4 f   BaseCryptLib:CryptSha512.obj
 0001:00009a24       Sha512GetContextSize       0000000000009ce4 f   BaseCryptLib:CryptSha512.obj
 0001:00009a2c       Sha384Init                 0000000000009cec f   BaseCryptLib:CryptSha512.obj
 0001:00009a3c       Sha512Update               0000000000009cfc f   BaseCryptLib:CryptSha512.obj
 0001:00009a3c       Sha384Update               0000000000009cfc f   BaseCryptLib:CryptSha512.obj
 0001:00009a54       Sha512Final                0000000000009d14 f   BaseCryptLib:CryptSha512.obj
 0001:00009a54       Sha384Final                0000000000009d14 f   BaseCryptLib:CryptSha512.obj
 0001:00009a70       Sha512Init                 0000000000009d30 f   BaseCryptLib:CryptSha512.obj
 0001:00009a80       WrapPkcs7Data              0000000000009d40 f   BaseCryptLib:CryptPkcs7VerifyCommon.obj
 0001:00009b8c       X509PopCertificate         0000000000009e4c f   BaseCryptLib:CryptPkcs7VerifyCommon.obj
 0001:00009c9c       Pkcs7GetSigners            0000000000009f5c f   BaseCryptLib:CryptPkcs7VerifyCommon.obj
 0001:00009ff8       Pkcs7Verify                000000000000a2b8 f   BaseCryptLib:CryptPkcs7VerifyCommon.obj
 0001:0000a29c       Sha256GetContextSize       000000000000a55c f   BaseCryptLib:CryptSha256.obj
 0001:0000a2a4       Sha256Init                 000000000000a564 f   BaseCryptLib:CryptSha256.obj
 0001:0000a2b4       Sha256Update               000000000000a574 f   BaseCryptLib:CryptSha256.obj
 0001:0000a2cc       Sha256Final                000000000000a58c f   BaseCryptLib:CryptSha256.obj
 0001:0000a2e8       AuthenticodeVerify         000000000000a5a8 f   BaseCryptLib:CryptAuthenticode.obj
 0001:0000a478       ConvertAsn1TimeToEfiTime   000000000000a738 f   BaseCryptLib:CryptTs.obj
 0001:0000a66c       CheckTSTInfo               000000000000a92c f   BaseCryptLib:CryptTs.obj
 0001:0000a7c4       TimestampTokenVerify       000000000000aa84 f   BaseCryptLib:CryptTs.obj
 0001:0000aac0       ImageTimestampVerify       000000000000ad80 f   BaseCryptLib:CryptTs.obj
 0001:0000acac       malloc                     000000000000af6c f   BaseCryptLib:BaseMemAllocation.obj
 0001:0000acd8       free                       000000000000af98 f   BaseCryptLib:BaseMemAllocation.obj
 0001:0000ad20       MmioRead32                 000000000000afe0 f   BaseIoLibIntrinsic:IoLib.obj
 0001:0000ad58       PciExpressRead32           000000000000b018 f   BasePciExpressLib:PciExpressLib.obj
 0001:0000ada8       SHA1_Update                000000000000b068 f   OpensslLib:sha1dgst.obj
 0001:0000aebc       SHA1_Final                 000000000000b17c f   OpensslLib:sha1dgst.obj
 0001:0000b008       SHA1_Init                  000000000000b2c8 f   OpensslLib:sha1dgst.obj
 0001:0000b320       SHA384_Init                000000000000b5e0 f   OpensslLib:sha512.obj
 0001:0000b3b0       SHA512_Init                000000000000b670 f   OpensslLib:sha512.obj
 0001:0000b440       SHA512_Final               000000000000b700 f   OpensslLib:sha512.obj
 0001:0000b780       SHA512_Update              000000000000ba40 f   OpensslLib:sha512.obj
 0001:0000bd44       X509_STORE_new             000000000000c004 f   OpensslLib:x509_lu.obj
 0001:0000be9c       X509_STORE_free            000000000000c15c f   OpensslLib:x509_lu.obj
 0001:0000bfc0       X509_STORE_CTX_get_by_subject 000000000000c280 f   OpensslLib:x509_lu.obj
 0001:0000c1bc       X509_OBJECT_new            000000000000c47c f   OpensslLib:x509_lu.obj
 0001:0000c1ec       X509_OBJECT_free           000000000000c4ac f   OpensslLib:x509_lu.obj
 0001:0000c320       X509_STORE_CTX_get1_certs  000000000000c5e0 f   OpensslLib:x509_lu.obj
 0001:0000c59c       X509_STORE_CTX_get1_crls   000000000000c85c f   OpensslLib:x509_lu.obj
 0001:0000c770       X509_OBJECT_retrieve_match 000000000000ca30 f   OpensslLib:x509_lu.obj
 0001:0000c878       X509_STORE_CTX_get1_issuer 000000000000cb38 f   OpensslLib:x509_lu.obj
 0001:0000ca58       X509_cmp                   000000000000cd18 f   OpensslLib:x509_cmp.obj
 0001:0000caec       X509_NAME_cmp              000000000000cdac f   OpensslLib:x509_cmp.obj
 0001:0000cb5c       X509_find_by_issuer_and_serial 000000000000ce1c f   OpensslLib:x509_cmp.obj
 0001:0000ce4c       X509_verify_cert           000000000000d10c f   OpensslLib:x509_vfy.obj
 0001:0000ef2c       x509_check_cert_time       000000000000f1ec f   OpensslLib:x509_vfy.obj
 0001:0000f274       X509_cmp_time              000000000000f534 f   OpensslLib:x509_vfy.obj
 0001:0000f370       X509_get_pubkey_parameters 000000000000f630 f   OpensslLib:x509_vfy.obj
 0001:0000f468       X509_STORE_CTX_init        000000000000f728 f   OpensslLib:x509_vfy.obj
 0001:0000f720       X509_STORE_CTX_cleanup     000000000000f9e0 f   OpensslLib:x509_vfy.obj
 0001:00010b3c       X509_free                  0000000000010dfc f   OpensslLib:x_x509.obj
 0001:00010e2c       OPENSSL_sk_dup             00000000000110ec f   OpensslLib:stack.obj
 0001:00010ed8       OPENSSL_sk_deep_copy       0000000000011198 f   OpensslLib:stack.obj
 0001:00011158       OPENSSL_sk_new_reserve     0000000000011418 f   OpensslLib:stack.obj
 0001:000111c4       OPENSSL_sk_insert          0000000000011484 f   OpensslLib:stack.obj
 0001:00011370       OPENSSL_sk_pop_free        0000000000011630 f   OpensslLib:stack.obj
 0001:000113d8       OPENSSL_sk_sort            0000000000011698 f   OpensslLib:stack.obj
 0001:000114ec       BIO_new                    00000000000117ac f   OpensslLib:bio_lib.obj
 0001:000115f8       BIO_free                   00000000000118b8 f   OpensslLib:bio_lib.obj
 0001:000118d4       BIO_puts                   0000000000011b94 f   OpensslLib:bio_lib.obj
 0001:00011a08       BIO_indent                 0000000000011cc8 f   OpensslLib:bio_lib.obj
 0001:00011a54       BIO_ctrl                   0000000000011d14 f   OpensslLib:bio_lib.obj
 0001:00011b3c       BIO_callback_ctrl          0000000000011dfc f   OpensslLib:bio_lib.obj
 0001:00011c20       BIO_push                   0000000000011ee0 f   OpensslLib:bio_lib.obj
 0001:00011c6c       BIO_pop                    0000000000011f2c f   OpensslLib:bio_lib.obj
 0001:00011cd0       BIO_free_all               0000000000011f90 f   OpensslLib:bio_lib.obj
 0001:00011d08       PKCS7_verify               0000000000011fc8 f   OpensslLib:pk7_smime.obj
 0001:00012100       PKCS7_get0_signers         00000000000123c0 f   OpensslLib:pk7_smime.obj
 0001:0001222c       EVP_add_cipher             00000000000124ec f   OpensslLib:names.obj
 0001:0001227c       EVP_add_digest             000000000001253c f   OpensslLib:names.obj
 0001:00012310       EVP_get_cipherbyname       00000000000125d0 f   OpensslLib:names.obj
 0001:00012344       EVP_get_digestbyname       0000000000012604 f   OpensslLib:names.obj
 0001:00012378       CRYPTO_zalloc              0000000000012638 f   OpensslLib:mem.obj
 0001:000123c0       CRYPTO_realloc             0000000000012680 f   OpensslLib:mem.obj
 0001:00012498       CRYPTO_clear_realloc       0000000000012758 f   OpensslLib:mem.obj
 0001:000125e0       PKCS7_free                 00000000000128a0 f   OpensslLib:pk7_asn1.obj
 0001:00012730       OBJ_NAME_get               00000000000129f0 f   OpensslLib:o_names.obj
 0001:000127e8       OBJ_NAME_add               0000000000012aa8 f   OpensslLib:o_names.obj
 0001:000128e0       BIO_new_mem_buf            0000000000012ba0 f   OpensslLib:bss_mem.obj
 0001:00012edc       X509_verify                000000000001319c f   OpensslLib:x_all.obj
 0001:00013164       OBJ_add_object             0000000000013424 f   OpensslLib:obj_dat.obj
 0001:000132dc       OBJ_nid2obj                000000000001359c f   OpensslLib:obj_dat.obj
 0001:00013368       OBJ_nid2sn                 0000000000013628 f   OpensslLib:obj_dat.obj
 0001:000133f8       OBJ_nid2ln                 00000000000136b8 f   OpensslLib:obj_dat.obj
 0001:000134c4       OBJ_obj2nid                0000000000013784 f   OpensslLib:obj_dat.obj
 0001:00013560       OBJ_txt2obj                0000000000013820 f   OpensslLib:obj_dat.obj
 0001:00013664       OBJ_obj2txt                0000000000013924 f   OpensslLib:obj_dat.obj
 0001:00013988       OBJ_ln2nid                 0000000000013c48 f   OpensslLib:obj_dat.obj
 0001:00013a1c       OBJ_sn2nid                 0000000000013cdc f   OpensslLib:obj_dat.obj
 0001:00013ab0       OBJ_bsearch_ex_            0000000000013d70 f   OpensslLib:obj_dat.obj
 0001:00013b88       OBJ_create                 0000000000013e48 f   OpensslLib:obj_dat.obj
 0001:00013c6c       EVP_PKEY_copy_parameters   0000000000013f2c f   OpensslLib:p_lib.obj
 0001:00013d58       EVP_PKEY_new               0000000000014018 f   OpensslLib:p_lib.obj
 0001:00013e7c       EVP_PKEY_assign            000000000001413c f   OpensslLib:p_lib.obj
 0001:00013ec4       EVP_PKEY_free              0000000000014184 f   OpensslLib:p_lib.obj
 0001:00013f28       X509_NAME_ENTRY_free       00000000000141e8 f   OpensslLib:x_name.obj
 0001:00013f4c       i2d_X509_NAME              000000000001420c f   OpensslLib:x_name.obj
 0001:00014978       X509_NAME_print            0000000000014c38 f   OpensslLib:x_name.obj
 0001:00014aa8       X509_NAME_get_index_by_NID 0000000000014d68 f   OpensslLib:x509name.obj
 0001:00014ae4       X509_NAME_get_index_by_OBJ 0000000000014da4 f   OpensslLib:x509name.obj
 0001:00014b80       X509_NAME_get_entry        0000000000014e40 f   OpensslLib:x509name.obj
 0001:00014bb8       X509_NAME_delete_entry     0000000000014e78 f   OpensslLib:x509name.obj
 0001:00014cc8       X509_NAME_add_entry        0000000000014f88 f   OpensslLib:x509name.obj
 0001:00014e30       X509_NAME_ENTRY_create_by_OBJ 00000000000150f0 f   OpensslLib:x509name.obj
 0001:00014ed8       ASN1_get_object            0000000000015198 f   OpensslLib:asn1_lib.obj
 0001:0001506c       ASN1_put_object            000000000001532c f   OpensslLib:asn1_lib.obj
 0001:00015164       ASN1_object_size           0000000000015424 f   OpensslLib:asn1_lib.obj
 0001:000151b8       ASN1_STRING_copy           0000000000015478 f   OpensslLib:asn1_lib.obj
 0001:00015208       ASN1_STRING_dup            00000000000154c8 f   OpensslLib:asn1_lib.obj
 0001:00015258       ASN1_STRING_set            0000000000015518 f   OpensslLib:asn1_lib.obj
 0001:00015350       ASN1_STRING_set0           0000000000015610 f   OpensslLib:asn1_lib.obj
 0001:00015388       ASN1_STRING_type_new       0000000000015648 f   OpensslLib:asn1_lib.obj
 0001:000153c0       ASN1_STRING_free           0000000000015680 f   OpensslLib:asn1_lib.obj
 0001:00015404       ASN1_STRING_clear_free     00000000000156c4 f   OpensslLib:asn1_lib.obj
 0001:0001543c       ASN1_STRING_cmp            00000000000156fc f   OpensslLib:asn1_lib.obj
 0001:00016030       ASN1_STRING_to_UTF8        00000000000162f0 f   OpensslLib:a_strex.obj
 0001:0001614c       SHA224_Init                000000000001640c f   OpensslLib:sha256.obj
 0001:000161ac       SHA256_Init                000000000001646c f   OpensslLib:sha256.obj
 0001:0001620c       SHA256_Update              00000000000164cc f   OpensslLib:sha256.obj
 0001:00016320       SHA256_Final               00000000000165e0 f   OpensslLib:sha256.obj
 0001:000167f8       ASN1_INTEGER_free          0000000000016ab8 f   OpensslLib:tasn_typ.obj
 0001:00016800       ASN1_TYPE_free             0000000000016ac0 f   OpensslLib:tasn_typ.obj
 0001:00016824       ASN1_item_d2i              0000000000016ae4 f   OpensslLib:tasn_dec.obj
 0001:0001686c       ASN1_item_ex_d2i           0000000000016b2c f   OpensslLib:tasn_dec.obj
 0001:00017e44       X509_ALGOR_free            0000000000018104 f   OpensslLib:x_algor.obj
 0001:00017e68       X509_ALGOR_set0            0000000000018128 f   OpensslLib:x_algor.obj
 0001:00017f00       PKCS7_ctrl                 00000000000181c0 f   OpensslLib:pk7_lib.obj
 0001:00017f50       PKCS7_get_signer_info      0000000000018210 f   OpensslLib:pk7_lib.obj
 0001:00017f94       PKCS7_stream               0000000000018254 f   OpensslLib:pk7_lib.obj
 0001:00018050       ASN1_item_new              0000000000018310 f   OpensslLib:tasn_new.obj
 0001:00018518       EVP_MD_CTX_reset           00000000000187d8 f   OpensslLib:digest.obj
 0001:000185b4       EVP_DigestInit_ex          0000000000018874 f   OpensslLib:digest.obj
 0001:000186a4       EVP_DigestFinal_ex         0000000000018964 f   OpensslLib:digest.obj
 0001:00018710       EVP_MD_CTX_copy_ex         00000000000189d0 f   OpensslLib:digest.obj
 0001:0001882c       EVP_Digest                 0000000000018aec f   OpensslLib:digest.obj
 0001:000188d0       ASN1_INTEGER_cmp           0000000000018b90 f   OpensslLib:a_int.obj
 0001:00018b50       c2i_ASN1_INTEGER           0000000000018e10 f   OpensslLib:a_int.obj
 0001:00018e88       ASN1_INTEGER_get           0000000000019148 f   OpensslLib:a_int.obj
 0001:00018ecc       ASN1_ENUMERATED_get        000000000001918c f   OpensslLib:a_int.obj
 0001:00018f20       c2i_uint64_int             00000000000191e0 f   OpensslLib:a_int.obj
 0001:00018fb8       X509at_get_attr_by_OBJ     0000000000019278 f   OpensslLib:x509_att.obj
 0001:0001903c       asn1_item_embed_free       00000000000192fc f   OpensslLib:tasn_fre.obj
 0001:00019290       asn1_template_free         0000000000019550 f   OpensslLib:tasn_fre.obj
 0001:0001934c       asn1_primitive_free        000000000001960c f   OpensslLib:tasn_fre.obj
 0001:0001943c       EVP_CIPHER_param_to_asn1   00000000000196fc f   OpensslLib:evp_lib.obj
 0001:000194ec       EVP_CIPHER_get_asn1_iv     00000000000197ac f   OpensslLib:evp_lib.obj
 0001:0001958c       EVP_CIPHER_set_asn1_iv     000000000001984c f   OpensslLib:evp_lib.obj
 0001:0001961c       EVP_CIPHER_type            00000000000198dc f   OpensslLib:evp_lib.obj
 0001:0001970c       EVP_CIPHER_CTX_iv_length   00000000000199cc f   OpensslLib:evp_lib.obj
 0001:00019808       ASN1_item_ex_i2d           0000000000019ac8 f   OpensslLib:tasn_enc.obj
 0001:0001a3c4       GENERAL_NAME_free          000000000001a684 f   OpensslLib:v3_genn.obj
 0001:0001a3e8       GENERAL_NAMES_free         000000000001a6a8 f   OpensslLib:v3_genn.obj
 0001:0001a47c       ERR_put_error              000000000001a73c f   OpensslLib:err.obj
 0001:0001a580       ERR_clear_error            000000000001a840 f   OpensslLib:err.obj
 0001:0001a7d0       ERR_get_state              000000000001aa90 f   OpensslLib:err.obj
 0001:0001a92c       ERR_add_error_data         000000000001abec f   OpensslLib:err.obj
 0001:0001aa34       ERR_set_mark               000000000001acf4 f   OpensslLib:err.obj
 0001:0001aa64       ERR_pop_to_mark            000000000001ad24 f   OpensslLib:err.obj
 0001:0001ab54       err_clear_last_constant_time 000000000001ae14 f   OpensslLib:err.obj
 0001:0001aba0       policy_node_free           000000000001ae60 f   OpensslLib:pcy_node.obj
 0001:0001aba8       X509_VERIFY_PARAM_free     000000000001ae68 f   OpensslLib:x509_vpm.obj
 0001:0001ac00       X509_VERIFY_PARAM_inherit  000000000001aec0 f   OpensslLib:x509_vpm.obj
 0001:0001ae74       X509_VERIFY_PARAM_set1_policies 000000000001b134 f   OpensslLib:x509_vpm.obj
 0001:0001afcc       X509_VERIFY_PARAM_lookup   000000000001b28c f   OpensslLib:x509_vpm.obj
 0001:0001b790       X509_CRL_free              000000000001ba50 f   OpensslLib:x_crl.obj
 0001:0001ba50       CRYPTO_new_ex_data         000000000001bd10 f   OpensslLib:ex_data.obj
 0001:0001bbb0       CRYPTO_free_ex_data        000000000001be70 f   OpensslLib:ex_data.obj
 0001:0001bd34       X509_check_purpose         000000000001bff4 f   OpensslLib:v3_purp.obj
 0001:0001bdb0       X509_PURPOSE_get_by_id     000000000001c070 f   OpensslLib:v3_purp.obj
 0001:0001c860       X509_check_issued          000000000001cb20 f   OpensslLib:v3_purp.obj
 0001:0001c910       X509_check_akid            000000000001cbd0 f   OpensslLib:v3_purp.obj
 0001:0001c9c0       X509_NAME_oneline          000000000001cc80 f   OpensslLib:x509_obj.obj
 0001:0001ce3c       X509_PUBKEY_get0           000000000001d0fc f   OpensslLib:x_pubkey.obj
 0001:0001d070       asn1_time_to_tm            000000000001d330 f   OpensslLib:a_time.obj
 0001:0001d430       asn1_time_from_tm          000000000001d6f0 f   OpensslLib:a_time.obj
 0001:0001d548       ASN1_TIME_adj              000000000001d808 f   OpensslLib:a_time.obj
 0001:0001d59c       ASN1_TIME_diff             000000000001d85c f   OpensslLib:a_time.obj
 0001:0001d690       ASN1_TIME_print            000000000001d950 f   OpensslLib:a_time.obj
 0001:0001d818       X509V3_add_value           000000000001dad8 f   OpensslLib:v3_utl.obj
 0001:0001d960       X509V3_conf_free           000000000001dc20 f   OpensslLib:v3_utl.obj
 0001:0001daa8       i2s_ASN1_INTEGER           000000000001dd68 f   OpensslLib:v3_utl.obj
 0001:0001db0c       s2i_ASN1_INTEGER           000000000001ddcc f   OpensslLib:v3_utl.obj
 0001:0001dc10       X509V3_add_value_int       000000000001ded0 f   OpensslLib:v3_utl.obj
 0001:0001dc68       X509V3_get_value_bool      000000000001df28 f   OpensslLib:v3_utl.obj
 0001:0001ddf8       X509V3_get_value_int       000000000001e0b8 f   OpensslLib:v3_utl.obj
 0001:0001de68       X509V3_parse_list          000000000001e128 f   OpensslLib:v3_utl.obj
 0001:0001e0e4       name_cmp                   000000000001e3a4 f   OpensslLib:v3_utl.obj
 0001:0001e938       a2i_IPADDRESS_NC           000000000001ebf8 f   OpensslLib:v3_utl.obj
 0001:0001ea08       a2i_ipadd                  000000000001ecc8 f   OpensslLib:v3_utl.obj
 0001:0001ec9c       X509V3_NAME_from_section   000000000001ef5c f   OpensslLib:v3_utl.obj
 0001:0001ede0       X509v3_get_ext_by_NID      000000000001f0a0 f   OpensslLib:x509_v3.obj
 0001:0001ee1c       X509v3_get_ext_by_OBJ      000000000001f0dc f   OpensslLib:x509_v3.obj
 0001:0001fb74       X509_policy_tree_free      000000000001fe34 f   OpensslLib:pcy_tree.obj
 0001:0001fc20       X509_policy_check          000000000001fee0 f   OpensslLib:pcy_tree.obj
 0001:0001ffc8       X509_check_trust           0000000000020288 f   OpensslLib:x509_trs.obj
 0001:0002004c       X509_TRUST_get_by_id       000000000002030c f   OpensslLib:x509_trs.obj
 0001:0002057c       NAME_CONSTRAINTS_check     000000000002083c f   OpensslLib:v3_ncons.obj
 0001:00020744       NAME_CONSTRAINTS_check_CN  0000000000020a04 f   OpensslLib:v3_ncons.obj
 0001:00020d68       ossl_tolower               0000000000021028 f   OpensslLib:ctype.obj
 0001:00020d94       ASN1_item_dup              0000000000021054 f   OpensslLib:a_dup.obj
 0001:00021590       DIST_POINT_free            0000000000021850 f   OpensslLib:v3_crld.obj
 0001:00021954       DIST_POINT_set_dpname      0000000000021c14 f   OpensslLib:v3_crld.obj
 0001:00021da8       bwrite_conv                0000000000022068 f   OpensslLib:bio_meth.obj
 0001:00021de4       bread_conv                 00000000000220a4 f   OpensslLib:bio_meth.obj
 0001:00021e20       PKCS7_add1_attrib_digest   00000000000220e0 f   OpensslLib:pk7_attr.obj
 0001:000223d0       PKCS7_dataInit             0000000000022690 f   OpensslLib:pk7_doit.obj
 0001:00022948       PKCS7_dataFinal            0000000000022c08 f   OpensslLib:pk7_doit.obj
 0001:00022d9c       PKCS7_SIGNER_INFO_sign     000000000002305c f   OpensslLib:pk7_doit.obj
 0001:00023088       PKCS7_signatureVerify      0000000000023348 f   OpensslLib:pk7_doit.obj
 0001:000234d4       X509_verify_cert_error_string 0000000000023794 f   OpensslLib:x509_txt.obj
 0001:00023904       OBJ_dup                    0000000000023bc4 f   OpensslLib:obj_lib.obj
 0001:00023ccc       ossl_init_thread_start     0000000000023f8c f   OpensslLib:init.obj
 0001:00023d14       OPENSSL_init_crypto        0000000000023fd4 f   OpensslLib:init.obj
 0001:00023f90       OBJ_find_sigid_algs        0000000000024250 f   OpensslLib:obj_xref.obj
 0001:00024184       EVP_PKEY_CTX_dup           0000000000024444 f   OpensslLib:pmeth_lib.obj
 0001:00024254       EVP_PKEY_CTX_free          0000000000024514 f   OpensslLib:pmeth_lib.obj
 0001:00024294       EVP_PKEY_CTX_ctrl          0000000000024554 f   OpensslLib:pmeth_lib.obj
 0001:00024354       EVP_PKEY_CTX_str2ctrl      0000000000024614 f   OpensslLib:pmeth_lib.obj
 0001:00024394       EVP_PKEY_CTX_hex2ctrl      0000000000024654 f   OpensslLib:pmeth_lib.obj
 0001:000243f0       EVP_PKEY_CTX_md            00000000000246b0 f   OpensslLib:pmeth_lib.obj
 0001:0002445c       X509_ATTRIBUTE_free        000000000002471c f   OpensslLib:x_attrib.obj
 0001:00024480       X509_ATTRIBUTE_create      0000000000024740 f   OpensslLib:x_attrib.obj
 0001:00024520       OPENSSL_LH_new             00000000000247e0 f   OpensslLib:lhash.obj
 0001:000245c8       OPENSSL_LH_insert          0000000000024888 f   OpensslLib:lhash.obj
 0001:00024678       OPENSSL_LH_retrieve        0000000000024938 f   OpensslLib:lhash.obj
 0001:00024848       OPENSSL_LH_strhash         0000000000024b08 f   OpensslLib:lhash.obj
 0001:00024898       openssl_lh_strcasehash     0000000000024b58 f   OpensslLib:lhash.obj
 0001:000248f4       BUF_MEM_new                0000000000024bb4 f   OpensslLib:buffer.obj
 0001:00024920       BUF_MEM_free               0000000000024be0 f   OpensslLib:buffer.obj
 0001:000249f4       BUF_MEM_grow               0000000000024cb4 f   OpensslLib:buffer.obj
 0001:00024adc       BUF_MEM_grow_clean         0000000000024d9c f   OpensslLib:buffer.obj
 0001:00024bd0       ASN1_item_digest           0000000000024e90 f   OpensslLib:a_digest.obj
 0001:00024cac       ASN1_item_verify           0000000000024f6c f   OpensslLib:a_verify.obj
 0001:00024f70       ASN1_item_i2d_bio          0000000000025230 f   OpensslLib:a_i2d_fp.obj
 0001:00025054       RSA_new_method             0000000000025314 f   OpensslLib:rsa_lib.obj
 0001:00025218       RSA_free                   00000000000254d8 f   OpensslLib:rsa_lib.obj
 0001:00025318       RSA_pkey_ctx_ctrl          00000000000255d8 f   OpensslLib:rsa_lib.obj
 0001:00025360       MD5_Update                 0000000000025620 f   OpensslLib:md5_dgst.obj
 0001:00025474       MD5_Final                  0000000000025734 f   OpensslLib:md5_dgst.obj
 0001:00025600       md5_block_data_order       00000000000258c0 f   OpensslLib:md5_dgst.obj
 0001:000260a8       BN_bn2hex                  0000000000026368 f   OpensslLib:bn_print.obj
 0001:00026184       BN_bn2dec                  0000000000026444 f   OpensslLib:bn_print.obj
 0001:000263b8       BN_hex2bn                  0000000000026678 f   OpensslLib:bn_print.obj
 0001:00026574       BN_dec2bn                  0000000000026834 f   OpensslLib:bn_print.obj
 0001:000267e8       CRYPTO_strdup              0000000000026aa8 f   OpensslLib:o_str.obj
 0001:00026850       CRYPTO_strndup             0000000000026b10 f   OpensslLib:o_str.obj
 0001:000268cc       CRYPTO_memdup              0000000000026b8c f   OpensslLib:o_str.obj
 0001:00026938       OPENSSL_strlcpy            0000000000026bf8 f   OpensslLib:o_str.obj
 0001:0002698c       OPENSSL_hexchar2int        0000000000026c4c f   OpensslLib:o_str.obj
 0001:00026a4c       OPENSSL_hexstr2buf         0000000000026d0c f   OpensslLib:o_str.obj
 0001:00026b50       OPENSSL_buf2hexstr         0000000000026e10 f   OpensslLib:o_str.obj
 0001:00026bf0       BN_mod_word                0000000000026eb0 f   OpensslLib:bn_word.obj
 0001:00026c94       BN_div_word                0000000000026f54 f   OpensslLib:bn_word.obj
 0001:00026d80       BN_add_word                0000000000027040 f   OpensslLib:bn_word.obj
 0001:00026e54       BN_sub_word                0000000000027114 f   OpensslLib:bn_word.obj
 0001:00026f24       BN_mul_word                00000000000271e4 f   OpensslLib:bn_word.obj
 0001:00027030       BN_num_bits_word           00000000000272f0 f   OpensslLib:bn_lib.obj
 0001:00027108       BN_num_bits                00000000000273c8 f   OpensslLib:bn_lib.obj
 0001:0002721c       BN_clear_free              00000000000274dc f   OpensslLib:bn_lib.obj
 0001:00027268       BN_free                    0000000000027528 f   OpensslLib:bn_lib.obj
 0001:000272c8       BN_new                     0000000000027588 f   OpensslLib:bn_lib.obj
 0001:00027304       bn_expand2                 00000000000275c4 f   OpensslLib:bn_lib.obj
 0001:000273b8       BN_dup                     0000000000027678 f   OpensslLib:bn_lib.obj
 0001:0002741c       BN_copy                    00000000000276dc f   OpensslLib:bn_lib.obj
 0001:0002747c       BN_set_word                000000000002773c f   OpensslLib:bn_lib.obj
 0001:000274c8       BN_bin2bn                  0000000000027788 f   OpensslLib:bn_lib.obj
 0001:000276f0       BN_ucmp                    00000000000279b0 f   OpensslLib:bn_lib.obj
 0001:00027738       BN_cmp                     00000000000279f8 f   OpensslLib:bn_lib.obj
 0001:000277bc       BN_set_bit                 0000000000027a7c f   OpensslLib:bn_lib.obj
 0001:0002784c       BN_is_bit_set              0000000000027b0c f   OpensslLib:bn_lib.obj
 0001:0002787c       BN_consttime_swap          0000000000027b3c f   OpensslLib:bn_lib.obj
 0001:00027920       BN_security_bits           0000000000027be0 f   OpensslLib:bn_lib.obj
 0001:00027988       bn_correct_top             0000000000027c48 f   OpensslLib:bn_lib.obj
 0001:000279b8       a2d_ASN1_OBJECT            0000000000027c78 f   OpensslLib:a_object.obj
 0001:00027d14       i2a_ASN1_OBJECT            0000000000027fd4 f   OpensslLib:a_object.obj
 0001:00027e50       d2i_ASN1_OBJECT            0000000000028110 f   OpensslLib:a_object.obj
 0001:00027ed8       c2i_ASN1_OBJECT            0000000000028198 f   OpensslLib:a_object.obj
 0001:0002809c       ASN1_OBJECT_free           000000000002835c f   OpensslLib:a_object.obj
 0001:000280f8       BN_lshift1                 00000000000283b8 f   OpensslLib:bn_shift.obj
 0001:000281a0       BN_rshift1                 0000000000028460 f   OpensslLib:bn_shift.obj
 0001:00028274       BN_lshift                  0000000000028534 f   OpensslLib:bn_shift.obj
 0001:000282b8       bn_lshift_fixed_top        0000000000028578 f   OpensslLib:bn_shift.obj
 0001:000283f0       BN_rshift                  00000000000286b0 f   OpensslLib:bn_shift.obj
 0001:0002842c       bn_rshift_fixed_top        00000000000286ec f   OpensslLib:bn_shift.obj
 0001:00028534       DH_new                     00000000000287f4 f   OpensslLib:dh_lib.obj
 0001:000286ac       DH_free                    000000000002896c f   OpensslLib:dh_lib.obj
 0001:0002875c       EVP_PKEY_asn1_find         0000000000028a1c f   OpensslLib:ameth_lib.obj
 0001:00028874       CMAC_CTX_new               0000000000028b34 f   OpensslLib:cmac.obj
 0001:000288d4       CMAC_CTX_free              0000000000028b94 f   OpensslLib:cmac.obj
 0001:0002896c       CMAC_CTX_copy              0000000000028c2c f   OpensslLib:cmac.obj
 0001:00028a08       CMAC_Init                  0000000000028cc8 f   OpensslLib:cmac.obj
 0001:00028ba0       ASN1_STRING_set_by_NID     0000000000028e60 f   OpensslLib:a_strnid.obj
 0001:00028c30       ASN1_STRING_TABLE_get      0000000000028ef0 f   OpensslLib:a_strnid.obj
 0001:00028cbc       ASN1_STRING_print          0000000000028f7c f   OpensslLib:a_print.obj
 0001:00028d98       ASN1_tag2str               0000000000029058 f   OpensslLib:asn1_par.obj
 0001:00028dc8       UTF8_getc                  0000000000029088 f   OpensslLib:a_utf8.obj
 0001:000290b8       UTF8_putc                  0000000000029378 f   OpensslLib:a_utf8.obj
 0001:00029278       ASN1_mbstring_ncopy        0000000000029538 f   OpensslLib:a_mbstr.obj
 0001:00029838       rsa_multip_info_free       0000000000029af8 f   OpensslLib:rsa_mp.obj
 0001:00029874       rsa_multip_info_new        0000000000029b34 f   OpensslLib:rsa_mp.obj
 0001:00029934       rsa_multip_calc_product    0000000000029bf4 f   OpensslLib:rsa_mp.obj
 0001:00029f80       i2c_ASN1_BIT_STRING        000000000002a240 f   OpensslLib:a_bitstr.obj
 0001:0002a098       c2i_ASN1_BIT_STRING        000000000002a358 f   OpensslLib:a_bitstr.obj
 0001:0002a1e8       ASN1_BIT_STRING_set_bit    000000000002a4a8 f   OpensslLib:a_bitstr.obj
 0001:0002a2f0       asn1_do_lock               000000000002a5b0 f   OpensslLib:tasn_utl.obj
 0001:0002a390       asn1_do_adb                000000000002a650 f   OpensslLib:tasn_utl.obj
 0001:0002a444       ASN1_TYPE_set              000000000002a704 f   OpensslLib:a_type.obj
 0001:0002a4a8       ASN1_TYPE_cmp              000000000002a768 f   OpensslLib:a_type.obj
 0001:0002a51c       ASN1_TYPE_unpack_sequence  000000000002a7dc f   OpensslLib:a_type.obj
 0001:0002a574       EVP_CIPHER_CTX_reset       000000000002a834 f   OpensslLib:evp_enc.obj
 0001:0002a5e0       EVP_CipherInit_ex          000000000002a8a0 f   OpensslLib:evp_enc.obj
 0001:0002aa54       EVP_EncryptFinal_ex        000000000002ad14 f   OpensslLib:evp_enc.obj
 0001:0002ab20       EVP_DecryptUpdate          000000000002ade0 f   OpensslLib:evp_enc.obj
 0001:0002ad40       EVP_DecryptFinal_ex        000000000002b000 f   OpensslLib:evp_enc.obj
 0001:0002ae50       EVP_CIPHER_CTX_set_key_length 000000000002b110 f   OpensslLib:evp_enc.obj
 0001:0002aea8       EVP_CIPHER_CTX_ctrl        000000000002b168 f   OpensslLib:evp_enc.obj
 0001:0002aef0       EVP_CIPHER_CTX_copy        000000000002b1b0 f   OpensslLib:evp_enc.obj
 0001:0002b154       OPENSSL_gmtime_adj         000000000002b414 f   OpensslLib:o_time.obj
 0001:0002b228       OPENSSL_gmtime_diff        000000000002b4e8 f   OpensslLib:o_time.obj
 0001:0002b4f8       ACCESS_DESCRIPTION_free    000000000002b7b8 f   OpensslLib:v3_info.obj
 0001:0002b954       CONF_parse_list            000000000002bc14 f   OpensslLib:conf_mod.obj
 0001:0002ba50       X509V3_EXT_get_nid         000000000002bd10 f   OpensslLib:v3_lib.obj
 0001:0002bae4       X509V3_EXT_d2i             000000000002bda4 f   OpensslLib:v3_lib.obj
 0001:0002bb48       X509V3_get_d2i             000000000002be08 f   OpensslLib:v3_lib.obj
 0001:0002bc4c       level_add_node             000000000002bf0c f   OpensslLib:pcy_node.obj
 0001:0002bd70       policy_data_free           000000000002c030 f   OpensslLib:pcy_data.obj
 0001:0002bdbc       policy_data_new            000000000002c07c f   OpensslLib:pcy_data.obj
 0001:0002be98       i2v_GENERAL_NAMES          000000000002c158 f   OpensslLib:v3_alt.obj
 0001:0002bf48       i2v_GENERAL_NAME           000000000002c208 f   OpensslLib:v3_alt.obj
 0001:0002c0d8       GENERAL_NAME_print         000000000002c398 f   OpensslLib:v3_alt.obj
 0001:0002c664       v2i_GENERAL_NAMES          000000000002c924 f   OpensslLib:v3_alt.obj
 0001:0002c730       a2i_GENERAL_NAME           000000000002c9f0 f   OpensslLib:v3_alt.obj
 0001:0002c964       v2i_GENERAL_NAME_ex        000000000002cc24 f   OpensslLib:v3_alt.obj
 0001:0002cc44       X509V3_get_section         000000000002cf04 f   OpensslLib:v3_conf.obj
 0001:0002ce20       POLICYINFO_free            000000000002d0e0 f   OpensslLib:v3_cpols.obj
 0001:0002ce44       POLICYQUALINFO_free        000000000002d104 f   OpensslLib:v3_cpols.obj
 0001:0002dae8       policy_cache_set_mapping   000000000002dda8 f   OpensslLib:pcy_map.obj
 0001:0002dc78       rand_drbg_get_entropy      000000000002df38 f   OpensslLib:rand_lib.obj
 0001:0002ddfc       rand_drbg_cleanup_entropy  000000000002e0bc f   OpensslLib:rand_lib.obj
 0001:0002de38       rand_drbg_get_nonce        000000000002e0f8 f   OpensslLib:rand_lib.obj
 0001:0002df20       rand_drbg_cleanup_nonce    000000000002e1e0 f   OpensslLib:rand_lib.obj
 0001:0002dfbc       rand_pool_new              000000000002e27c f   OpensslLib:rand_lib.obj
 0001:0002e090       rand_pool_free             000000000002e350 f   OpensslLib:rand_lib.obj
 0001:0002e1ec       rand_pool_bytes_needed     000000000002e4ac f   OpensslLib:rand_lib.obj
 0001:0002e274       rand_pool_add              000000000002e534 f   OpensslLib:rand_lib.obj
 0001:0002e308       rand_pool_add_begin        000000000002e5c8 f   OpensslLib:rand_lib.obj
 0001:0002e360       rand_pool_add_end          000000000002e620 f   OpensslLib:rand_lib.obj
 0001:0002e3a4       RAND_get_rand_method       000000000002e664 f   OpensslLib:rand_lib.obj
 0001:0002e3f0       RAND_priv_bytes            000000000002e6b0 f   OpensslLib:rand_lib.obj
 0001:0002e448       RAND_bytes                 000000000002e708 f   OpensslLib:rand_lib.obj
 0001:0002edd8       EVP_DigestSignFinal        000000000002f098 f   OpensslLib:m_sigver.obj
 0001:0002efb8       EVP_DigestVerifyFinal      000000000002f278 f   OpensslLib:m_sigver.obj
 0001:0002f400       EVP_SignFinal              000000000002f6c0 f   OpensslLib:p_sign.obj
 0001:0002f5d8       EVP_PKEY_sign_init         000000000002f898 f   OpensslLib:pmeth_fn.obj
 0001:0002f634       EVP_PKEY_sign              000000000002f8f4 f   OpensslLib:pmeth_fn.obj
 0001:0002f744       EVP_PKEY_verify_init       000000000002fa04 f   OpensslLib:pmeth_fn.obj
 0001:0002f7a0       EVP_PKEY_verify            000000000002fa60 f   OpensslLib:pmeth_fn.obj
 0001:0002f7fc       EVP_VerifyFinal            000000000002fabc f   OpensslLib:p_verify.obj
 0001:0002f938       openssl_add_all_ciphers_int 000000000002fbf8 f   OpensslLib:c_allc.obj
 0001:0002fdd4       RAND_DRBG_set              0000000000030094 f   OpensslLib:drbg_lib.obj
 0001:0002ffa8       RAND_DRBG_free             0000000000030268 f   OpensslLib:drbg_lib.obj
 0001:00030018       RAND_DRBG_instantiate      00000000000302d8 f   OpensslLib:drbg_lib.obj
 0001:00030250       RAND_DRBG_reseed           0000000000030510 f   OpensslLib:drbg_lib.obj
 0001:000303c8       rand_drbg_restart          0000000000030688 f   OpensslLib:drbg_lib.obj
 0001:00030704       RAND_DRBG_generate         00000000000309c4 f   OpensslLib:drbg_lib.obj
 0001:00030878       RAND_DRBG_bytes            0000000000030b38 f   OpensslLib:drbg_lib.obj
 0001:00030d90       RAND_DRBG_get0_master      0000000000031050 f   OpensslLib:drbg_lib.obj
 0001:00030dc4       RAND_DRBG_get0_private     0000000000031084 f   OpensslLib:drbg_lib.obj
 0001:00034840       BIO_dump_indent_cb         0000000000034b00 f   OpensslLib:b_dump.obj
 0001:00036494       BN_BLINDING_new            0000000000036754 f   OpensslLib:bn_blind.obj
 0001:00036538       BN_BLINDING_free           00000000000367f8 f   OpensslLib:bn_blind.obj
 0001:00036588       BN_BLINDING_update         0000000000036848 f   OpensslLib:bn_blind.obj
 0001:00036694       BN_BLINDING_convert_ex     0000000000036954 f   OpensslLib:bn_blind.obj
 0001:00036754       BN_BLINDING_invert_ex      0000000000036a14 f   OpensslLib:bn_blind.obj
 0001:0003683c       BN_BLINDING_create_param   0000000000036afc f   OpensslLib:bn_blind.obj
 0001:000369f8       bn_mul_add_words           0000000000036cb8 f   OpensslLib:bn_asm.obj
 0001:00036ac8       bn_mul_words               0000000000036d88 f   OpensslLib:bn_asm.obj
 0001:00036b88       bn_div_words               0000000000036e48 f   OpensslLib:bn_asm.obj
 0001:00036cec       bn_add_words               0000000000036fac f   OpensslLib:bn_asm.obj
 0001:00036d44       bn_sub_words               0000000000037004 f   OpensslLib:bn_asm.obj
 0001:00036da4       bn_mul_mont_fixed_top      0000000000037064 f   OpensslLib:bn_mont.obj
 0001:00036ff8       bn_from_mont_fixed_top     00000000000372b8 f   OpensslLib:bn_mont.obj
 0001:0003707c       BN_MONT_CTX_new            000000000003733c f   OpensslLib:bn_mont.obj
 0001:000370f0       BN_MONT_CTX_free           00000000000373b0 f   OpensslLib:bn_mont.obj
 0001:0003712c       BN_MONT_CTX_set            00000000000373ec f   OpensslLib:bn_mont.obj
 0001:000373f0       BN_MONT_CTX_set_locked     00000000000376b0 f   OpensslLib:bn_mont.obj
 0001:00038a50       rsa_pss_params_create      0000000000038d10 f   OpensslLib:rsa_ameth.obj
 0001:00038f68       rsa_pss_get_param          0000000000039228 f   OpensslLib:rsa_ameth.obj
 0001:0003a1dc       bn_mul_fixed_top           000000000003a49c f   OpensslLib:bn_mul.obj
 0001:0003a2e0       bn_mul_normal              000000000003a5a0 f   OpensslLib:bn_mul.obj
 0001:0003a400       BN_CTX_new                 000000000003a6c0 f   OpensslLib:bn_ctx.obj
 0001:0003a444       BN_CTX_free                000000000003a704 f   OpensslLib:bn_ctx.obj
 0001:0003a4c4       BN_CTX_start               000000000003a784 f   OpensslLib:bn_ctx.obj
 0001:0003a50c       BN_CTX_end                 000000000003a7cc f   OpensslLib:bn_ctx.obj
 0001:0003a584       BN_CTX_get                 000000000003a844 f   OpensslLib:bn_ctx.obj
 0001:0003a794       ASN1_item_pack             000000000003aa54 f   OpensslLib:asn_pack.obj
 0001:0003aa1c       i2v_ASN1_BIT_STRING        000000000003acdc f   OpensslLib:v3_bitst.obj
 0001:0003aab0       v2i_ASN1_BIT_STRING        000000000003ad70 f   OpensslLib:v3_bitst.obj
 0001:0003b414       i2s_ASN1_IA5STRING         000000000003b6d4 f   OpensslLib:v3_ia5.obj
 0001:0003b484       s2i_ASN1_IA5STRING         000000000003b744 f   OpensslLib:v3_ia5.obj
 0001:0003baf0       i2s_ASN1_OCTET_STRING      000000000003bdb0 f   OpensslLib:v3_skey.obj
 0001:0003bc4c       i2s_ASN1_ENUMERATED_TABLE  000000000003bf0c f   OpensslLib:v3_enum.obj
 0001:0003bd90       POLICY_MAPPING_free        000000000003c050 f   OpensslLib:v3_pmaps.obj
 0001:0003c1bc       SXNET_add_id_INTEGER       000000000003c47c f   OpensslLib:v3_sxnet.obj
 0001:0003c384       SXNET_get_id_INTEGER       000000000003c644 f   OpensslLib:v3_sxnet.obj
 0001:0003cf94       ASN1_generate_v3           000000000003d254 f   OpensslLib:asn1_gen.obj
 0001:0003defc       rand_pool_acquire_entropy  000000000003e1bc f   OpensslLib:rand_pool.obj
 0001:0003dfe0       HMAC_Init_ex               000000000003e2a0 f   OpensslLib:hmac.obj
 0001:0003e200       HMAC_Final                 000000000003e4c0 f   OpensslLib:hmac.obj
 0001:0003e290       HMAC_CTX_new               000000000003e550 f   OpensslLib:hmac.obj
 0001:0003e30c       HMAC_CTX_free              000000000003e5cc f   OpensslLib:hmac.obj
 0001:0003e3e8       HMAC_CTX_copy              000000000003e6a8 f   OpensslLib:hmac.obj
 0001:00041d38       drbg_ctr_init              0000000000041ff8 f   OpensslLib:drbg_ctr.obj
 0001:00042504       DH_new_by_nid              00000000000427c4 f   OpensslLib:dh_rfc7919.obj
 0001:0004273c       RSA_sign_ASN1_OCTET_STRING 00000000000429fc f   OpensslLib:rsa_saos.obj
 0001:00042978       RSA_setup_blinding         0000000000042c38 f   OpensslLib:rsa_crpt.obj
 0001:00042ad8       RSA_padding_add_PKCS1_OAEP_mgf1 0000000000042d98 f   OpensslLib:rsa_oaep.obj
 0001:00042d94       RSA_padding_check_PKCS1_OAEP_mgf1 0000000000043054 f   OpensslLib:rsa_oaep.obj
 0001:000432f4       PKCS1_MGF1                 00000000000435b4 f   OpensslLib:rsa_oaep.obj
 0001:00043efc       RSA_sign                   00000000000441bc f   OpensslLib:rsa_sign.obj
 0001:00044070       int_rsa_verify             0000000000044330 f   OpensslLib:rsa_sign.obj
 0001:00044458       RSA_verify_PKCS1_PSS_mgf1  0000000000044718 f   OpensslLib:rsa_pss.obj
 0001:00044788       RSA_padding_add_PKCS1_PSS_mgf1 0000000000044a48 f   OpensslLib:rsa_pss.obj
 0001:00044aa8       RSA_X931_hash_id           0000000000044d68 f   OpensslLib:rsa_x931.obj
 0001:00044adc       SipHash_Init               0000000000044d9c f   OpensslLib:siphash.obj
 0001:00044c18       SipHash_Update             0000000000044ed8 f   OpensslLib:siphash.obj
 0001:00044e34       SipHash_Final              00000000000450f4 f   OpensslLib:siphash.obj
 0001:00045078       BN_add                     0000000000045338 f   OpensslLib:bn_add.obj
 0001:000450e8       BN_sub                     00000000000453a8 f   OpensslLib:bn_add.obj
 0001:00045160       BN_uadd                    0000000000045420 f   OpensslLib:bn_add.obj
 0001:0004522c       BN_usub                    00000000000454ec f   OpensslLib:bn_add.obj
 0001:0004531c       RSA_padding_check_PKCS1_type_1 00000000000455dc f   OpensslLib:rsa_pk1.obj
 0001:000453ec       RSA_padding_add_PKCS1_type_2 00000000000456ac f   OpensslLib:rsa_pk1.obj
 0001:000454a4       RSA_padding_check_PKCS1_type_2 0000000000045764 f   OpensslLib:rsa_pk1.obj
 0001:000457b4       BN_mod_exp                 0000000000045a74 f   OpensslLib:bn_exp.obj
 0001:00045824       BN_mod_exp_recp            0000000000045ae4 f   OpensslLib:bn_exp.obj
 0001:00045bf8       BN_mod_exp_mont            0000000000045eb8 f   OpensslLib:bn_exp.obj
 0001:000463dc       BN_mod_exp_mont_consttime  000000000004669c f   OpensslLib:bn_exp.obj
 0001:000468f0       BN_mod_exp_mont_word       0000000000046bb0 f   OpensslLib:bn_exp.obj
 0001:00046d28       RSA_padding_add_SSLv23     0000000000046fe8 f   OpensslLib:rsa_ssl.obj
 0001:00046df4       RSA_padding_check_SSLv23   00000000000470b4 f   OpensslLib:rsa_ssl.obj
 0001:000471e0       BN_nnmod                   00000000000474a0 f   OpensslLib:bn_mod.obj
 0001:00047244       bn_mod_add_fixed_top       0000000000047504 f   OpensslLib:bn_mod.obj
 0001:000473ec       bn_mod_sub_fixed_top       00000000000476ac f   OpensslLib:bn_mod.obj
 0001:0004756c       BN_mod_mul                 000000000004782c f   OpensslLib:bn_mod.obj
 0001:00047624       BN_div                     00000000000478e4 f   OpensslLib:bn_div.obj
 0001:000476ac       bn_div_fixed_top           000000000004796c f   OpensslLib:bn_div.obj
 0001:00047ab0       BN_mod_inverse             0000000000047d70 f   OpensslLib:bn_gcd.obj
 0001:00047aec       int_bn_mod_inverse         0000000000047dac f   OpensslLib:bn_gcd.obj
 0001:000484ec       BN_gcd                     00000000000487ac f   OpensslLib:bn_gcd.obj
 0001:00048ac0       bn_sqr_fixed_top           0000000000048d80 f   OpensslLib:bn_sqr.obj
 0001:00048bec       bn_sqr_normal              0000000000048eac f   OpensslLib:bn_sqr.obj
 0001:00048d24       DH_check_params            0000000000048fe4 f   OpensslLib:dh_check.obj
 0001:00048e08       DH_check                   00000000000490c8 f   OpensslLib:dh_check.obj
 0001:00048fcc       DH_check_pub_key           000000000004928c f   OpensslLib:dh_check.obj
 0001:000490e8       RSA_check_key_ex           00000000000493a8 f   OpensslLib:rsa_chk.obj
 0001:00049830       X509_signature_dump        0000000000049af0 f   OpensslLib:t_x509.obj
 0001:0004993c       ASN1_buf_print             0000000000049bfc f   OpensslLib:t_pkey.obj
 0001:00049a24       ASN1_bn_print              0000000000049ce4 f   OpensslLib:t_pkey.obj
 0001:00049bd4       i2a_ASN1_INTEGER           0000000000049e94 f   OpensslLib:f_int.obj
 0001:00049d70       d2i_DHxparams              000000000004a030 f   OpensslLib:dh_asn1.obj
 0001:00049e4c       i2a_ASN1_STRING            000000000004a10c f   OpensslLib:f_string.obj
 0001:00049f6c       AES_set_encrypt_key        000000000004a22c f   OpensslLib:aes_core.obj
 0001:0004a554       AES_set_decrypt_key        000000000004a814 f   OpensslLib:aes_core.obj
 0001:0004a790       AES_encrypt                000000000004aa50 f   OpensslLib:aes_core.obj
 0001:0004add4       AES_decrypt                000000000004b094 f   OpensslLib:aes_core.obj
 0001:0004b474       SM4_set_key                000000000004b734 f   OpensslLib:sm4.obj
 0001:0004b630       SM4_encrypt                000000000004b8f0 f   OpensslLib:sm4.obj
 0001:0004bee0       SM4_decrypt                000000000004c1a0 f   OpensslLib:sm4.obj
 0001:0004c790       CRYPTO_cbc128_encrypt      000000000004ca50 f   OpensslLib:cbc128.obj
 0001:0004c85c       CRYPTO_cbc128_decrypt      000000000004cb1c f   OpensslLib:cbc128.obj
 0001:0004c91c       CRYPTO_ofb128_encrypt      000000000004cbdc f   OpensslLib:ofb128.obj
 0001:0004c9a4       CRYPTO_ctr128_encrypt      000000000004cc64 f   OpensslLib:ctr128.obj
 0001:0004ca54       CRYPTO_ctr128_encrypt_ctr32 000000000004cd14 f   OpensslLib:ctr128.obj
 0001:0004cc4c       CRYPTO_cfb128_encrypt      000000000004cf0c f   OpensslLib:cfb128.obj
 0001:0004ce4c       CRYPTO_cfb128_1_encrypt    000000000004d10c f   OpensslLib:cfb128.obj
 0001:0004cf40       CRYPTO_cfb128_8_encrypt    000000000004d200 f   OpensslLib:cfb128.obj
 0001:0004d144       CRYPTO_gcm128_init         000000000004d404 f   OpensslLib:gcm128.obj
 0001:0004d320       CRYPTO_gcm128_setiv        000000000004d5e0 f   OpensslLib:gcm128.obj
 0001:0004d4e4       CRYPTO_gcm128_aad          000000000004d7a4 f   OpensslLib:gcm128.obj
 0001:0004d620       CRYPTO_gcm128_encrypt      000000000004d8e0 f   OpensslLib:gcm128.obj
 0001:0004d768       CRYPTO_gcm128_decrypt      000000000004da28 f   OpensslLib:gcm128.obj
 0001:0004d8b0       CRYPTO_gcm128_finish       000000000004db70 f   OpensslLib:gcm128.obj
 0001:0004da38       CRYPTO_gcm128_tag          000000000004dcf8 f   OpensslLib:gcm128.obj
 0001:0004da70       CRYPTO_ccm128_init         000000000004dd30 f   OpensslLib:ccm128.obj
 0001:0004dad8       CRYPTO_ccm128_setiv        000000000004dd98 f   OpensslLib:ccm128.obj
 0001:0004db6c       CRYPTO_ccm128_aad          000000000004de2c f   OpensslLib:ccm128.obj
 0001:0004dce8       CRYPTO_ccm128_encrypt      000000000004dfa8 f   OpensslLib:ccm128.obj
 0001:0004df9c       CRYPTO_ccm128_decrypt      000000000004e25c f   OpensslLib:ccm128.obj
 0001:0004e198       CRYPTO_ccm128_encrypt_ccm64 000000000004e458 f   OpensslLib:ccm128.obj
 0001:0004e3e0       CRYPTO_ccm128_decrypt_ccm64 000000000004e6a0 f   OpensslLib:ccm128.obj
 0001:0004e5d8       CRYPTO_ccm128_tag          000000000004e898 f   OpensslLib:ccm128.obj
 0001:0004e970       aria_encrypt               000000000004ec30 f   OpensslLib:aria.obj
 0001:0004ea64       aria_set_encrypt_key       000000000004ed24 f   OpensslLib:aria.obj
 0001:0004ed90       aria_set_decrypt_key       000000000004f050 f   OpensslLib:aria.obj
 0001:0004ee44       CRYPTO_xts128_encrypt      000000000004f104 f   OpensslLib:xts128.obj
 0001:0004f0e4       CRYPTO_128_wrap            000000000004f3a4 f   OpensslLib:wrap128.obj
 0001:0004f364       CRYPTO_128_wrap_pad        000000000004f624 f   OpensslLib:wrap128.obj
 0001:0004f490       CRYPTO_128_unwrap_pad      000000000004f750 f   OpensslLib:wrap128.obj
 0001:0004f634       AES_cbc_encrypt            000000000004f8f4 f   OpensslLib:aes_cbc.obj
 0001:0005063c       SHA3_absorb                00000000000508fc f   OpensslLib:keccak1600.obj
 0001:00050704       SHA3_squeeze               00000000000509c4 f   OpensslLib:keccak1600.obj
 0001:000507e0       sm3_final                  0000000000050aa0 f   OpensslLib:sm3.obj
 0001:00050a10       sm3_block_data_order       0000000000050cd0 f   OpensslLib:sm3.obj
 0001:000530e8       BN_GENCB_call              00000000000533a8 f   OpensslLib:bn_prime.obj
 0001:0005313c       BN_generate_prime_ex       00000000000533fc f   OpensslLib:bn_prime.obj
 0001:000533a4       BN_is_prime_fasttest_ex    0000000000053664 f   OpensslLib:bn_prime.obj
 0001:00053c08       BN_mod_mul_reciprocal      0000000000053ec8 f   OpensslLib:bn_recp.obj
 0001:00053cc8       BN_div_recp                0000000000053f88 f   OpensslLib:bn_recp.obj
 0001:00054144       time                       0000000000054404 f   BaseCryptLib:TimerWrapper.obj
 0001:000542a0       gmtime                     0000000000054560 f   BaseCryptLib:TimerWrapper.obj
 0001:00054700       strchr                     00000000000549c0 f   BaseCryptLib:CrtWrapper.obj
 0001:00054730       strncasecmp                00000000000549f0 f   BaseCryptLib:CrtWrapper.obj
 0001:000547ec       BIO_printf                 0000000000054aac f   BaseCryptLib:CrtWrapper.obj
 0001:000547ec       sscanf                     0000000000054aac f   BaseCryptLib:CrtWrapper.obj
 0001:000547fc       qsort                      0000000000054abc f   BaseCryptLib:CrtWrapper.obj
 0001:000548dc       BIO_snprintf               0000000000054b9c f   BaseCryptLib:CrtWrapper.obj
 0001:000548e4       GetPcdProtocol             0000000000054ba4 f   DxePcdLib:DxePcdLib.obj
 0001:00054994       ScanMem8                   0000000000054c54 f   BaseMemoryLibRepStr:ScanMem8Wrapper.obj
 0001:00054a2c       memset                     0000000000054cec f   BaseIntrinsicLib:MemoryIntrinsics.obj
 0001:00054a44       strcmp                     0000000000054d04 f   BaseIntrinsicLib:MemoryIntrinsics.obj
 0002:00000000       ??_C@_0CB@DMEJJJHA@?6ASSERT_EFI_ERROR?5?$CIStatus?5?$DN?5?$CFr?$CJ@ 0000000000054d20     UefiDriverEntryPoint:DriverEntryPoint.obj
 0002:00000028       ??_C@_0BE@DCHLEIGN@?$CBEFI_ERROR?5?$CIStatus?$CJ@ 0000000000054d48     UefiDriverEntryPoint:DriverEntryPoint.obj
 0002:00000040       ??_C@_0BA@LJMMGAKJ@SecurityStubDxe@ 0000000000054d60     SecurityStubDxe:AutoGen.obj
 0002:00000050       ??_C@_0CE@IBFOBMLB@?6ASSERT_RETURN_ERROR?5?$CIStatus?5?$DN?5@ 0000000000054d70     SecurityStubDxe:AutoGen.obj
 0002:00000078       ??_C@_0BH@BACADMEC@?$CBRETURN_ERROR?5?$CIStatus?$CJ@ 0000000000054d98     SecurityStubDxe:AutoGen.obj
 0002:00000090       ??_C@_0JH@PFNBMPGK@e?3?2code?2adl_n100_code?2uefipldpl@ 0000000000054db0     SecurityStubDxe:AutoGen.obj
 0002:00000128       gEfiCertSha1Guid           0000000000054e48     SecurityStubDxe:AutoGen.obj
 0002:00000138       gEfiCertSha512Guid         0000000000054e58     SecurityStubDxe:AutoGen.obj
 0002:00000148       gEfiCertSha256Guid         0000000000054e68     SecurityStubDxe:AutoGen.obj
 0002:00000158       gEfiCertSha384Guid         0000000000054e78     SecurityStubDxe:AutoGen.obj
 0002:00000170       ??_C@_0GF@CCHDHNBM@e?3?2code?2adl_n100_code?2uefipldpl@ 0000000000054e90     SecurityStubDxe:SecurityStub.obj
 0002:000001d8       ??_C@_0DN@IMCCOJCP@?$CGgEfiSecurity2ArchProtocolGuid?5@ 0000000000054ef8     SecurityStubDxe:SecurityStub.obj
 0002:00000218       ??_C@_0DM@NIBNIPIJ@?$CGgEfiSecurityArchProtocolGuid?5a@ 0000000000054f38     SecurityStubDxe:SecurityStub.obj
 0002:00000260       ??_C@_0EB@BCIIIHHL@mDeferred3rdPartyImage?4ImageInf@ 0000000000054f80     SecurityStubDxe:Defer3rdPartyImageLoad.obj
 0002:000002b0       ??_C@_0GP@HPPJOJBF@e?3?2code?2adl_n100_code?2uefipldpl@ 0000000000054fd0     SecurityStubDxe:Defer3rdPartyImageLoad.obj
 0002:00000320       ??_C@_0FP@DHGKCBJI@?$FLSecurity?$FN?53rd?5party?5images?5mus@ 0000000000055040     SecurityStubDxe:Defer3rdPartyImageLoad.obj
 0002:00000380       ??_C@_0BC@FEDIJHFF@?$CI?$CIBOOLEAN?$CJ?$CI0?$DN?$DN1?$CJ?$CJ@ 00000000000550a0     SecurityStubDxe:Defer3rdPartyImageLoad.obj
 0002:00000398       ??_C@_1CI@IGGGDBOL@?$AAc?$AAa?$AAn?$AA?5?$AAb?$AAe?$AA?5?$AAl?$AAo?$AAa?$AAd?$AAe?$AAd?$AA?5?$AAa@ 00000000000550b8     SecurityStubDxe:Defer3rdPartyImageLoad.obj
 0002:000003c0       ??_C@_1DG@HBDOOEMM@?$AAi?$AAs?$AA?5?$AAd?$AAe?$AAf?$AAe?$AAr?$AAr?$AAe?$AAd?$AA?5?$AAt?$AAo?$AA?5@ 00000000000550e0     SecurityStubDxe:Defer3rdPartyImageLoad.obj
 0002:000003f8       ??_C@_0DB@JKBMKBKE@?$FLSecurity?$FN?53rd?5party?5image?$FL?$CFp?$FN?5@ 0000000000055118     SecurityStubDxe:Defer3rdPartyImageLoad.obj
 0002:00000430       ??_C@_0ED@MKGCMJG@?$CILength?5?9?51?$CJ?5?$DM?$DN?5?$CI0xFFFFFFFFFFFF@ 0000000000055150     BaseMemoryLibRepStr:CopyMemWrapper.obj
 0002:00000480       ??_C@_0GD@KEIKLFBO@e?3?2code?2adl_n100_code?2uefipldpl@ 00000000000551a0     BaseMemoryLibRepStr:CopyMemWrapper.obj
 0002:000004e8       ??_C@_0DO@MAOBOFEG@?$CILength?5?9?51?$CJ?5?$DM?$DN?5?$CI0xFFFFFFFFFFFF@ 0000000000055208     BaseMemoryLibRepStr:CopyMemWrapper.obj
 0002:00000528       ??_C@_0CC@JOEHDGKB@DestinationBuffer?5?$CB?$DN?5?$CI?$CIvoid?5?$CK?$CJ?5@ 0000000000055248     BaseMemoryLibRepStr:CompareMemWrapper.obj
 0002:00000550       ??_C@_0GG@KGPFBOP@e?3?2code?2adl_n100_code?2uefipldpl@ 0000000000055270     BaseMemoryLibRepStr:CompareMemWrapper.obj
 0002:000005b8       ??_C@_0BN@MDMCNBCC@SourceBuffer?5?$CB?$DN?5?$CI?$CIvoid?5?$CK?$CJ?50?$CJ@ 00000000000552d8     BaseMemoryLibRepStr:CompareMemWrapper.obj
 0002:000005d8       ??_C@_0BH@LKMBFCBF@Format?5?$CB?$DN?5?$CI?$CIvoid?5?$CK?$CJ?50?$CJ@ 00000000000552f8     BaseDebugLibSerialPort:DebugLib.obj
 0002:000005f0       ??_C@_0GA@HBBJHLGK@e?3?2code?2adl_n100_code?2uefipldpl@ 0000000000055310     BaseDebugLibSerialPort:DebugLib.obj
 0002:00000650       ??_C@_0BI@NOCKJDBJ@ASSERT?5?$FL?$CFa?$FN?5?$CFa?$CI?$CFd?$CJ?3?5?$CFa?6@ 0000000000055370     BaseDebugLibSerialPort:DebugLib.obj
 0002:00000668       ??_C@_0BH@IACGKAP@Buffer?5?$CB?$DN?5?$CI?$CIvoid?5?$CK?$CJ?50?$CJ@ 0000000000055388     BaseDebugLibSerialPort:DebugLib.obj
 0002:00000680       ??_C@_0BN@COECPDCC@gImageHandle?5?$CB?$DN?5?$CI?$CIvoid?5?$CK?$CJ?50?$CJ@ 00000000000553a0     UefiBootServicesTableLib:UefiBootServicesTableLib.obj
 0002:000006a0       ??_C@_0HC@EIFDGPFB@e?3?2code?2adl_n100_code?2uefipldpl@ 00000000000553c0     UefiBootServicesTableLib:UefiBootServicesTableLib.obj
 0002:00000718       ??_C@_0BE@DGNHAHIL@gST?5?$CB?$DN?5?$CI?$CIvoid?5?$CK?$CJ?50?$CJ@ 0000000000055438     UefiBootServicesTableLib:UefiBootServicesTableLib.obj
 0002:00000730       ??_C@_0BE@BDFJLGLN@gBS?5?$CB?$DN?5?$CI?$CIvoid?5?$CK?$CJ?50?$CJ@ 0000000000055450     UefiBootServicesTableLib:UefiBootServicesTableLib.obj
 0002:00000750       ??_C@_0GM@CBJAAOLO@e?3?2code?2adl_n100_code?2uefipldpl@ 0000000000055470     UefiMemoryAllocationLib:MemoryAllocationLib.obj
 0002:000007c0       ??_C@_0DP@CGKEPFGH@AllocationSize?5?$DM?$DN?5?$CI0xFFFFFFFFFF@ 00000000000554e0     UefiMemoryAllocationLib:MemoryAllocationLib.obj
 0002:00000800       ??_C@_0BE@OBDFIHND@gRT?5?$CB?$DN?5?$CI?$CIvoid?5?$CK?$CJ?50?$CJ@ 0000000000055520     UefiRuntimeServicesTableLib:UefiRuntimeServicesTableLib.obj
 0002:00000820       ??_C@_0HI@DCCKLNND@e?3?2code?2adl_n100_code?2uefipldpl@ 0000000000055540     UefiRuntimeServicesTableLib:UefiRuntimeServicesTableLib.obj
 0002:00000898       ??_C@_0BF@CBLMFKOC@Node?5?$CB?$DN?5?$CI?$CIvoid?5?$CK?$CJ?50?$CJ@ 00000000000555b8     UefiDevicePathLib:DevicePathUtilities.obj
 0002:000008b0       ??_C@_0GG@DADIGNFF@e?3?2code?2adl_n100_code?2uefipldpl@ 00000000000555d0     UefiDevicePathLib:DevicePathUtilities.obj
 0002:00000918       mUefiDevicePathLibEndDevicePath 0000000000055638     UefiDevicePathLib:DevicePathUtilities.obj
 0002:00000920       ??_C@_1BA@NGCDBIG@?$AAP?$AAr?$AAi?$AAm?$AAa?$AAr?$AAy@ 0000000000055640     UefiDevicePathLib:DevicePathFromText.obj
 0002:00000930       ??_C@_1BE@BGLPHBHD@?$AAS?$AAe?$AAc?$AAo?$AAn?$AAd?$AAa?$AAr?$AAy@ 0000000000055650     UefiDevicePathLib:DevicePathFromText.obj
 0002:00000948       ??_C@_1O@MHJLHGPK@?$AAM?$AAa?$AAs?$AAt?$AAe?$AAr@ 0000000000055668     UefiDevicePathLib:DevicePathFromText.obj
 0002:00000958       ??_C@_1M@MJNGBMFK@?$AAS?$AAl?$AAa?$AAv?$AAe@ 0000000000055678     UefiDevicePathLib:DevicePathFromText.obj
 0002:00000968       ??_C@_1BA@NAMMFHHL@?$AAX?$AAo?$AAn?$AAX?$AAo?$AAf?$AAf@ 0000000000055688     UefiDevicePathLib:DevicePathFromText.obj
 0002:00000978       ??_C@_1BC@MAICEHGI@?$AAH?$AAa?$AAr?$AAd?$AAw?$AAa?$AAr?$AAe@ 0000000000055698     UefiDevicePathLib:DevicePathFromText.obj
 0002:00000990       ??_C@_19BPNGBNAI@?$AAS?$AAA?$AAT?$AAA@ 00000000000556b0     UefiDevicePathLib:DevicePathFromText.obj
 0002:000009a0       ??_C@_17FMMIKNDG@?$AAS?$AAA?$AAS@ 00000000000556c0     UefiDevicePathLib:DevicePathFromText.obj
 0002:000009a8       ??_C@_1BC@KMFBFJEN@?$AAE?$AAx?$AAt?$AAe?$AAr?$AAn?$AAa?$AAl@ 00000000000556c8     UefiDevicePathLib:DevicePathFromText.obj
 0002:000009c0       ??_C@_1BC@FBOHHDN@?$AAI?$AAn?$AAt?$AAe?$AAr?$AAn?$AAa?$AAl@ 00000000000556e0     UefiDevicePathLib:DevicePathFromText.obj
 0002:000009d8       ??_C@_1BC@EEIMPKHO@?$AAE?$AAx?$AAp?$AAa?$AAn?$AAd?$AAe?$AAd@ 00000000000556f8     UefiDevicePathLib:DevicePathFromText.obj
 0002:000009f0       ??_C@_1O@MDCABJAO@?$AAD?$AAi?$AAr?$AAe?$AAc?$AAt@ 0000000000055710     UefiDevicePathLib:DevicePathFromText.obj
 0002:00000a00       ??_C@_17NINPJKOM@?$AAU?$AAD?$AAP@ 0000000000055720     UefiDevicePathLib:DevicePathFromText.obj
 0002:00000a08       ??_C@_17JHAKKMK@?$AAT?$AAC?$AAP@ 0000000000055728     UefiDevicePathLib:DevicePathFromText.obj
 0002:00000a10       ??_C@_1O@ECDFCEKO@?$AAS?$AAt?$AAa?$AAt?$AAi?$AAc@ 0000000000055730     UefiDevicePathLib:DevicePathFromText.obj
 0002:00000a20       ??_C@_1O@HNAACJMJ@?$AAC?$AAR?$AAC?$AA3?$AA2?$AAC@ 0000000000055740     UefiDevicePathLib:DevicePathFromText.obj
 0002:00000a30       ??_C@_19KLMLHLJG@?$AAN?$AAo?$AAn?$AAe@ 0000000000055750     UefiDevicePathLib:DevicePathFromText.obj
 0002:00000a40       ??_C@_1BC@PDNIOEEC@?$AAC?$AAH?$AAA?$AAP?$AA_?$AAU?$AAN?$AAI@ 0000000000055760     UefiDevicePathLib:DevicePathFromText.obj
 0002:00000a58       ??_C@_17LNBJLOE@?$AAM?$AAB?$AAR@ 0000000000055778     UefiDevicePathLib:DevicePathFromText.obj
 0002:00000a60       ??_C@_17PBGEHLGA@?$AAG?$AAP?$AAT@ 0000000000055780     UefiDevicePathLib:DevicePathFromText.obj
 0002:00000a68       ??_C@_1O@CLMODHEM@?$AAF?$AAl?$AAo?$AAp?$AAp?$AAy@ 0000000000055788     UefiDevicePathLib:DevicePathFromText.obj
 0002:00000a78       ??_C@_15LJEABJDH@?$AAH?$AAD@ 0000000000055798     UefiDevicePathLib:DevicePathFromText.obj
 0002:00000a80       ??_C@_1M@NEPFDHKI@?$AAC?$AAD?$AAR?$AAO?$AAM@ 00000000000557a0     UefiDevicePathLib:DevicePathFromText.obj
 0002:00000a90       ??_C@_1O@IJBLAFEH@?$AAP?$AAC?$AAM?$AAC?$AAI?$AAA@ 00000000000557b0     UefiDevicePathLib:DevicePathFromText.obj
 0002:00000aa0       ??_C@_17DMBMDHNL@?$AAU?$AAS?$AAB@ 00000000000557c0     UefiDevicePathLib:DevicePathFromText.obj
 0002:00000aa8       ??_C@_1BA@IFBJBPAK@?$AAN?$AAe?$AAt?$AAw?$AAo?$AAr?$AAk@ 00000000000557c8     UefiDevicePathLib:DevicePathFromText.obj
 0002:00000ab8       ??_C@_1BK@PDLLBLKH@?$AAH?$AAa?$AAr?$AAd?$AAw?$AAa?$AAr?$AAe?$AAP?$AAa?$AAt?$AAh@ 00000000000557d8     UefiDevicePathLib:DevicePathFromText.obj
 0002:00000ad8       ??_C@_1BC@EJFCJMMM@?$AAA?$AAc?$AAp?$AAi?$AAP?$AAa?$AAt?$AAh@ 00000000000557f8     UefiDevicePathLib:DevicePathFromText.obj
 0002:00000af0       ??_C@_17DACEHHP@?$AAM?$AAs?$AAg@ 0000000000055810     UefiDevicePathLib:DevicePathFromText.obj
 0002:00000af8       ??_C@_1BC@NAJEJDIH@?$AAU?$AAs?$AAb?$AAA?$AAu?$AAd?$AAi?$AAo@ 0000000000055818     UefiDevicePathLib:DevicePathFromText.obj
 0002:00000b10       ??_C@_1BM@EBMHFGAN@?$AAU?$AAs?$AAb?$AAC?$AAD?$AAC?$AAC?$AAo?$AAn?$AAt?$AAr?$AAo?$AAl@ 0000000000055830     UefiDevicePathLib:DevicePathFromText.obj
 0002:00000b30       ??_C@_1O@MNHDOJBH@?$AAU?$AAs?$AAb?$AAH?$AAI?$AAD@ 0000000000055850     UefiDevicePathLib:DevicePathFromText.obj
 0002:00000b40       ??_C@_1BC@PPLGKLBF@?$AAU?$AAs?$AAb?$AAI?$AAm?$AAa?$AAg?$AAe@ 0000000000055860     UefiDevicePathLib:DevicePathFromText.obj
 0002:00000b58       ??_C@_1BG@PFAKNBDK@?$AAU?$AAs?$AAb?$AAP?$AAr?$AAi?$AAn?$AAt?$AAe?$AAr@ 0000000000055878     UefiDevicePathLib:DevicePathFromText.obj
 0002:00000b70       ??_C@_1BO@PDNPADEO@?$AAU?$AAs?$AAb?$AAM?$AAa?$AAs?$AAs?$AAS?$AAt?$AAo?$AAr?$AAa?$AAg?$AAe@ 0000000000055890     UefiDevicePathLib:DevicePathFromText.obj
 0002:00000b90       ??_C@_1O@DLJCNOCD@?$AAU?$AAs?$AAb?$AAH?$AAu?$AAb@ 00000000000558b0     UefiDevicePathLib:DevicePathFromText.obj
 0002:00000ba0       ??_C@_1BG@HNPFOCNE@?$AAU?$AAs?$AAb?$AAC?$AAD?$AAC?$AAD?$AAa?$AAt?$AAa@ 00000000000558c0     UefiDevicePathLib:DevicePathFromText.obj
 0002:00000bb8       ??_C@_1BK@COBNKHKO@?$AAU?$AAs?$AAb?$AAS?$AAm?$AAa?$AAr?$AAt?$AAC?$AAa?$AAr?$AAd@ 00000000000558d8     UefiDevicePathLib:DevicePathFromText.obj
 0002:00000bd8       ??_C@_1BC@OCEEDGOJ@?$AAU?$AAs?$AAb?$AAV?$AAi?$AAd?$AAe?$AAo@ 00000000000558f8     UefiDevicePathLib:DevicePathFromText.obj
 0002:00000bf0       ??_C@_1BM@LPAMJGAO@?$AAU?$AAs?$AAb?$AAD?$AAi?$AAa?$AAg?$AAn?$AAo?$AAs?$AAt?$AAi?$AAc@ 0000000000055910     UefiDevicePathLib:DevicePathFromText.obj
 0002:00000c10       ??_C@_1BI@FHBIGIDC@?$AAU?$AAs?$AAb?$AAW?$AAi?$AAr?$AAe?$AAl?$AAe?$AAs?$AAs@ 0000000000055930     UefiDevicePathLib:DevicePathFromText.obj
 0002:00000c28       ??_C@_1BE@MHMKEMCG@?$AAM?$AAe?$AAd?$AAi?$AAa?$AAP?$AAa?$AAt?$AAh@ 0000000000055948     UefiDevicePathLib:DevicePathFromText.obj
 0002:00000c40       ??_C@_1M@OFOICAAP@?$AAM?$AAe?$AAd?$AAi?$AAa@ 0000000000055960     UefiDevicePathLib:DevicePathFromText.obj
 0002:00000c50       ??_C@_1BA@EPIJMJOF@?$AAB?$AAb?$AAs?$AAP?$AAa?$AAt?$AAh@ 0000000000055970     UefiDevicePathLib:DevicePathFromText.obj
 0002:00000c60       ??_C@_0BJ@NNFHKMPH@Str?9?$DOStr?5?$CB?$DN?5?$CI?$CIvoid?5?$CK?$CJ?50?$CJ@ 0000000000055980     UefiDevicePathLib:DevicePathToText.obj
 0002:00000c80       ??_C@_0GD@GBLLMELM@e?3?2code?2adl_n100_code?2uefipldpl@ 00000000000559a0     UefiDevicePathLib:DevicePathToText.obj
 0002:00000ce8       ??_C@_1BO@OAGLMPIF@?$AAP?$AAc?$AAi?$AA?$CI?$AA0?$AAx?$AA?$CF?$AAx?$AA?0?$AA0?$AAx?$AA?$CF?$AAx?$AA?$CJ@ 0000000000055a08     UefiDevicePathLib:DevicePathToText.obj
 0002:00000d08       ??_C@_1BK@KCEBDNMK@?$AAP?$AAc?$AAC?$AAa?$AAr?$AAd?$AA?$CI?$AA0?$AAx?$AA?$CF?$AAx?$AA?$CJ@ 0000000000055a28     UefiDevicePathLib:DevicePathToText.obj
 0002:00000d28       ??_C@_1DO@IFCJNKPC@?$AAM?$AAe?$AAm?$AAo?$AAr?$AAy?$AAM?$AAa?$AAp?$AAp?$AAe?$AAd?$AA?$CI?$AA0?$AAx@ 0000000000055a48     UefiDevicePathLib:DevicePathToText.obj
 0002:00000d68       ??_C@_15FLNOEOHI@?$AAH?$AAw@ 0000000000055a88     UefiDevicePathLib:DevicePathToText.obj
 0002:00000d70       ??_C@_1BI@PHHNEBMB@?$AAV?$AAe?$AAn?$AAP?$AAc?$AAA?$AAn?$AAs?$AAi?$AA?$CI?$AA?$CJ@ 0000000000055a90     UefiDevicePathLib:DevicePathToText.obj
 0002:00000d88       ??_C@_1BG@IAIKNGNN@?$AAV?$AAe?$AAn?$AAV?$AAt?$AA1?$AA0?$AA0?$AA?$CI?$AA?$CJ@ 0000000000055aa8     UefiDevicePathLib:DevicePathToText.obj
 0002:00000da0       ??_C@_1BO@COEKAAEN@?$AAV?$AAe?$AAn?$AAV?$AAt?$AA1?$AA0?$AA0?$AAP?$AAl?$AAu?$AAs?$AA?$CI?$AA?$CJ@ 0000000000055ac0     UefiDevicePathLib:DevicePathToText.obj
 0002:00000dc0       ??_C@_1BE@IDDFGEGE@?$AAV?$AAe?$AAn?$AAU?$AAt?$AAf?$AA8?$AA?$CI?$AA?$CJ@ 0000000000055ae0     UefiDevicePathLib:DevicePathToText.obj
 0002:00000dd8       ??_C@_1CC@FKEHNDLA@?$AAU?$AAa?$AAr?$AAt?$AAF?$AAl?$AAo?$AAw?$AAC?$AAt?$AAr?$AAl?$AA?$CI?$AA?$CF?$AAs@ 0000000000055af8     UefiDevicePathLib:DevicePathToText.obj
 0002:00000e00       ??_C@_1CM@MBOKCKGI@?$AAS?$AAA?$AAS?$AA?$CI?$AA0?$AAx?$AA?$CF?$AAl?$AAx?$AA?0?$AA0?$AAx?$AA?$CF?$AAl?$AAx@ 0000000000055b20     UefiDevicePathLib:DevicePathToText.obj
 0002:00000e30       ??_C@_1CE@FDCOMKL@?$AAN?$AAo?$AAT?$AAo?$AAp?$AAo?$AAl?$AAo?$AAg?$AAy?$AA?0?$AA0?$AA?0?$AA0?$AA?0@ 0000000000055b50     UefiDevicePathLib:DevicePathToText.obj
 0002:00000e58       ??_C@_1BE@MLBJKAMN@?$AA?$CF?$AAs?$AA?0?$AA?$CF?$AAs?$AA?0?$AA?$CF?$AAs?$AA?0@ 0000000000055b78     UefiDevicePathLib:DevicePathToText.obj
 0002:00000e6c       ??_C@_15KAKDEJHH@?$AA0?$AA?0@ 0000000000055b8c     UefiDevicePathLib:DevicePathToText.obj
 0002:00000e78       ??_C@_1M@MJJODJOA@?$AA0?$AAx?$AA?$CF?$AAx?$AA?0@ 0000000000055b98     UefiDevicePathLib:DevicePathToText.obj
 0002:00000e88       ??_C@_1BI@EOONELPP@?$AA0?$AAx?$AA?$CF?$AAx?$AA?0?$AA0?$AA?0?$AA0?$AA?0?$AA0?$AA?0@ 0000000000055ba8     UefiDevicePathLib:DevicePathToText.obj
 0002:00000ea0       ??_C@_1M@POEAMJNC@?$AA0?$AAx?$AA?$CF?$AAx?$AA?$CJ@ 0000000000055bc0     UefiDevicePathLib:DevicePathToText.obj
 0002:00000eb0       ??_C@_1BI@IHPCIEPJ@?$AAD?$AAe?$AAb?$AAu?$AAg?$AAP?$AAo?$AAr?$AAt?$AA?$CI?$AA?$CJ@ 0000000000055bd0     UefiDevicePathLib:DevicePathToText.obj
 0002:00000ec8       ??_C@_13HGPDMIBE@?$AA?$DP@ 0000000000055be8     UefiDevicePathLib:DevicePathToText.obj
 0002:00000ed0       ??_C@_1BC@EAAHJKNI@?$AAV?$AAe?$AAn?$AA?$CF?$AAs?$AA?$CI?$AA?$CF?$AAg@ 0000000000055bf0     UefiDevicePathLib:DevicePathToText.obj
 0002:00000ee4       ??_C@_13DEFPDAGF@?$AA?0@   0000000000055c04     UefiDevicePathLib:DevicePathToText.obj
 0002:00000ee8       ??_C@_19NHPFCCLF@?$AA?$CF?$AA0?$AA2?$AAx@ 0000000000055c08     UefiDevicePathLib:DevicePathToText.obj
 0002:00000ef4       ??_C@_13DIBMAFH@?$AA?$CJ@  0000000000055c14     UefiDevicePathLib:DevicePathToText.obj
 0002:00000ef8       ??_C@_1BG@PDEHEHNB@?$AAC?$AAt?$AAr?$AAl?$AA?$CI?$AA0?$AAx?$AA?$CF?$AAx?$AA?$CJ@ 0000000000055c18     UefiDevicePathLib:DevicePathToText.obj
 0002:00000f10       ??_C@_1CA@OCDNKJMI@?$AAB?$AAM?$AAC?$AA?$CI?$AA0?$AAx?$AA?$CF?$AAx?$AA?0?$AA0?$AAx?$AA?$CF?$AAl?$AAx?$AA?$CJ@ 0000000000055c30     UefiDevicePathLib:DevicePathToText.obj
 0002:00000f30       ??_C@_1BM@LLBDFMIK@?$AAP?$AAc?$AAi?$AAR?$AAo?$AAo?$AAt?$AA?$CI?$AA0?$AAx?$AA?$CF?$AAx?$AA?$CJ@ 0000000000055c50     UefiDevicePathLib:DevicePathToText.obj
 0002:00000f50       ??_C@_1BO@IHBMGOPI@?$AAP?$AAc?$AAi?$AAe?$AAR?$AAo?$AAo?$AAt?$AA?$CI?$AA0?$AAx?$AA?$CF?$AAx?$AA?$CJ@ 0000000000055c70     UefiDevicePathLib:DevicePathToText.obj
 0002:00000f70       ??_C@_1BK@NGLNBACO@?$AAF?$AAl?$AAo?$AAp?$AAp?$AAy?$AA?$CI?$AA0?$AAx?$AA?$CF?$AAx?$AA?$CJ@ 0000000000055c90     UefiDevicePathLib:DevicePathToText.obj
 0002:00000f90       ??_C@_1BO@OEKEOEOK@?$AAK?$AAe?$AAy?$AAb?$AAo?$AAa?$AAr?$AAd?$AA?$CI?$AA0?$AAx?$AA?$CF?$AAx?$AA?$CJ@ 0000000000055cb0     UefiDevicePathLib:DevicePathToText.obj
 0002:00000fb0       ??_C@_1BK@PMIGPGKH@?$AAS?$AAe?$AAr?$AAi?$AAa?$AAl?$AA?$CI?$AA0?$AAx?$AA?$CF?$AAx?$AA?$CJ@ 0000000000055cd0     UefiDevicePathLib:DevicePathToText.obj
 0002:00000fd0       ??_C@_1CG@CPMOJELH@?$AAP?$AAa?$AAr?$AAa?$AAl?$AAl?$AAe?$AAl?$AAP?$AAo?$AAr?$AAt?$AA?$CI?$AA0?$AAx@ 0000000000055cf0     UefiDevicePathLib:DevicePathToText.obj
 0002:00000ff8       ??_C@_1CG@JCMCADBM@?$AAA?$AAc?$AAp?$AAi?$AA?$CI?$AAP?$AAN?$AAP?$AA?$CF?$AA0?$AA4?$AAx?$AA?0?$AA0?$AAx@ 0000000000055d18     UefiDevicePathLib:DevicePathToText.obj
 0002:00001020       ??_C@_1CE@CLIAMHCD@?$AAA?$AAc?$AAp?$AAi?$AA?$CI?$AA0?$AAx?$AA?$CF?$AA0?$AA8?$AAx?$AA?0?$AA0?$AAx?$AA?$CF@ 0000000000055d40     UefiDevicePathLib:DevicePathToText.obj
 0002:00001048       ??_C@_1BI@IBECIOLF@?$AAP?$AAc?$AAi?$AAR?$AAo?$AAo?$AAt?$AA?$CI?$AA?$CF?$AAa?$AA?$CJ@ 0000000000055d68     UefiDevicePathLib:DevicePathToText.obj
 0002:00001060       ??_C@_1BK@HOGBDMPI@?$AAP?$AAc?$AAi?$AAe?$AAR?$AAo?$AAo?$AAt?$AA?$CI?$AA?$CF?$AAa?$AA?$CJ@ 0000000000055d80     UefiDevicePathLib:DevicePathToText.obj
 0002:00001080       ??_C@_1BG@BGLICHDL@?$AA?$CF?$AAc?$AA?$CF?$AAc?$AA?$CF?$AAc?$AA?$CF?$AA0?$AA4?$AAX@ 0000000000055da0     UefiDevicePathLib:DevicePathToText.obj
 0002:00001098       ??_C@_1CC@CMCFGMM@?$AAA?$AAc?$AAp?$AAi?$AAE?$AAx?$AAp?$AA?$CI?$AA?$CF?$AAs?$AA?0?$AA0?$AA?0?$AA?$CF?$AAa@ 0000000000055db8     UefiDevicePathLib:DevicePathToText.obj
 0002:000010c0       ??_C@_1CE@CGEKHGFF@?$AAA?$AAc?$AAp?$AAi?$AAE?$AAx?$AAp?$AA?$CI?$AA?$CF?$AAs?$AA?0?$AA?$CF?$AAs?$AA?0?$AA?$CF@ 0000000000055de0     UefiDevicePathLib:DevicePathToText.obj
 0002:000010e8       ??_C@_1BG@EEDCOCH@?$AAA?$AAc?$AAp?$AAi?$AAE?$AAx?$AA?$CI?$AA?$CF?$AAa?$AA?0@ 0000000000055e08     UefiDevicePathLib:DevicePathToText.obj
 0002:00001100       ??_C@_1BG@EKFNINLH@?$AAA?$AAc?$AAp?$AAi?$AAE?$AAx?$AA?$CI?$AA?$CF?$AAs?$AA?0@ 0000000000055e20     UefiDevicePathLib:DevicePathToText.obj
 0002:00001118       ??_C@_17CAHIANN@?$AA?$CF?$AAa?$AA?0@ 0000000000055e38     UefiDevicePathLib:DevicePathToText.obj
 0002:00001120       ??_C@_17EMBJCDEN@?$AA?$CF?$AAs?$AA?0@ 0000000000055e40     UefiDevicePathLib:DevicePathToText.obj
 0002:00001128       ??_C@_17DFNJHAOP@?$AA?$CF?$AAa?$AA?$CJ@ 0000000000055e48     UefiDevicePathLib:DevicePathToText.obj
 0002:00001130       ??_C@_1DI@HGKBPPFE@?$AAA?$AAc?$AAp?$AAi?$AAE?$AAx?$AA?$CI?$AA?$CF?$AAs?$AA?0?$AA?$CF?$AAs?$AA?0?$AA0?$AAx@ 0000000000055e50     UefiDevicePathLib:DevicePathToText.obj
 0002:00001168       ??_C@_1BK@IMGBACLG@?$AAA?$AAc?$AAp?$AAi?$AAA?$AAd?$AAr?$AA?$CI?$AA0?$AAx?$AA?$CF?$AAx@ 0000000000055e88     UefiDevicePathLib:DevicePathToText.obj
 0002:00001188       ??_C@_1M@HHLNLLAC@?$AA?0?$AA0?$AAx?$AA?$CF?$AAx@ 0000000000055ea8     UefiDevicePathLib:DevicePathToText.obj
 0002:00001198       ??_C@_1BE@HBALDGNG@?$AAA?$AAt?$AAa?$AA?$CI?$AA0?$AAx?$AA?$CF?$AAx?$AA?$CJ@ 0000000000055eb8     UefiDevicePathLib:DevicePathToText.obj
 0002:000011b0       ??_C@_1CA@EFDNFHKP@?$AAA?$AAt?$AAa?$AA?$CI?$AA?$CF?$AAs?$AA?0?$AA?$CF?$AAs?$AA?0?$AA0?$AAx?$AA?$CF?$AAx?$AA?$CJ@ 0000000000055ed0     UefiDevicePathLib:DevicePathToText.obj
 0002:000011d0       ??_C@_1CA@JGIMMJKB@?$AAS?$AAc?$AAs?$AAi?$AA?$CI?$AA0?$AAx?$AA?$CF?$AAx?$AA?0?$AA0?$AAx?$AA?$CF?$AAx?$AA?$CJ@ 0000000000055ef0     UefiDevicePathLib:DevicePathToText.obj
 0002:000011f0       ??_C@_1CG@OFFLOOAD@?$AAF?$AAi?$AAb?$AAr?$AAe?$AA?$CI?$AA0?$AAx?$AA?$CF?$AAl?$AAx?$AA?0?$AA0?$AAx?$AA?$CF@ 0000000000055f10     UefiDevicePathLib:DevicePathToText.obj
 0002:00001218       ??_C@_1BG@EHEKANON@?$AAF?$AAi?$AAb?$AAr?$AAe?$AAE?$AAx?$AA?$CI?$AA0?$AAx@ 0000000000055f38     UefiDevicePathLib:DevicePathToText.obj
 0002:00001230       ??_C@_17JOPFNIFB@?$AA?0?$AA0?$AAx@ 0000000000055f50     UefiDevicePathLib:DevicePathToText.obj
 0002:00001238       ??_C@_1BC@CKFHLIJB@?$AAS?$AAa?$AAs?$AAE?$AAx?$AA?$CI?$AA0?$AAx@ 0000000000055f58     UefiDevicePathLib:DevicePathToText.obj
 0002:00001250       ??_C@_1O@IEGBGPLN@?$AA?0?$AA0?$AAx?$AA?$CF?$AAx?$AA?0@ 0000000000055f70     UefiDevicePathLib:DevicePathToText.obj
 0002:00001260       ??_C@_1CC@FKOFEPIC@?$AAN?$AAo?$AAT?$AAo?$AAp?$AAo?$AAl?$AAo?$AAg?$AAy?$AA?0?$AA0?$AA?0?$AA0?$AA?0@ 0000000000055f80     UefiDevicePathLib:DevicePathToText.obj
 0002:00001284       ??_C@_13COJANIEC@?$AA0@    0000000000055fa4     UefiDevicePathLib:DevicePathToText.obj
 0002:00001288       ??_C@_19PCNJIDGC@?$AA0?$AAx?$AA?$CF?$AAx@ 0000000000055fa8     UefiDevicePathLib:DevicePathToText.obj
 0002:00001298       ??_C@_1BG@JCDPLMKI@?$AA0?$AAx?$AA?$CF?$AAx?$AA?0?$AA0?$AA?0?$AA0?$AA?0?$AA0@ 0000000000055fb8     UefiDevicePathLib:DevicePathToText.obj
 0002:000012b0       ??_C@_1GG@KPIKGINP@?$AAN?$AAV?$AAM?$AAe?$AA?$CI?$AA0?$AAx?$AA?$CF?$AAx?$AA?0?$AA?$CF?$AA0?$AA2?$AAx?$AA?9@ 0000000000055fd0     UefiDevicePathLib:DevicePathToText.obj
 0002:00001318       ??_C@_1BO@HJLBIHHO@?$AAU?$AAF?$AAS?$AA?$CI?$AA0?$AAx?$AA?$CF?$AAx?$AA?0?$AA0?$AAx?$AA?$CF?$AAx?$AA?$CJ@ 0000000000056038     UefiDevicePathLib:DevicePathToText.obj
 0002:00001338       ??_C@_1BC@JIFEONHJ@?$AAS?$AAD?$AA?$CI?$AA0?$AAx?$AA?$CF?$AAx?$AA?$CJ@ 0000000000056058     UefiDevicePathLib:DevicePathToText.obj
 0002:00001350       ??_C@_1BG@BHOAMFEP@?$AAe?$AAM?$AAM?$AAC?$AA?$CI?$AA0?$AAx?$AA?$CF?$AAx?$AA?$CJ@ 0000000000056070     UefiDevicePathLib:DevicePathToText.obj
 0002:00001368       ??_C@_1BM@OFMOJDLM@?$AAI?$AA1?$AA3?$AA9?$AA4?$AA?$CI?$AA?$CF?$AA0?$AA1?$AA6?$AAl?$AAx?$AA?$CJ@ 0000000000056088     UefiDevicePathLib:DevicePathToText.obj
 0002:00001388       ??_C@_1BO@CIMDKCCI@?$AAU?$AAS?$AAB?$AA?$CI?$AA0?$AAx?$AA?$CF?$AAx?$AA?0?$AA0?$AAx?$AA?$CF?$AAx?$AA?$CJ@ 00000000000560a8     UefiDevicePathLib:DevicePathToText.obj
 0002:000013a8       ??_C@_0BH@GADOMDOK@NewStr?5?$CB?$DN?5?$CI?$CIvoid?5?$CK?$CJ?50?$CJ@ 00000000000560c8     UefiDevicePathLib:DevicePathToText.obj
 0002:000013c0       ??_C@_1DK@IPDOPIPA@?$AAU?$AAs?$AAb?$AAW?$AAw?$AAi?$AAd?$AA?$CI?$AA0?$AAx?$AA?$CF?$AAx?$AA?0?$AA0?$AAx@ 00000000000560e0     UefiDevicePathLib:DevicePathToText.obj
 0002:00001400       ??_C@_1BG@NJNCNCKM@?$AAU?$AAn?$AAi?$AAt?$AA?$CI?$AA0?$AAx?$AA?$CF?$AAx?$AA?$CJ@ 0000000000056120     UefiDevicePathLib:DevicePathToText.obj
 0002:00001418       ??_C@_1CM@JDEAFCK@?$AA?$CI?$AA0?$AAx?$AA?$CF?$AAx?$AA?0?$AA0?$AAx?$AA?$CF?$AAx?$AA?0?$AA0?$AAx?$AA?$CF?$AAx@ 0000000000056138     UefiDevicePathLib:DevicePathToText.obj
 0002:00001450       ??_C@_1FA@DIDNHLOK@?$AAU?$AAs?$AAb?$AAD?$AAe?$AAv?$AAi?$AAc?$AAe?$AAF?$AAi?$AAr?$AAm?$AAw?$AAa@ 0000000000056170     UefiDevicePathLib:DevicePathToText.obj
 0002:000014a0       ??_C@_1DM@JLMEALMP@?$AAU?$AAs?$AAb?$AAI?$AAr?$AAd?$AAa?$AAB?$AAr?$AAi?$AAd?$AAg?$AAe?$AA?$CI?$AA0@ 00000000000561c0     UefiDevicePathLib:DevicePathToText.obj
 0002:000014e0       ??_C@_1EM@PFIODAIB@?$AAU?$AAs?$AAb?$AAT?$AAe?$AAs?$AAt?$AAA?$AAn?$AAd?$AAM?$AAe?$AAa?$AAs?$AAu@ 0000000000056200     UefiDevicePathLib:DevicePathToText.obj
 0002:00001530       ??_C@_1EG@NMOJJABI@?$AAU?$AAs?$AAb?$AAC?$AAl?$AAa?$AAs?$AAs?$AA?$CI?$AA0?$AAx?$AA?$CF?$AAx?$AA?0?$AA0@ 0000000000056250     UefiDevicePathLib:DevicePathToText.obj
 0002:00001578       ??_C@_1CK@MHLLPHIN@?$AAS?$AAa?$AAt?$AAa?$AA?$CI?$AA0?$AAx?$AA?$CF?$AAx?$AA?0?$AA0?$AAx?$AA?$CF?$AAx?$AA?0@ 0000000000056298     UefiDevicePathLib:DevicePathToText.obj
 0002:000015a8       ??_C@_1BE@GPJMKBFH@?$AAI?$AA2?$AAO?$AA?$CI?$AA0?$AAx?$AA?$CF?$AAx?$AA?$CJ@ 00000000000562c8     UefiDevicePathLib:DevicePathToText.obj
 0002:000015c0       ??_C@_19HOEMCGPJ@?$AAM?$AAA?$AAC?$AA?$CI@ 00000000000562e0     UefiDevicePathLib:DevicePathToText.obj
 0002:000015d0       ??_C@_1O@LDLPJPIP@?$AA?0?$AA0?$AAx?$AA?$CF?$AAx?$AA?$CJ@ 00000000000562f0     UefiDevicePathLib:DevicePathToText.obj
 0002:000015e0       ??_C@_1BI@FCMLLAGN@?$AA?$CF?$AAd?$AA?4?$AA?$CF?$AAd?$AA?4?$AA?$CF?$AAd?$AA?4?$AA?$CF?$AAd@ 0000000000056300     UefiDevicePathLib:DevicePathToText.obj
 0002:00001600       ??_C@_1JA@HKGNNMMG@?$AA?$CF?$AA0?$AA2?$AAx?$AA?$CF?$AA0?$AA2?$AAx?$AA?3?$AA?$CF?$AA0?$AA2?$AAx?$AA?$CF?$AA0@ 0000000000056320     UefiDevicePathLib:DevicePathToText.obj
 0002:00001690       ??_C@_1M@KGGIME@?$AAI?$AAP?$AAv?$AA4?$AA?$CI@ 00000000000563b0     UefiDevicePathLib:DevicePathToText.obj
 0002:000016a0       ??_C@_19DDJNJOGL@?$AAD?$AAH?$AAC?$AAP@ 00000000000563c0     UefiDevicePathLib:DevicePathToText.obj
 0002:000016b0       ??_C@_19JPNAHHAM@?$AA?0?$AA?$CF?$AAs?$AA?0@ 00000000000563d0     UefiDevicePathLib:DevicePathToText.obj
 0002:000016c0       ??_C@_1M@ENGOMJMP@?$AAI?$AAP?$AAv?$AA6?$AA?$CI@ 00000000000563e0     UefiDevicePathLib:DevicePathToText.obj
 0002:000016d0       ??_C@_1BC@CMHMGCCH@?$AA?0?$AAS?$AAt?$AAa?$AAt?$AAi?$AAc?$AA?0@ 00000000000563f0     UefiDevicePathLib:DevicePathToText.obj
 0002:000016e8       ??_C@_1DC@LOFPJEEL@?$AA?0?$AAS?$AAt?$AAa?$AAt?$AAe?$AAl?$AAe?$AAs?$AAs?$AAA?$AAu?$AAt?$AAo?$AAC@ 0000000000056408     UefiDevicePathLib:DevicePathToText.obj
 0002:00001720       ??_C@_1DA@HMGEOIF@?$AA?0?$AAS?$AAt?$AAa?$AAt?$AAe?$AAf?$AAu?$AAl?$AAA?$AAu?$AAt?$AAo?$AAC?$AAo@ 0000000000056440     UefiDevicePathLib:DevicePathToText.obj
 0002:00001750       ??_C@_1EM@IPHLFBGI@?$AAI?$AAn?$AAf?$AAi?$AAn?$AAi?$AAb?$AAa?$AAn?$AAd?$AA?$CI?$AA0?$AAx?$AA?$CF?$AAx@ 0000000000056470     UefiDevicePathLib:DevicePathToText.obj
 0002:000017a0       ??_C@_1BM@EHGODEHA@?$AAU?$AAa?$AAr?$AAt?$AA?$CI?$AAD?$AAE?$AAF?$AAA?$AAU?$AAL?$AAT?$AA?0@ 00000000000564c0     UefiDevicePathLib:DevicePathToText.obj
 0002:000017c0       ??_C@_1BE@OEIOOGGH@?$AAU?$AAa?$AAr?$AAt?$AA?$CI?$AA?$CF?$AAl?$AAd?$AA?0@ 00000000000564e0     UefiDevicePathLib:DevicePathToText.obj
 0002:000017d8       ??_C@_1BC@DDKPDLCJ@?$AAD?$AAE?$AAF?$AAA?$AAU?$AAL?$AAT?$AA?0@ 00000000000564f8     UefiDevicePathLib:DevicePathToText.obj
 0002:000017f0       ??_C@_17FCMKBBGO@?$AA?$CF?$AAd?$AA?0@ 0000000000056510     UefiDevicePathLib:DevicePathToText.obj
 0002:000017f8       ??_C@_17EPMPCBNG@?$AA?$CF?$AAc?$AA?0@ 0000000000056518     UefiDevicePathLib:DevicePathToText.obj
 0002:00001800       ??_C@_15HMOPGJC@?$AAD?$AA?$CJ@ 0000000000056520     UefiDevicePathLib:DevicePathToText.obj
 0002:00001808       ??_C@_15FMCBGKOA@?$AA1?$AA?$CJ@ 0000000000056528     UefiDevicePathLib:DevicePathToText.obj
 0002:00001810       ??_C@_19PODFHIEB@?$AA1?$AA?4?$AA5?$AA?$CJ@ 0000000000056530     UefiDevicePathLib:DevicePathToText.obj
 0002:0000181c       ??_C@_15NKLFBIEO@?$AA2?$AA?$CJ@ 000000000005653c     UefiDevicePathLib:DevicePathToText.obj
 0002:00001824       ??_C@_15HEHGDBEE@?$AAx?$AA?$CJ@ 0000000000056544     UefiDevicePathLib:DevicePathToText.obj
 0002:00001830       ??_C@_1CC@OKJDLPLB@?$AAi?$AAS?$AAC?$AAS?$AAI?$AA?$CI?$AA?$CF?$AAa?$AA?0?$AA0?$AAx?$AA?$CF?$AAx?$AA?0?$AA0@ 0000000000056550     UefiDevicePathLib:DevicePathToText.obj
 0002:00001858       ??_C@_1BA@FMEKDPAI@?$AAC?$AAH?$AAA?$AAP?$AA_?$AAB?$AAI@ 0000000000056578     UefiDevicePathLib:DevicePathToText.obj
 0002:00001868       ??_C@_1BC@EFEBCBGB@?$AAr?$AAe?$AAs?$AAe?$AAr?$AAv?$AAe?$AAd@ 0000000000056588     UefiDevicePathLib:DevicePathToText.obj
 0002:00001880       ??_C@_17HLMHNDHP@?$AA?$CF?$AAs?$AA?$CJ@ 00000000000565a0     UefiDevicePathLib:DevicePathToText.obj
 0002:00001888       ??_C@_1BC@OPCHKNKH@?$AAV?$AAl?$AAa?$AAn?$AA?$CI?$AA?$CF?$AAd?$AA?$CJ@ 00000000000565a8     UefiDevicePathLib:DevicePathToText.obj
 0002:000018a0       ??_C@_1EI@EPMFLBAJ@?$AAB?$AAl?$AAu?$AAe?$AAt?$AAo?$AAo?$AAt?$AAh?$AA?$CI?$AA?$CF?$AA0?$AA2?$AAx?$AA?$CF@ 00000000000565c0     UefiDevicePathLib:DevicePathToText.obj
 0002:000018e8       ??_C@_1BE@DKODNJMI@?$AAW?$AAi?$AA?9?$AAF?$AAi?$AA?$CI?$AA?$CF?$AAa?$AA?$CJ@ 0000000000056608     UefiDevicePathLib:DevicePathToText.obj
 0002:00001900       ??_C@_1FK@LABBEHKJ@?$AAB?$AAl?$AAu?$AAe?$AAt?$AAo?$AAo?$AAt?$AAh?$AAL?$AAE?$AA?$CI?$AA?$CF?$AA0?$AA2@ 0000000000056620     UefiDevicePathLib:DevicePathToText.obj
 0002:00001960       ??_C@_19KGHFHKGE@?$AAD?$AAn?$AAs?$AA?$CI@ 0000000000056680     UefiDevicePathLib:DevicePathToText.obj
 0002:00001970       ??_C@_0BH@EDBFFFOA@UriStr?5?$CB?$DN?5?$CI?$CIvoid?5?$CK?$CJ?50?$CJ@ 0000000000056690     UefiDevicePathLib:DevicePathToText.obj
 0002:00001988       ??_C@_1BA@OMDAJDPE@?$AAU?$AAr?$AAi?$AA?$CI?$AA?$CF?$AAa?$AA?$CJ@ 00000000000566a8     UefiDevicePathLib:DevicePathToText.obj
 0002:00001998       ??_C@_1CC@GGNPKJFE@?$AAH?$AAD?$AA?$CI?$AA?$CF?$AAd?$AA?0?$AA?$CF?$AAs?$AA?0?$AA0?$AAx?$AA?$CF?$AA0?$AA8?$AAx@ 00000000000566b8     UefiDevicePathLib:DevicePathToText.obj
 0002:000019c0       ??_C@_1BK@NDBPAJDF@?$AAH?$AAD?$AA?$CI?$AA?$CF?$AAd?$AA?0?$AA?$CF?$AAs?$AA?0?$AA?$CF?$AAg?$AA?0@ 00000000000566e0     UefiDevicePathLib:DevicePathToText.obj
 0002:000019e0       ??_C@_1BI@BCKDFMFI@?$AAH?$AAD?$AA?$CI?$AA?$CF?$AAd?$AA?0?$AA?$CF?$AAd?$AA?0?$AA0?$AA?0@ 0000000000056700     UefiDevicePathLib:DevicePathToText.obj
 0002:000019f8       ??_C@_1BK@MMBDHGIK@?$AA0?$AAx?$AA?$CF?$AAl?$AAx?$AA?0?$AA0?$AAx?$AA?$CF?$AAl?$AAx?$AA?$CJ@ 0000000000056718     UefiDevicePathLib:DevicePathToText.obj
 0002:00001a18       ??_C@_1BI@EEHCFNDN@?$AAC?$AAD?$AAR?$AAO?$AAM?$AA?$CI?$AA0?$AAx?$AA?$CF?$AAx?$AA?$CJ@ 0000000000056738     UefiDevicePathLib:DevicePathToText.obj
 0002:00001a30       ??_C@_1DA@JMLBJEDN@?$AAC?$AAD?$AAR?$AAO?$AAM?$AA?$CI?$AA0?$AAx?$AA?$CF?$AAx?$AA?0?$AA0?$AAx?$AA?$CF?$AAl@ 0000000000056750     UefiDevicePathLib:DevicePathToText.obj
 0002:00001a60       ??_C@_15GANGMFKL@?$AA?$CF?$AAs@ 0000000000056780     UefiDevicePathLib:DevicePathToText.obj
 0002:00001a68       ??_C@_1BE@CJGJAKDA@?$AAM?$AAe?$AAd?$AAi?$AAa?$AA?$CI?$AA?$CF?$AAg?$AA?$CJ@ 0000000000056788     UefiDevicePathLib:DevicePathToText.obj
 0002:00001a80       ??_C@_1O@HJJPOOCL@?$AAF?$AAv?$AA?$CI?$AA?$CF?$AAg?$AA?$CJ@ 00000000000567a0     UefiDevicePathLib:DevicePathToText.obj
 0002:00001a90       ??_C@_1BG@MHENELFF@?$AAF?$AAv?$AAF?$AAi?$AAl?$AAe?$AA?$CI?$AA?$CF?$AAg?$AA?$CJ@ 00000000000567b0     UefiDevicePathLib:DevicePathToText.obj
 0002:00001aa8       ??_C@_1CI@FAOKAOM@?$AAO?$AAf?$AAf?$AAs?$AAe?$AAt?$AA?$CI?$AA0?$AAx?$AA?$CF?$AAl?$AAx?$AA?0?$AA0?$AAx@ 00000000000567c8     UefiDevicePathLib:DevicePathToText.obj
 0002:00001ad0       ??_C@_1DI@GJAGNPCG@?$AAV?$AAi?$AAr?$AAt?$AAu?$AAa?$AAl?$AAD?$AAi?$AAs?$AAk?$AA?$CI?$AA0?$AAx?$AA?$CF@ 00000000000567f0     UefiDevicePathLib:DevicePathToText.obj
 0002:00001b08       ??_C@_1DE@FBEBFJJD@?$AAV?$AAi?$AAr?$AAt?$AAu?$AAa?$AAl?$AAC?$AAD?$AA?$CI?$AA0?$AAx?$AA?$CF?$AAl?$AAx@ 0000000000056828     UefiDevicePathLib:DevicePathToText.obj
 0002:00001b40       ??_C@_1EM@PFGFJDCD@?$AAP?$AAe?$AAr?$AAs?$AAi?$AAs?$AAt?$AAe?$AAn?$AAt?$AAV?$AAi?$AAr?$AAt?$AAu@ 0000000000056860     UefiDevicePathLib:DevicePathToText.obj
 0002:00001b90       ??_C@_1EI@IJLGIAIE@?$AAP?$AAe?$AAr?$AAs?$AAi?$AAs?$AAt?$AAe?$AAn?$AAt?$AAV?$AAi?$AAr?$AAt?$AAu@ 00000000000568b0     UefiDevicePathLib:DevicePathToText.obj
 0002:00001bd8       ??_C@_1DG@IFGHOPEL@?$AAR?$AAa?$AAm?$AAD?$AAi?$AAs?$AAk?$AA?$CI?$AA0?$AAx?$AA?$CF?$AAl?$AAx?$AA?0?$AA0@ 00000000000568f8     UefiDevicePathLib:DevicePathToText.obj
 0002:00001c10       ??_C@_1BE@EICHFCPK@?$AAB?$AAB?$AAS?$AA?$CI?$AA?$CF?$AAs?$AA?0?$AA?$CF?$AAa@ 0000000000056930     UefiDevicePathLib:DevicePathToText.obj
 0002:00001c28       ??_C@_1BI@EAEHELAJ@?$AAB?$AAB?$AAS?$AA?$CI?$AA0?$AAx?$AA?$CF?$AAx?$AA?0?$AA?$CF?$AAa@ 0000000000056948     UefiDevicePathLib:DevicePathToText.obj
 0002:00001c40       ??_C@_1BG@BNMBFAIA@?$AAP?$AAa?$AAt?$AAh?$AA?$CI?$AA?$CF?$AAd?$AA?0?$AA?$CF?$AAd@ 0000000000056960     UefiDevicePathLib:DevicePathToText.obj
 0002:00001c58       ??_C@_1M@NAHACGNB@?$AA?$CF?$AAs?$AA?$CI?$AA?$CF?$AAd@ 0000000000056978     UefiDevicePathLib:DevicePathToText.obj
 0002:00001c64       ??_C@_13CGOKJPIL@?$AA?1@   0000000000056984     UefiDevicePathLib:DevicePathToText.obj
 0002:00001c70       mUefiDevicePathLibToTextTableGeneric 0000000000056990     UefiDevicePathLib:DevicePathToText.obj
 0002:00001cd0       mUefiDevicePathLibToTextTable 00000000000569f0     UefiDevicePathLib:DevicePathToText.obj
 0002:00001ff0       ??_C@_0BK@PPOBBAMB@TableGuid?5?$CB?$DN?5?$CI?$CIvoid?5?$CK?$CJ?50?$CJ@ 0000000000056d10     UefiLib:UefiLib.obj
 0002:00002010       ??_C@_0FA@CCBFNMAA@e?3?2code?2adl_n100_code?2uefipldpl@ 0000000000056d30     UefiLib:UefiLib.obj
 0002:00002060       ??_C@_0BG@JDKEGFNB@Table?5?$CB?$DN?5?$CI?$CIvoid?5?$CK?$CJ?50?$CJ@ 0000000000056d80     UefiLib:UefiLib.obj
 0002:00002080       ??_C@_0EG@GOBFPEEP@Name?5?$CB?$DN?5?$CI?$CIvoid?5?$CK?$CJ?50?$CJ?5?$CG?$CG?5Guid?5?$CB?$DN@ 0000000000056da0     UefiLib:UefiLib.obj
 0002:000020c8       ??_C@_0BH@FMEOEIBC@?$CKValue?5?$CB?$DN?5?$CI?$CIvoid?5?$CK?$CJ?50?$CJ@ 0000000000056de8     UefiLib:UefiLib.obj
 0002:000020e0       ??_C@_0CG@CADOKAGM@?$CI?$CI?$CIINTN?$CJ?$CIRETURN_STATUS?$CJ?$CIStatus?$CJ@ 0000000000056e00     UefiLib:UefiLib.obj
 0002:00002110       ??_C@_0FB@KBFNGELC@e?3?2code?2adl_n100_code?2uefipldpl@ 0000000000056e30     DxeHobLib:HobLib.obj
 0002:00002168       ??_C@_0BJ@OBFMLLDO@mHobList?5?$CB?$DN?5?$CI?$CIvoid?5?$CK?$CJ?50?$CJ@ 0000000000056e88     DxeHobLib:HobLib.obj
 0002:00002188       ??_C@_0BJ@NOLLDKJB@HobStart?5?$CB?$DN?5?$CI?$CIvoid?5?$CK?$CJ?50?$CJ@ 0000000000056ea8     DxeHobLib:HobLib.obj
 0002:000021a8       ??_C@_0BI@EDOKPJOP@GuidHob?5?$CB?$DN?5?$CI?$CIvoid?5?$CK?$CJ?50?$CJ@ 0000000000056ec8     AcpiTimerLib:AcpiTimerLib.obj
 0002:000021c0       ??_C@_0GC@KBKBDNKG@e?3?2code?2adl_n100_code?2uefipldpl@ 0000000000056ee0     AcpiTimerLib:AcpiTimerLib.obj
 0002:00002230       ??_C@_0HI@HMDEOHII@e?3?2code?2adl_n100_code?2uefipldpl@ 0000000000056f50     DxeSecurityManagementLib:DxeSecurityManagementLib.obj
 0002:000022a8       ??_C@_0CB@GECIHHMD@Security2Handler?5?$CB?$DN?5?$CI?$CIvoid?5?$CK?$CJ?50@ 0000000000056fc8     DxeSecurityManagementLib:DxeSecurityManagementLib.obj
 0002:000022d0       ??_C@_0FA@IHNNLLKH@CheckAuthentication2Operation?5?$CI@ 0000000000056ff0     DxeSecurityManagementLib:DxeSecurityManagementLib.obj
 0002:00002320       ??_C@_19DILNDFJH@?$AAS?$AAH?$AAA?$AA1@ 0000000000057040     DxeImageVerificationLib:DxeImageVerificationLib.obj
 0002:00002330       ??_C@_1O@MDCKFILO@?$AAS?$AAH?$AAA?$AA2?$AA2?$AA4@ 0000000000057050     DxeImageVerificationLib:DxeImageVerificationLib.obj
 0002:00002340       ??_C@_1O@HECGKAIN@?$AAS?$AAH?$AAA?$AA2?$AA5?$AA6@ 0000000000057060     DxeImageVerificationLib:DxeImageVerificationLib.obj
 0002:00002350       ??_C@_1O@KOBLHLEG@?$AAS?$AAH?$AAA?$AA3?$AA8?$AA4@ 0000000000057070     DxeImageVerificationLib:DxeImageVerificationLib.obj
 0002:00002360       ??_C@_1O@GKBAHMNF@?$AAS?$AAH?$AAA?$AA5?$AA1?$AA2@ 0000000000057080     DxeImageVerificationLib:DxeImageVerificationLib.obj
 0002:00002370       ??_C@_0DA@LGPFMGPP@Signature?5?$CB?$DN?5?$CI?$CIvoid?5?$CK?$CJ?50?$CJ?5?$HM?$HM?5Si@ 0000000000057090     DxeImageVerificationLib:DxeImageVerificationLib.obj
 0002:000023a0       ??_C@_0HF@NGEFOAAL@e?3?2code?2adl_n100_code?2uefipldpl@ 00000000000570c0     DxeImageVerificationLib:DxeImageVerificationLib.obj
 0002:00002418       ??_C@_15EMHHCMJI@?$AAd?$AAb@ 0000000000057138     DxeImageVerificationLib:DxeImageVerificationLib.obj
 0002:00002420       ??_C@_17GPBNBHEN@?$AAd?$AAb?$AAt@ 0000000000057140     DxeImageVerificationLib:DxeImageVerificationLib.obj
 0002:00002428       ??_C@_17CFMLKIPF@?$AAd?$AAb?$AAx@ 0000000000057148     DxeImageVerificationLib:DxeImageVerificationLib.obj
 0002:00002430       ??_C@_0EN@OAEDNNJH@DxeImageVerificationLib?3?5Image?5@ 0000000000057150     DxeImageVerificationLib:DxeImageVerificationLib.obj
 0002:00002480       ??_C@_0FE@LHLCOCMG@DxeImageVerificationLib?3?5Image?5@ 00000000000571a0     DxeImageVerificationLib:DxeImageVerificationLib.obj
 0002:000024e0       ??_C@_0HJ@IPFIIPJ@DxeImageVerificationLib?3?5Image?5@ 0000000000057200     DxeImageVerificationLib:DxeImageVerificationLib.obj
 0002:00002560       ??_C@_1BG@JEGAFCNI@?$AAS?$AAe?$AAc?$AAu?$AAr?$AAe?$AAB?$AAo?$AAo?$AAt@ 0000000000057280     DxeImageVerificationLib:DxeImageVerificationLib.obj
 0002:00002580       ??_C@_0EO@LKMMOIME@DxeImageVerificationLib?3?5PeImag@ 00000000000572a0     DxeImageVerificationLib:DxeImageVerificationLib.obj
 0002:000025d0       ??_C@_0DF@IIJEJIIE@DxeImageVerificationLib?3?5Not?5a?5@ 00000000000572f0     DxeImageVerificationLib:DxeImageVerificationLib.obj
 0002:00002608       ??_C@_0DO@COJGMEME@DxeImageVerificationLib?3?5Failed@ 0000000000057328     DxeImageVerificationLib:DxeImageVerificationLib.obj
 0002:00002650       ??_C@_0FI@ELMNEFPH@DxeImageVerificationLib?3?5Image?5@ 0000000000057370     DxeImageVerificationLib:DxeImageVerificationLib.obj
 0002:000026b0       ??_C@_0FL@DAMFCDN@DxeImageVerificationLib?3?5Image?5@ 00000000000573d0     DxeImageVerificationLib:DxeImageVerificationLib.obj
 0002:00002710       ??_C@_0FA@GHKOMGOH@DxeImageVerificationLib?3?5Image?5@ 0000000000057430     DxeImageVerificationLib:DxeImageVerificationLib.obj
 0002:00002760       ??_C@_0HK@LACJFNFH@DxeImageVerificationLib?3?5Image?5@ 0000000000057480     DxeImageVerificationLib:DxeImageVerificationLib.obj
 0002:000027e0       ??_C@_0CJ@BJMGFOEB@The?5image?5doesn?8t?5pass?5verifica@ 0000000000057500     DxeImageVerificationLib:DxeImageVerificationLib.obj
 0002:00002810       ??_C@_0DG@IKHBLEIC@mMeasuredAuthorityCount?5?$DM?$DN?5mMea@ 0000000000057530     DxeImageVerificationLib:Measurement.obj
 0002:00002850       ??_C@_0GJ@EDEANGJO@e?3?2code?2adl_n100_code?2uefipldpl@ 0000000000057570     DxeImageVerificationLib:Measurement.obj
 0002:000028c0       ??_C@_0EC@EMHNPDHL@DxeImageVerification?3?5MeasureVa@ 00000000000575e0     DxeImageVerificationLib:Measurement.obj
 0002:00002908       ??_C@_0CF@EJGGIPIO@VariableName?5?9?5?$CFs?0?5VendorGuid?5?9@ 0000000000057628     DxeImageVerificationLib:Measurement.obj
 0002:00002930       ??_C@_0DB@IMCIBOIB@MeasureSecureAuthorityVariable?5@ 0000000000057650     DxeImageVerificationLib:Measurement.obj
 0002:00002968       ??_C@_0CA@GAMOOMNI@MeasureBootPolicyVariable?5?9?5?$CFr?6@ 0000000000057688     DxeImageVerificationLib:Measurement.obj
 0002:00002988       ??_C@_0CI@HLCMAPAD@Failed?5to?5Read?5Partition?5Table?5@ 00000000000576a8     DxeTpm2MeasureBootLib:DxeTpm2MeasureBootLib.obj
 0002:000029b0       ??_C@_0CO@CMBPBFAH@Tcg2MeasurePeImage?3?5Unknown?5sub@ 00000000000576d0     DxeTpm2MeasureBootLib:DxeTpm2MeasureBootLib.obj
 0002:000029e0       ??_C@_0CH@HBIIHOOE@DxeTpm2MeasureBootHandler?5?9?5Tcg@ 0000000000057700     DxeTpm2MeasureBootLib:DxeTpm2MeasureBootLib.obj
 0002:00002a08       ??_C@_0DG@LBHIDBPJ@DxeTpm2MeasureBootHandler?5?$CI?$CFr?$CJ?5@ 0000000000057728     DxeTpm2MeasureBootLib:DxeTpm2MeasureBootLib.obj
 0002:00002a40       ??_C@_0BP@IFDAIIIE@DevicePathNode?5?$CB?$DN?5?$CI?$CIvoid?5?$CK?$CJ?50?$CJ@ 0000000000057760     DxeTpm2MeasureBootLib:DxeTpm2MeasureBootLib.obj
 0002:00002a60       ??_C@_0HB@NMPCFOCH@e?3?2code?2adl_n100_code?2uefipldpl@ 0000000000057780     DxeTpm2MeasureBootLib:DxeTpm2MeasureBootLib.obj
 0002:00002ad8       ??_C@_0DG@CHKNEPHE@DxeTpm2MeasureBootHandler?5?9?5Tcg@ 00000000000577f8     DxeTpm2MeasureBootLib:DxeTpm2MeasureBootLib.obj
 0002:00002b10       ??_C@_0CD@GNCPCAHD@OrigDevicePathNode?5?$CB?$DN?5?$CI?$CIvoid?5?$CK?$CJ@ 0000000000057830     DxeTpm2MeasureBootLib:DxeTpm2MeasureBootLib.obj
 0002:00002b38       ??_C@_0CA@KJMBHELL@The?5measured?5image?5path?5is?5?$CFs?4?6@ 0000000000057858     DxeTpm2MeasureBootLib:DxeTpm2MeasureBootLib.obj
 0002:00002b58       ??_C@_0DF@ICADBOFF@DxeTpm2MeasureBootHandler?5?9?5Tcg@ 0000000000057878     DxeTpm2MeasureBootLib:DxeTpm2MeasureBootLib.obj
 0002:00002b90       ??_C@_0CA@MJGHOEL@DxeTpm2MeasureBootHandler?5?9?5?$CFr?6@ 00000000000578b0     DxeTpm2MeasureBootLib:DxeTpm2MeasureBootLib.obj
 0002:00002bb0       ??_C@_0EP@EKIACOFF@e?3?2code?2adl_n100_code?2uefipldpl@ 00000000000578d0     BaseLib:String.obj
 0002:00002c00       ??_C@_0BH@MAAHKCPC@String?5?$CB?$DN?5?$CI?$CIvoid?5?$CK?$CJ?50?$CJ@ 0000000000057920     BaseLib:String.obj
 0002:00002c18       ??_C@_0CD@BDCLIGHD@?$CI?$CIUINTN?$CJ?5String?5?$CG?50x00000001?$CJ?5?$DN@ 0000000000057938     BaseLib:String.obj
 0002:00002c40       ??_C@_0DK@EOJCOAME@Length?5?$DM?5_gPcd_FixedAtBuild_Pcd@ 0000000000057960     BaseLib:String.obj
 0002:00002c80       ??_C@_0BL@JAAMOCAJ@StrSize?5?$CIFirstString?$CJ?5?$CB?$DN?50@ 00000000000579a0     BaseLib:String.obj
 0002:00002ca0       ??_C@_0BM@DALBOILC@StrSize?5?$CISecondString?$CJ?5?$CB?$DN?50@ 00000000000579c0     BaseLib:String.obj
 0002:00002cc0       ??_C@_0DJ@JJHGIFMP@Length?5?$DM?$DN?5_gPcd_FixedAtBuild_Pc@ 00000000000579e0     BaseLib:String.obj
 0002:00002d00       ??_C@_0DI@MDIKFADO@Length?5?$DM?5_gPcd_FixedAtBuild_Pcd@ 0000000000057a20     BaseLib:String.obj
 0002:00002d38       ??_C@_0BL@IKFBNFIL@AsciiStrSize?5?$CIFirstString?$CJ@ 0000000000057a58     BaseLib:String.obj
 0002:00002d58       ??_C@_0BM@EDNOKLLE@AsciiStrSize?5?$CISecondString?$CJ@ 0000000000057a78     BaseLib:String.obj
 0002:00002d80       ??_C@_0FC@OLDIOFBJ@e?3?2code?2adl_n100_code?2uefipldpl@ 0000000000057aa0     BaseLib:Unaligned.obj
 0002:00002de0       ??_C@_0FD@GHHGINGE@e?3?2code?2adl_n100_code?2uefipldpl@ 0000000000057b00     BaseLib:SafeString.obj
 0002:00002e38       ??_C@_0BG@GNFHKOHD@?$CIDestination?5?$CB?$DN?5NULL?$CJ@ 0000000000057b58     BaseLib:SafeString.obj
 0002:00002e50       ??_C@_0EA@PDPDJJNN@?$CFa?$CI?$CFd?$CJ?5?$CFa?3?5SAFE_STRING_CONSTRAI@ 0000000000057b70     BaseLib:SafeString.obj
 0002:00002e90       ??_C@_0BB@OBKINEMG@?$CISource?5?$CB?$DN?5NULL?$CJ@ 0000000000057bb0     BaseLib:SafeString.obj
 0002:00002ea8       ??_C@_0BG@EEGIIOKH@?$CIDestMax?5?$DO?5SourceLen?$CJ@ 0000000000057bc8     BaseLib:SafeString.obj
 0002:00002ec0       ??_C@_0P@BHOOOJPD@?$CICopyLen?5?$CB?$DN?50?$CJ@ 0000000000057be0     BaseLib:SafeString.obj
 0002:00002ed0       ??_C@_0BG@BPGICNPK@?$CICopyLen?5?$DO?5SourceLen?$CJ@ 0000000000057bf0     BaseLib:SafeString.obj
 0002:00002ee8       ??_C@_0BB@ILPOOGOB@?$CIString?5?$CB?$DN?5NULL?$CJ@ 0000000000057c08     BaseLib:SafeString.obj
 0002:00002f00       ??_C@_0P@HAABELCO@?$CIData?5?$CB?$DN?5NULL?$CJ@ 0000000000057c20     BaseLib:SafeString.obj
 0002:00002f10       ??_C@_0N@OMPODJLB@AsciiStrCpyS@ 0000000000057c30     BaseLib:SafeString.obj
 0002:00002f20       ??_C@_0FL@CDANCHFO@InternalSafeStringNoAsciiStrOve@ 0000000000057c40     BaseLib:SafeString.obj
 0002:00002f80       ??_C@_0O@DIHNCLLG@AsciiStrnCpyS@ 0000000000057ca0     BaseLib:SafeString.obj
 0002:00002f90       ??_C@_0BM@ILEEDNEF@?$CILength?5?$DM?$DN?5ASCII_RSIZE_MAX?$CJ@ 0000000000057cb0     BaseLib:SafeString.obj
 0002:00002fb0       ??_C@_0N@MIDJKBI@AsciiStrCatS@ 0000000000057cd0     BaseLib:SafeString.obj
 0002:00002fc0       ??_C@_0BI@GIIHIIN@AsciiStrDecimalToUintnS@ 0000000000057ce0     BaseLib:SafeString.obj
 0002:00002fe0       ??_C@_0EB@EMELIKCM@?$CIAsciiStrnLenS?5?$CIString?0?5ASCII_R@ 0000000000057d00     BaseLib:SafeString.obj
 0002:00003028       ??_C@_0N@KGHEHMDL@Divisor?5?$CB?$DN?50@ 0000000000057d48     BaseLib:DivU64x32.obj
 0002:00003038       ??_C@_0DI@DAGDPLPG@?$CILength?5?9?51?$CJ?5?$DM?$DN?5?$CI0xFFFFFFFFFFFF@ 0000000000057d58     BaseMemoryLibRepStr:SetMemWrapper.obj
 0002:00003070       ??_C@_0GC@LFOFKBAK@e?3?2code?2adl_n100_code?2uefipldpl@ 0000000000057d90     BaseMemoryLibRepStr:SetMemWrapper.obj
 0002:000030e0       ??_C@_0GD@BACINENJ@e?3?2code?2adl_n100_code?2uefipldpl@ 0000000000057e00     BaseMemoryLibRepStr:ZeroMemWrapper.obj
 0002:00003148       ??_C@_0DG@EEENIGGL@Length?5?$DM?$DN?5?$CI0xFFFFFFFFFFFFFFFFUL@ 0000000000057e68     BaseMemoryLibRepStr:ZeroMemWrapper.obj
 0002:00003180       ??_C@_0FM@GDLDJIBH@e?3?2code?2adl_n100_code?2uefipldpl@ 0000000000057ea0     BaseIoLibIntrinsic:IoLibMsc.obj
 0002:000031e0       ??_C@_0BA@HCECIDGN@?$CIPort?5?$CG?53?$CJ?5?$DN?$DN?50@ 0000000000057f00     BaseIoLibIntrinsic:IoLibMsc.obj
 0002:000031f0       ??_C@_0CI@BGLNHBLM@?$CI?$CI?$CIUINTN?$CJ?5?$CIStartOfBuffer?$CJ?$CJ?5?$CG?50x@ 0000000000057f10     BasePrintLib:PrintLib.obj
 0002:00003220       ??_C@_0FG@KHGEGNOH@e?3?2code?2adl_n100_code?2uefipldpl@ 0000000000057f40     BasePrintLib:PrintLib.obj
 0002:00003278       ??_C@_0CH@KJLBGOBB@?$CI?$CI?$CIUINTN?$CJ?5?$CIFormatString?$CJ?$CJ?5?$CG?50x0@ 0000000000057f98     BasePrintLib:PrintLib.obj
 0002:000032a0       ??_C@_0FO@GLOLNBHK@e?3?2code?2adl_n100_code?2uefipldpl@ 0000000000057fc0     BasePrintLib:PrintLibInternal.obj
 0002:00003300       ??_C@_0BJ@CNKJJNE@?$CIBuffer?5?$CB?$DN?5?$CI?$CIvoid?5?$CK?$CJ?50?$CJ?$CJ@ 0000000000058020     BasePrintLib:PrintLibInternal.obj
 0002:00003320       ??_C@_0EB@HDGIDCIO@?$CIBufferSize?5?$DM?$DN?5?$CI_gPcd_FixedAtBu@ 0000000000058040     BasePrintLib:PrintLibInternal.obj
 0002:00003368       ??_C@_0BJ@PPAKKDJG@?$CIFormat?5?$CB?$DN?5?$CI?$CIvoid?5?$CK?$CJ?50?$CJ?$CJ@ 0000000000058088     BasePrintLib:PrintLibInternal.obj
 0002:00003390       ??_C@_0ED@LPDDCECB@?$CIBufferSize?5?$DM?$DN?5?$CI_gPcd_FixedAtBu@ 00000000000580b0     BasePrintLib:PrintLibInternal.obj
 0002:000033e0       ??_C@_0IM@BFJJFLGB@?$CIStrnLenS?5?$CI?$CICHAR16?5?$CK?$CJFormat?0?5?$CI_@ 0000000000058100     BasePrintLib:PrintLibInternal.obj
 0002:00003470       ??_C@_0ID@PLGJGION@?$CIAsciiStrnLenS?5?$CIFormat?0?5?$CI_gPcd_@ 0000000000058190     BasePrintLib:PrintLibInternal.obj
 0002:000034f8       ??_C@_0O@MLOLIMFM@?$DMnull?5string?$DO@ 0000000000058218     BasePrintLib:PrintLibInternal.obj
 0002:00003508       ??_C@_0M@BJJDNPHK@?$DMnull?5guid?$DO@ 0000000000058228     BasePrintLib:PrintLibInternal.obj
 0002:00003518       ??_C@_0DB@PMLHLBMO@?$CF08x?9?$CF04x?9?$CF04x?9?$CF02x?$CF02x?9?$CF02x?$CF02@ 0000000000058238     BasePrintLib:PrintLibInternal.obj
 0002:00003550       ??_C@_0M@LHGBCIKM@?$DMnull?5time?$DO@ 0000000000058270     BasePrintLib:PrintLibInternal.obj
 0002:00003560       ??_C@_0BK@FCPKCIDD@?$CF02d?1?$CF02d?1?$CF04d?5?5?$CF02d?3?$CF02d@ 0000000000058280     BasePrintLib:PrintLibInternal.obj
 0002:0000357c       ??_C@_04JIMNDDED@?$CF08X@  000000000005829c     BasePrintLib:PrintLibInternal.obj
 0002:00003584       ??_C@_02PCIJFNDE@?$AN?6@   00000000000582a4     BasePrintLib:PrintLibInternal.obj
 0002:00003588       ??_C@_01LIIJDEN@?$AN@      00000000000582a8     BasePrintLib:PrintLibInternal.obj
 0002:00003590       mWarningString             00000000000582b0     BasePrintLib:PrintLibInternal.obj
 0002:00003630       mErrorString               0000000000058350     BasePrintLib:PrintLibInternal.obj
 0002:000038f0       mHexStr                    0000000000058610     BasePrintLib:PrintLibInternal.obj
 0002:00003900       ??_C@_0HM@INGECGBC@e?3?2code?2adl_n100_code?2uefipldpl@ 0000000000058620     SblParseLib:SblParseLib.obj
 0002:00003980       ??_C@_0BF@GKGPMHBK@HandoffTable?5?$DN?50x?$CFp?6@ 00000000000586a0     SblParseLib:SblParseLib.obj
 0002:00003998       ??_C@_0BO@JGHCOEDD@?6?6ERROR?5?5the?5hob?5check?5fail?4?6@ 00000000000586b8     SblParseLib:SblParseLib.obj
 0002:000039b8       ??_C@_0BI@NCGMODPG@HobList?5?$CB?$DN?5?$CI?$CIvoid?5?$CK?$CJ?50?$CJ@ 00000000000586d8     SblParseLib:SblParseLib.obj
 0002:000039d0       ??_C@_0FF@DIHJKAPJ@e?3?2code?2adl_n100_code?2uefipldpl@ 00000000000586f0     UefiLib:UefiNotTiano.obj
 0002:00003a28       ??_C@_0CB@LNNMJOKK@ReadyToBootEvent?5?$CB?$DN?5?$CI?$CIvoid?5?$CK?$CJ?50@ 0000000000058748     UefiLib:UefiNotTiano.obj
 0002:00003a50       ??_C@_0CH@LOBIJKLE@EFI1?41?5can?8t?5support?5ReadyToBoo@ 0000000000058770     UefiLib:UefiNotTiano.obj
 0002:00003a78       ??_C@_0CB@OKGFGBHJ@FvDevicePathNode?5?$CB?$DN?5?$CI?$CIvoid?5?$CK?$CJ?50@ 0000000000058798     UefiLib:UefiNotTiano.obj
 0002:00003aa0       ??_C@_08FBKDDLCN@RSA?9SHA1@ 00000000000587c0     BaseCryptLib:CryptPkcs7VerifyCommon.obj
 0002:00003ab0       ??_C@_0L@EMMEGDKK@RSA?9SHA1?92@ 00000000000587d0     BaseCryptLib:CryptPkcs7VerifyCommon.obj
 0002:00003abb       ??_C@_00CNPNBAHC@@         00000000000587db     BaseCryptLib:CryptPkcs7VerifyCommon.obj
 0002:00003ac0       ??_C@_0O@PKPPMCJC@HashAlgorithm@ 00000000000587e0     BaseCryptLib:CryptTs.obj
 0002:00003ad0       ??_C@_0O@IOBJNEOO@HashedMessage@ 00000000000587f0     BaseCryptLib:CryptTs.obj
 0002:00003ae0       ??_C@_0BD@MPNLNFAE@TS_MESSAGE_IMPRINT@ 0000000000058800     BaseCryptLib:CryptTs.obj
 0002:00003af8       ??_C@_07JNMNODGA@Seconds@  0000000000058818     BaseCryptLib:CryptTs.obj
 0002:00003b00       ??_C@_06GJCGCMH@Millis@    0000000000058820     BaseCryptLib:CryptTs.obj
 0002:00003b08       ??_C@_06DAIJKJAI@Micros@   0000000000058828     BaseCryptLib:CryptTs.obj
 0002:00003b10       ??_C@_0M@CNJBGMJO@TS_ACCURACY@ 0000000000058830     BaseCryptLib:CryptTs.obj
 0002:00003b20       ??_C@_07NGFJPNPN@Version@  0000000000058840     BaseCryptLib:CryptTs.obj
 0002:00003b28       ??_C@_06BGGEOBLK@Policy@   0000000000058848     BaseCryptLib:CryptTs.obj
 0002:00003b30       ??_C@_0P@ONGPGNKF@MessageImprint@ 0000000000058850     BaseCryptLib:CryptTs.obj
 0002:00003b40       ??_C@_0N@FPJJBBNM@SerialNumber@ 0000000000058860     BaseCryptLib:CryptTs.obj
 0002:00003b50       ??_C@_07IBMNPABJ@GenTime@  0000000000058870     BaseCryptLib:CryptTs.obj
 0002:00003b58       ??_C@_08NLCOAFEI@Accuracy@ 0000000000058878     BaseCryptLib:CryptTs.obj
 0002:00003b68       ??_C@_08HMKBFHBJ@Ordering@ 0000000000058888     BaseCryptLib:CryptTs.obj
 0002:00003b74       ??_C@_05OJOPLPHH@Nonce@    0000000000058894     BaseCryptLib:CryptTs.obj
 0002:00003b7c       ??_C@_03LAIFDEPJ@Tsa@      000000000005889c     BaseCryptLib:CryptTs.obj
 0002:00003b80       ??_C@_0L@ELOHEHF@Extensions@ 00000000000588a0     BaseCryptLib:CryptTs.obj
 0002:00003b90       ??_C@_0M@OBJPBKFE@TS_TST_INFO@ 00000000000588b0     BaseCryptLib:CryptTs.obj
 0002:00003ba0       TS_MESSAGE_IMPRINT_it      00000000000588c0     BaseCryptLib:CryptTs.obj
 0002:00003bd0       TS_TST_INFO_it             00000000000588f0     BaseCryptLib:CryptTs.obj
 0002:00003d40       TS_ACCURACY_it             0000000000058a60     BaseCryptLib:CryptTs.obj
 0002:00003e10       ??_C@_0EP@JFHHNCHN@OldPoolHdr?9?$DOSignature?5?$DN?$DN?5?$CI?$CI?$CI?8c?8@ 0000000000058b30     BaseCryptLib:BaseMemAllocation.obj
 0002:00003e60       ??_C@_0GK@FMDNAGEI@e?3?2code?2adl_n100_code?2uefipldpl@ 0000000000058b80     BaseCryptLib:BaseMemAllocation.obj
 0002:00003ed0       ??_C@_0EM@DCOKKDEG@PoolHdr?9?$DOSignature?5?$DN?$DN?5?$CI?$CI?$CI?8c?8?$CJ?5?$HM@ 0000000000058bf0     BaseCryptLib:BaseMemAllocation.obj
 0002:00003f20       ??_C@_0FL@HLNNCKBP@e?3?2code?2adl_n100_code?2uefipldpl@ 0000000000058c40     BaseLib:DivU64x32Remainder.obj
 0002:00003f80       ??_C@_0FJ@GBGHCPBH@e?3?2code?2adl_n100_code?2uefipldpl@ 0000000000058ca0     BaseIoLibIntrinsic:IoLib.obj
 0002:00003fe0       ??_C@_0BD@OMMAJMCK@?$CIAddress?5?$CG?53?$CJ?5?$DN?$DN?50@ 0000000000058d00     BaseIoLibIntrinsic:IoLib.obj
 0002:00003ff8       ??_C@_0BO@BAKALPJK@?$CI?$CIAddress?$CJ?5?$CG?5?$HO0xfffffff?$CJ?5?$DN?$DN?50@ 0000000000058d18     BasePciExpressLib:PciExpressLib.obj
 0002:00004020       ??_C@_0GA@NDAEIBGJ@e?3?2code?2adl_n100_code?2uefipldpl@ 0000000000058d40     BasePciExpressLib:PciExpressLib.obj
 0002:00004300       ??_C@_07DLHCIBDH@default@  0000000000059020     OpensslLib:x509_vfy.obj
 0002:00004320       ??_C@_07CPCPJPKL@version@  0000000000059040     OpensslLib:x_x509.obj
 0002:00004328       ??_C@_0N@OMOHFKCJ@serialNumber@ 0000000000059048     OpensslLib:x_x509.obj
 0002:00004338       ??_C@_09CMIIOJHF@signature@ 0000000000059058     OpensslLib:x_x509.obj
 0002:00004344       ??_C@_06EAINIONG@issuer@   0000000000059064     OpensslLib:x_x509.obj
 0002:00004350       ??_C@_08GCHKOCBP@validity@ 0000000000059070     OpensslLib:x_x509.obj
 0002:00004360       ??_C@_07JNNGEGGO@subject@  0000000000059080     OpensslLib:x_x509.obj
 0002:00004368       ??_C@_03ICHNJLJF@key@      0000000000059088     OpensslLib:x_x509.obj
 0002:00004370       ??_C@_09KIIAMAEE@issuerUID@ 0000000000059090     OpensslLib:x_x509.obj
 0002:00004380       ??_C@_0L@JMFHLKAL@subjectUID@ 00000000000590a0     OpensslLib:x_x509.obj
 0002:00004390       ??_C@_0L@ICCCPLKC@extensions@ 00000000000590b0     OpensslLib:x_x509.obj
 0002:000043a0       ??_C@_09LCJGKABB@X509_CINF@ 00000000000590c0     OpensslLib:x_x509.obj
 0002:000043b0       ??_C@_09NKDPGBBA@cert_info@ 00000000000590d0     OpensslLib:x_x509.obj
 0002:000043c0       ??_C@_07OBHFIHGJ@sig_alg@  00000000000590e0     OpensslLib:x_x509.obj
 0002:000043c8       ??_C@_04NMKEOMFB@X509@     00000000000590e8     OpensslLib:x_x509.obj
 0002:00004570       X509_it                    0000000000059290     OpensslLib:x_x509.obj
 0002:000045f0       X509_CINF_it               0000000000059310     OpensslLib:x_x509.obj
 0002:00004848       ??_C@_01CLKCMJKC@?5@       0000000000059568     OpensslLib:bio_lib.obj
 0002:00004850       ??_C@_0L@GGDBHMO@smime_sign@ 0000000000059570     OpensslLib:pk7_smime.obj
 0002:00004860       ??_C@_0O@HFNJECFC@Verify?5error?3@ 0000000000059580     OpensslLib:pk7_smime.obj
 0002:00004870       ??_C@_07JIJPKMF@d?4other@  0000000000059590     OpensslLib:pk7_asn1.obj
 0002:00004878       ??_C@_06OAPKPHLA@d?4data@  0000000000059598     OpensslLib:pk7_asn1.obj
 0002:00004880       ??_C@_06GOHGJFCL@d?4sign@  00000000000595a0     OpensslLib:pk7_asn1.obj
 0002:00004888       ??_C@_0M@CLKMIMCI@d?4enveloped@ 00000000000595a8     OpensslLib:pk7_asn1.obj
 0002:00004898       ??_C@_0BH@FHPJHCLF@d?4signed_and_enveloped@ 00000000000595b8     OpensslLib:pk7_asn1.obj
 0002:000048b0       ??_C@_08JOIJLLGO@d?4digest@ 00000000000595d0     OpensslLib:pk7_asn1.obj
 0002:000048c0       ??_C@_0M@IDEHBFAL@d?4encrypted@ 00000000000595e0     OpensslLib:pk7_asn1.obj
 0002:000048cc       ??_C@_04GPMDFGEJ@type@     00000000000595ec     OpensslLib:pk7_asn1.obj
 0002:000048d4       ??_C@_05BKMMPIPN@PKCS7@    00000000000595f4     OpensslLib:pk7_asn1.obj
 0002:000048e0       ??_C@_07MPDKKGPO@md_algs@  0000000000059600     OpensslLib:pk7_asn1.obj
 0002:000048e8       ??_C@_08ODCIAOPM@contents@ 0000000000059608     OpensslLib:pk7_asn1.obj
 0002:000048f4       ??_C@_04PHJBACIC@cert@     0000000000059614     OpensslLib:pk7_asn1.obj
 0002:000048fc       ??_C@_03GJBFOAJL@crl@      000000000005961c     OpensslLib:pk7_asn1.obj
 0002:00004900       ??_C@_0M@KEDNAHBP@signer_info@ 0000000000059620     OpensslLib:pk7_asn1.obj
 0002:00004910       ??_C@_0N@CKBJFFNF@PKCS7_SIGNED@ 0000000000059630     OpensslLib:pk7_asn1.obj
 0002:00004920       ??_C@_0BC@PMGLGNPO@issuer_and_serial@ 0000000000059640     OpensslLib:pk7_asn1.obj
 0002:00004938       ??_C@_0L@OGBFEEJI@digest_alg@ 0000000000059658     OpensslLib:pk7_asn1.obj
 0002:00004948       ??_C@_09PLABOLFJ@auth_attr@ 0000000000059668     OpensslLib:pk7_asn1.obj
 0002:00004958       ??_C@_0P@KLFHBHJD@digest_enc_alg@ 0000000000059678     OpensslLib:pk7_asn1.obj
 0002:00004968       ??_C@_0L@PJDBOMFC@enc_digest@ 0000000000059688     OpensslLib:pk7_asn1.obj
 0002:00004978       ??_C@_0M@NNBFAOJK@unauth_attr@ 0000000000059698     OpensslLib:pk7_asn1.obj
 0002:00004988       ??_C@_0BC@BFFCPPDG@PKCS7_SIGNER_INFO@ 00000000000596a8     OpensslLib:pk7_asn1.obj
 0002:0000499c       ??_C@_06KCELPKEE@serial@   00000000000596bc     OpensslLib:pk7_asn1.obj
 0002:000049a8       ??_C@_0BI@POAIONGK@PKCS7_ISSUER_AND_SERIAL@ 00000000000596c8     OpensslLib:pk7_asn1.obj
 0002:000049c0       ??_C@_0O@HGJALPPJ@recipientinfo@ 00000000000596e0     OpensslLib:pk7_asn1.obj
 0002:000049d0       ??_C@_08ENNDKKOI@enc_data@ 00000000000596f0     OpensslLib:pk7_asn1.obj
 0002:000049e0       ??_C@_0P@KCJMJLOD@PKCS7_ENVELOPE@ 0000000000059700     OpensslLib:pk7_asn1.obj
 0002:000049f0       ??_C@_0O@ODFHHMFC@key_enc_algor@ 0000000000059710     OpensslLib:pk7_asn1.obj
 0002:00004a00       ??_C@_07LBLKCHGJ@enc_key@  0000000000059720     OpensslLib:pk7_asn1.obj
 0002:00004a08       ??_C@_0BB@MGPEFENK@PKCS7_RECIP_INFO@ 0000000000059728     OpensslLib:pk7_asn1.obj
 0002:00004a20       ??_C@_0N@IEAAACJL@content_type@ 0000000000059740     OpensslLib:pk7_asn1.obj
 0002:00004a30       ??_C@_09JPNFBOJG@algorithm@ 0000000000059750     OpensslLib:pk7_asn1.obj
 0002:00004a40       ??_C@_0BC@INKEDPEG@PKCS7_ENC_CONTENT@ 0000000000059760     OpensslLib:pk7_asn1.obj
 0002:00004a58       ??_C@_0BE@LMHBPFDD@PKCS7_SIGN_ENVELOPE@ 0000000000059778     OpensslLib:pk7_asn1.obj
 0002:00004a70       ??_C@_0O@GIFGHKGC@PKCS7_ENCRYPT@ 0000000000059790     OpensslLib:pk7_asn1.obj
 0002:00004a80       ??_C@_02EBCANADN@md@       00000000000597a0     OpensslLib:pk7_asn1.obj
 0002:00004a84       ??_C@_06IJPNAHC@digest@    00000000000597a4     OpensslLib:pk7_asn1.obj
 0002:00004a90       ??_C@_0N@NAILNAH@PKCS7_DIGEST@ 00000000000597b0     OpensslLib:pk7_asn1.obj
 0002:00004aa0       ??_C@_0BB@ODHHPICH@PKCS7_ATTRIBUTES@ 00000000000597c0     OpensslLib:pk7_asn1.obj
 0002:00004ab8       ??_C@_0BA@IJMFEGLH@PKCS7_ATTR_SIGN@ 00000000000597d8     OpensslLib:pk7_asn1.obj
 0002:00004ac8       ??_C@_0BC@DLHIINOH@PKCS7_ATTR_VERIFY@ 00000000000597e8     OpensslLib:pk7_asn1.obj
 0002:00004b40       PKCS7_ENCRYPT_it           0000000000059860     OpensslLib:pk7_asn1.obj
 0002:00004b70       PKCS7_RECIP_INFO_it        0000000000059890     OpensslLib:pk7_asn1.obj
 0002:00004ba0       PKCS7_SIGNED_it            00000000000598c0     OpensslLib:pk7_asn1.obj
 0002:00004d10       PKCS7_DIGEST_it            0000000000059a30     OpensslLib:pk7_asn1.obj
 0002:00004d40       PKCS7_ENC_CONTENT_it       0000000000059a60     OpensslLib:pk7_asn1.obj
 0002:00004dd0       PKCS7_it                   0000000000059af0     OpensslLib:pk7_asn1.obj
 0002:00004e00       PKCS7_SIGNER_INFO_it       0000000000059b20     OpensslLib:pk7_asn1.obj
 0002:00004f20       PKCS7_ATTR_VERIFY_it       0000000000059c40     OpensslLib:pk7_asn1.obj
 0002:00004f78       PKCS7_ISSUER_AND_SERIAL_it 0000000000059c98     OpensslLib:pk7_asn1.obj
 0002:00005170       PKCS7_SIGN_ENVELOPE_it     0000000000059e90     OpensslLib:pk7_asn1.obj
 0002:000051c8       PKCS7_ATTR_SIGN_it         0000000000059ee8     OpensslLib:pk7_asn1.obj
 0002:00005360       PKCS7_ENVELOPE_it          000000000005a080     OpensslLib:pk7_asn1.obj
 0002:00005430       ??_C@_0O@DIEIKEFB@memory?5buffer@ 000000000005a150     OpensslLib:bss_mem.obj
 0002:000054e8       ??_C@_05DBLJEJPC@UNDEF@    000000000005a208     OpensslLib:obj_dat.obj
 0002:000054f0       ??_C@_09MLGAJAED@undefined@ 000000000005a210     OpensslLib:obj_dat.obj
 0002:000054fc       ??_C@_06GGEMKGKC@rsadsi@   000000000005a21c     OpensslLib:obj_dat.obj
 0002:00005508       ??_C@_0BI@MPBNCOIB@RSA?5Data?5Security?0?5Inc?4@ 000000000005a228     OpensslLib:obj_dat.obj
 0002:00005520       ??_C@_04GCKLMHGD@pkcs@     000000000005a240     OpensslLib:obj_dat.obj
 0002:00005528       ??_C@_0BN@EBHJCEC@RSA?5Data?5Security?0?5Inc?4?5PKCS@ 000000000005a248     OpensslLib:obj_dat.obj
 0002:00005548       ??_C@_03CNCGNBGO@MD2@      000000000005a268     OpensslLib:obj_dat.obj
 0002:0000554c       ??_C@_03LFFJDILA@md2@      000000000005a26c     OpensslLib:obj_dat.obj
 0002:00005550       ??_C@_03GCGHEHKJ@MD5@      000000000005a270     OpensslLib:obj_dat.obj
 0002:00005554       ??_C@_03PKBIKOHH@md5@      000000000005a274     OpensslLib:obj_dat.obj
 0002:00005558       ??_C@_03HGEJCHKE@RC4@      000000000005a278     OpensslLib:obj_dat.obj
 0002:0000555c       ??_C@_03OODGMOHK@rc4@      000000000005a27c     OpensslLib:obj_dat.obj
 0002:00005560       ??_C@_0O@PCHNMHJE@rsaEncryption@ 000000000005a280     OpensslLib:obj_dat.obj
 0002:00005570       ??_C@_07JBCLOEPG@RSA?9MD2@ 000000000005a290     OpensslLib:obj_dat.obj
 0002:00005578       ??_C@_0BF@ODJKGOJ@md2WithRSAEncryption@ 000000000005a298     OpensslLib:obj_dat.obj
 0002:00005590       ??_C@_07NOGKHCDB@RSA?9MD5@ 000000000005a2b0     OpensslLib:obj_dat.obj
 0002:00005598       ??_C@_0BF@EEAHCNKC@md5WithRSAEncryption@ 000000000005a2b8     OpensslLib:obj_dat.obj
 0002:000055b0       ??_C@_0M@LMNGCPDB@PBE?9MD2?9DES@ 000000000005a2d0     OpensslLib:obj_dat.obj
 0002:000055c0       ??_C@_0BF@EEAPBBEF@pbeWithMD2AndDES?9CBC@ 000000000005a2e0     OpensslLib:obj_dat.obj
 0002:000055d8       ??_C@_0M@KBNDBPIJ@PBE?9MD5?9DES@ 000000000005a2f8     OpensslLib:obj_dat.obj
 0002:000055e8       ??_C@_0BF@DAJHPIMK@pbeWithMD5AndDES?9CBC@ 000000000005a308     OpensslLib:obj_dat.obj
 0002:00005600       ??_C@_04NGGFHBI@X500@      000000000005a320     OpensslLib:obj_dat.obj
 0002:00005608       ??_C@_0BL@NJHHPHOL@directory?5services?5?$CIX?4500?$CJ@ 000000000005a328     OpensslLib:obj_dat.obj
 0002:00005624       ??_C@_02BMJIHHPP@CN@       000000000005a344     OpensslLib:obj_dat.obj
 0002:00005628       ??_C@_0L@OILMNBLH@commonName@ 000000000005a348     OpensslLib:obj_dat.obj
 0002:00005634       ??_C@_01GFHCPBMG@C@        000000000005a354     OpensslLib:obj_dat.obj
 0002:00005638       ??_C@_0M@NPBHECMC@countryName@ 000000000005a358     OpensslLib:obj_dat.obj
 0002:00005644       ??_C@_01OCOKONAJ@L@        000000000005a364     OpensslLib:obj_dat.obj
 0002:00005648       ??_C@_0N@LEDCGGBI@localityName@ 000000000005a368     OpensslLib:obj_dat.obj
 0002:00005658       ??_C@_02LAJDCOFE@ST@       000000000005a378     OpensslLib:obj_dat.obj
 0002:00005660       ??_C@_0BE@NKDCJFMD@stateOrProvinceName@ 000000000005a380     OpensslLib:obj_dat.obj
 0002:00005674       ??_C@_01MJMHLOMK@O@        000000000005a394     OpensslLib:obj_dat.obj
 0002:00005678       ??_C@_0BB@GBCNPHLL@organizationName@ 000000000005a398     OpensslLib:obj_dat.obj
 0002:0000568c       ??_C@_02LMLEEFAB@OU@       000000000005a3ac     OpensslLib:obj_dat.obj
 0002:00005690       ??_C@_0BH@LAMMAAM@organizationalUnitName@ 000000000005a3b0     OpensslLib:obj_dat.obj
 0002:000056a8       ??_C@_03DICHAJGH@RSA@      000000000005a3c8     OpensslLib:obj_dat.obj
 0002:000056ac       ??_C@_03DFNMMEBL@rsa@      000000000005a3cc     OpensslLib:obj_dat.obj
 0002:000056b0       ??_C@_05EENODLBB@pkcs7@    000000000005a3d0     OpensslLib:obj_dat.obj
 0002:000056b8       ??_C@_0L@BCKMJOMA@pkcs7?9data@ 000000000005a3d8     OpensslLib:obj_dat.obj
 0002:000056c8       ??_C@_0BB@PEKKHBEJ@pkcs7?9signedData@ 000000000005a3e8     OpensslLib:obj_dat.obj
 0002:000056e0       ??_C@_0BE@FAIIHMP@pkcs7?9envelopedData@ 000000000005a400     OpensslLib:obj_dat.obj
 0002:000056f8       ??_C@_0BN@LMEEMCPG@pkcs7?9signedAndEnvelopedData@ 000000000005a418     OpensslLib:obj_dat.obj
 0002:00005718       ??_C@_0BB@CJNFBHDI@pkcs7?9digestData@ 000000000005a438     OpensslLib:obj_dat.obj
 0002:00005730       ??_C@_0BE@CAMKAFJN@pkcs7?9encryptedData@ 000000000005a450     OpensslLib:obj_dat.obj
 0002:00005744       ??_C@_05CALCPOBF@pkcs3@    000000000005a464     OpensslLib:obj_dat.obj
 0002:00005750       ??_C@_0P@HCMIBBEB@dhKeyAgreement@ 000000000005a470     OpensslLib:obj_dat.obj
 0002:00005760       ??_C@_07IOCLJBKC@DES?9ECB@ 000000000005a480     OpensslLib:obj_dat.obj
 0002:00005768       ??_C@_07LCLHACCC@des?9ecb@ 000000000005a488     OpensslLib:obj_dat.obj
 0002:00005770       ??_C@_07KNILAMJF@DES?9CFB@ 000000000005a490     OpensslLib:obj_dat.obj
 0002:00005778       ??_C@_07JBBHJPBF@des?9cfb@ 000000000005a498     OpensslLib:obj_dat.obj
 0002:00005780       ??_C@_07LDJJJFAI@DES?9CBC@ 000000000005a4a0     OpensslLib:obj_dat.obj
 0002:00005788       ??_C@_07IPAFAGII@des?9cbc@ 000000000005a4a8     OpensslLib:obj_dat.obj
 0002:00005790       ??_C@_07MECFBBOA@DES?9EDE@ 000000000005a4b0     OpensslLib:obj_dat.obj
 0002:00005798       ??_C@_07PILJICGA@des?9ede@ 000000000005a4b8     OpensslLib:obj_dat.obj
 0002:000057a0       ??_C@_08FEKFKCFJ@DES?9EDE3@ 000000000005a4c0     OpensslLib:obj_dat.obj
 0002:000057b0       ??_C@_08LJCBLNOK@des?9ede3@ 000000000005a4d0     OpensslLib:obj_dat.obj
 0002:000057c0       ??_C@_08MJNEIAD@IDEA?9CBC@ 000000000005a4e0     OpensslLib:obj_dat.obj
 0002:000057d0       ??_C@_08LCPAFJCA@idea?9cbc@ 000000000005a4f0     OpensslLib:obj_dat.obj
 0002:000057e0       ??_C@_08BCIPNBJO@IDEA?9CFB@ 000000000005a500     OpensslLib:obj_dat.obj
 0002:000057f0       ??_C@_08KMOCMALN@idea?9cfb@ 000000000005a510     OpensslLib:obj_dat.obj
 0002:00005800       ??_C@_08DBCPEMKJ@IDEA?9ECB@ 000000000005a520     OpensslLib:obj_dat.obj
 0002:00005810       ??_C@_08IPECFNIK@idea?9ecb@ 000000000005a530     OpensslLib:obj_dat.obj
 0002:00005820       ??_C@_07KJDFEEGB@RC2?9CBC@ 000000000005a540     OpensslLib:obj_dat.obj
 0002:00005828       ??_C@_07JCAFNCNH@rc2?9cbc@ 000000000005a548     OpensslLib:obj_dat.obj
 0002:00005830       ??_C@_07JEIHEAML@RC2?9ECB@ 000000000005a550     OpensslLib:obj_dat.obj
 0002:00005838       ??_C@_07KPLHNGHN@rc2?9ecb@ 000000000005a558     OpensslLib:obj_dat.obj
 0002:00005840       ??_C@_07LHCHNNPM@RC2?9CFB@ 000000000005a560     OpensslLib:obj_dat.obj
 0002:00005848       ??_C@_07IMBHELEK@rc2?9cfb@ 000000000005a568     OpensslLib:obj_dat.obj
 0002:00005850       ??_C@_07PNPBGCEE@RC2?9OFB@ 000000000005a570     OpensslLib:obj_dat.obj
 0002:00005858       ??_C@_07MGMBPEPC@rc2?9ofb@ 000000000005a578     OpensslLib:obj_dat.obj
 0002:00005860       ??_C@_03JAOICCJD@SHA@      000000000005a580     OpensslLib:obj_dat.obj
 0002:00005864       ??_C@_03JNBDOPOP@sha@      000000000005a584     OpensslLib:obj_dat.obj
 0002:00005868       ??_C@_07CMOFBHAL@RSA?9SHA@ 000000000005a588     OpensslLib:obj_dat.obj
 0002:00005870       ??_C@_0BF@LIDINENF@shaWithRSAEncryption@ 000000000005a590     OpensslLib:obj_dat.obj
 0002:00005888       ??_C@_0M@KHNLAHDP@DES?9EDE?9CBC@ 000000000005a5a8     OpensslLib:obj_dat.obj
 0002:00005898       ??_C@_0M@EKLHMDEA@des?9ede?9cbc@ 000000000005a5b8     OpensslLib:obj_dat.obj
 0002:000058a8       ??_C@_0N@MLDFENGJ@DES?9EDE3?9CBC@ 000000000005a5c8     OpensslLib:obj_dat.obj
 0002:000058b8       ??_C@_0N@FPCHEGKG@des?9ede3?9cbc@ 000000000005a5d8     OpensslLib:obj_dat.obj
 0002:000058c8       ??_C@_07OHFNLDCN@DES?9OFB@ 000000000005a5e8     OpensslLib:obj_dat.obj
 0002:000058d0       ??_C@_07NLMBCAKN@des?9ofb@ 000000000005a5f0     OpensslLib:obj_dat.obj
 0002:000058d8       ??_C@_08FIFJGOCG@IDEA?9OFB@ 000000000005a5f8     OpensslLib:obj_dat.obj
 0002:000058e8       ??_C@_08OGDEHPAF@idea?9ofb@ 000000000005a608     OpensslLib:obj_dat.obj
 0002:000058f4       ??_C@_05NKFNBGJP@pkcs9@    000000000005a614     OpensslLib:obj_dat.obj
 0002:00005900       ??_C@_0N@IHLBAGEP@emailAddress@ 000000000005a620     OpensslLib:obj_dat.obj
 0002:00005910       ??_C@_0BB@CJIILOEM@unstructuredName@ 000000000005a630     OpensslLib:obj_dat.obj
 0002:00005928       ??_C@_0M@DOEFOEJD@contentType@ 000000000005a648     OpensslLib:obj_dat.obj
 0002:00005938       ??_C@_0O@JDGJDGC@messageDigest@ 000000000005a658     OpensslLib:obj_dat.obj
 0002:00005948       ??_C@_0M@IJBJCCMP@signingTime@ 000000000005a668     OpensslLib:obj_dat.obj
 0002:00005958       ??_C@_0BB@IPFGMODP@countersignature@ 000000000005a678     OpensslLib:obj_dat.obj
 0002:00005970       ??_C@_0BC@OKHONEEM@challengePassword@ 000000000005a690     OpensslLib:obj_dat.obj
 0002:00005988       ??_C@_0BE@MACPCAPF@unstructuredAddress@ 000000000005a6a8     OpensslLib:obj_dat.obj
 0002:000059a0       ??_C@_0BO@LDCCNBPE@extendedCertificateAttributes@ 000000000005a6c0     OpensslLib:obj_dat.obj
 0002:000059c0       ??_C@_08BDEPHMAF@Netscape@ 000000000005a6e0     OpensslLib:obj_dat.obj
 0002:000059d0       ??_C@_0BO@IAIBEBGO@Netscape?5Communications?5Corp?4@ 000000000005a6f0     OpensslLib:obj_dat.obj
 0002:000059f0       ??_C@_09JDCKDNMG@nsCertExt@ 000000000005a710     OpensslLib:obj_dat.obj
 0002:00005a00       ??_C@_0BP@LHPGKGFM@Netscape?5Certificate?5Extension@ 000000000005a720     OpensslLib:obj_dat.obj
 0002:00005a20       ??_C@_0L@FIMLGGPA@nsDataType@ 000000000005a740     OpensslLib:obj_dat.obj
 0002:00005a30       ??_C@_0BD@JJEILMNP@Netscape?5Data?5Type@ 000000000005a750     OpensslLib:obj_dat.obj
 0002:00005a48       ??_C@_0M@LJMJJOKC@DES?9EDE?9CFB@ 000000000005a768     OpensslLib:obj_dat.obj
 0002:00005a58       ??_C@_0M@FEKFFKNN@des?9ede?9cfb@ 000000000005a778     OpensslLib:obj_dat.obj
 0002:00005a68       ??_C@_0N@NFCHNEPE@DES?9EDE3?9CFB@ 000000000005a788     OpensslLib:obj_dat.obj
 0002:00005a78       ??_C@_0N@EBDFNPDL@des?9ede3?9cfb@ 000000000005a798     OpensslLib:obj_dat.obj
 0002:00005a88       ??_C@_0M@PDBPCBBK@DES?9EDE?9OFB@ 000000000005a7a8     OpensslLib:obj_dat.obj
 0002:00005a98       ??_C@_0M@BOHDOFGF@des?9ede?9ofb@ 000000000005a7b8     OpensslLib:obj_dat.obj
 0002:00005aa8       ??_C@_0N@JPPBGLEM@DES?9EDE3?9OFB@ 000000000005a7c8     OpensslLib:obj_dat.obj
 0002:00005ab8       ??_C@_0N@LODGAID@des?9ede3?9ofb@ 000000000005a7d8     OpensslLib:obj_dat.obj
 0002:00005ac8       ??_C@_04KPMLCNGO@SHA1@     000000000005a7e8     OpensslLib:obj_dat.obj
 0002:00005ad0       ??_C@_04PGHFOLLE@sha1@     000000000005a7f0     OpensslLib:obj_dat.obj
 0002:00005ad8       ??_C@_0BG@DALFFFBE@sha1WithRSAEncryption@ 000000000005a7f8     OpensslLib:obj_dat.obj
 0002:00005af0       ??_C@_07JGDBCPKH@DSA?9SHA@ 000000000005a810     OpensslLib:obj_dat.obj
 0002:00005af8       ??_C@_0L@BEHMICBH@dsaWithSHA@ 000000000005a818     OpensslLib:obj_dat.obj
 0002:00005b08       ??_C@_07PLHLFGGF@DSA?9old@ 000000000005a828     OpensslLib:obj_dat.obj
 0002:00005b10       ??_C@_0BC@FFHHBCCH@dsaEncryption?9old@ 000000000005a830     OpensslLib:obj_dat.obj
 0002:00005b28       ??_C@_0BA@KKPEMNGH@PBE?9SHA1?9RC2?964@ 000000000005a848     OpensslLib:obj_dat.obj
 0002:00005b38       ??_C@_0BG@IBNNJING@pbeWithSHA1AndRC2?9CBC@ 000000000005a858     OpensslLib:obj_dat.obj
 0002:00005b50       ??_C@_06KBOEGBGA@PBKDF2@   000000000005a870     OpensslLib:obj_dat.obj
 0002:00005b58       ??_C@_0N@ONIKBKNK@DSA?9SHA1?9old@ 000000000005a878     OpensslLib:obj_dat.obj
 0002:00005b68       ??_C@_0BA@DDLLDHEM@dsaWithSHA1?9old@ 000000000005a888     OpensslLib:obj_dat.obj
 0002:00005b78       ??_C@_0L@IICLKDNB@nsCertType@ 000000000005a898     OpensslLib:obj_dat.obj
 0002:00005b88       ??_C@_0BD@NFPBEMEE@Netscape?5Cert?5Type@ 000000000005a8a8     OpensslLib:obj_dat.obj
 0002:00005ba0       ??_C@_09OCIGDOMM@nsBaseUrl@ 000000000005a8c0     OpensslLib:obj_dat.obj
 0002:00005bb0       ??_C@_0BC@DIHCABP@Netscape?5Base?5Url@ 000000000005a8d0     OpensslLib:obj_dat.obj
 0002:00005bc8       ??_C@_0BA@DKPGPAKK@nsRevocationUrl@ 000000000005a8e8     OpensslLib:obj_dat.obj
 0002:00005bd8       ??_C@_0BI@BCDINENC@Netscape?5Revocation?5Url@ 000000000005a8f8     OpensslLib:obj_dat.obj
 0002:00005bf0       ??_C@_0BC@IKAPCMGG@nsCaRevocationUrl@ 000000000005a910     OpensslLib:obj_dat.obj
 0002:00005c08       ??_C@_0BL@EMOMOFDB@Netscape?5CA?5Revocation?5Url@ 000000000005a928     OpensslLib:obj_dat.obj
 0002:00005c28       ??_C@_0N@JILHKMLM@nsRenewalUrl@ 000000000005a948     OpensslLib:obj_dat.obj
 0002:00005c38       ??_C@_0BF@FKENIIHB@Netscape?5Renewal?5Url@ 000000000005a958     OpensslLib:obj_dat.obj
 0002:00005c50       ??_C@_0O@DHDIMJD@nsCaPolicyUrl@ 000000000005a970     OpensslLib:obj_dat.obj
 0002:00005c60       ??_C@_0BH@EMEFHLC@Netscape?5CA?5Policy?5Url@ 000000000005a980     OpensslLib:obj_dat.obj
 0002:00005c78       ??_C@_0BA@KNOKNJNE@nsSslServerName@ 000000000005a998     OpensslLib:obj_dat.obj
 0002:00005c88       ??_C@_0BJ@GMBLEMAL@Netscape?5SSL?5Server?5Name@ 000000000005a9a8     OpensslLib:obj_dat.obj
 0002:00005ca8       ??_C@_09BALDFHMJ@nsComment@ 000000000005a9c8     OpensslLib:obj_dat.obj
 0002:00005cb8       ??_C@_0BB@DCFBGIOA@Netscape?5Comment@ 000000000005a9d8     OpensslLib:obj_dat.obj
 0002:00005cd0       ??_C@_0P@OCCBBJKK@nsCertSequence@ 000000000005a9f0     OpensslLib:obj_dat.obj
 0002:00005ce0       ??_C@_0BO@KKKBMKBD@Netscape?5Certificate?5Sequence@ 000000000005aa00     OpensslLib:obj_dat.obj
 0002:00005d00       ??_C@_08BBKPFFGN@DESX?9CBC@ 000000000005aa20     OpensslLib:obj_dat.obj
 0002:00005d10       ??_C@_08KPMCEEEO@desx?9cbc@ 000000000005aa30     OpensslLib:obj_dat.obj
 0002:00005d1c       ??_C@_05NDHEMDL@id?9ce@    000000000005aa3c     OpensslLib:obj_dat.obj
 0002:00005d28       ??_C@_0BF@MOEDIMBI@subjectKeyIdentifier@ 000000000005aa48     OpensslLib:obj_dat.obj
 0002:00005d40       ??_C@_0BO@ILPNOINJ@X509v3?5Subject?5Key?5Identifier@ 000000000005aa60     OpensslLib:obj_dat.obj
 0002:00005d60       ??_C@_08BCICBOHF@keyUsage@ 000000000005aa80     OpensslLib:obj_dat.obj
 0002:00005d70       ??_C@_0BB@BPPOKNBO@X509v3?5Key?5Usage@ 000000000005aa90     OpensslLib:obj_dat.obj
 0002:00005d88       ??_C@_0BG@JOIAJOMN@privateKeyUsagePeriod@ 000000000005aaa8     OpensslLib:obj_dat.obj
 0002:00005da0       ??_C@_0CA@CLGHAMIP@X509v3?5Private?5Key?5Usage?5Period@ 000000000005aac0     OpensslLib:obj_dat.obj
 0002:00005dc0       ??_C@_0P@EOFJHHKD@subjectAltName@ 000000000005aae0     OpensslLib:obj_dat.obj
 0002:00005dd0       ??_C@_0CA@OPCJJLNF@X509v3?5Subject?5Alternative?5Name@ 000000000005aaf0     OpensslLib:obj_dat.obj
 0002:00005df0       ??_C@_0O@DLIFHFCD@issuerAltName@ 000000000005ab10     OpensslLib:obj_dat.obj
 0002:00005e00       ??_C@_0BP@FMJCGPCG@X509v3?5Issuer?5Alternative?5Name@ 000000000005ab20     OpensslLib:obj_dat.obj
 0002:00005e20       ??_C@_0BB@IKNGJCLO@basicConstraints@ 000000000005ab40     OpensslLib:obj_dat.obj
 0002:00005e38       ??_C@_0BJ@FBHDAJML@X509v3?5Basic?5Constraints@ 000000000005ab58     OpensslLib:obj_dat.obj
 0002:00005e58       ??_C@_09JDPHHKMA@crlNumber@ 000000000005ab78     OpensslLib:obj_dat.obj
 0002:00005e68       ??_C@_0BC@PCPNBDDJ@X509v3?5CRL?5Number@ 000000000005ab88     OpensslLib:obj_dat.obj
 0002:00005e80       ??_C@_0BE@OLMJNPEP@certificatePolicies@ 000000000005aba0     OpensslLib:obj_dat.obj
 0002:00005e98       ??_C@_0BM@OOFGKLPK@X509v3?5Certificate?5Policies@ 000000000005abb8     OpensslLib:obj_dat.obj
 0002:00005eb8       ??_C@_0BH@ICHFALGD@authorityKeyIdentifier@ 000000000005abd8     OpensslLib:obj_dat.obj
 0002:00005ed0       ??_C@_0CA@GODCHEHD@X509v3?5Authority?5Key?5Identifier@ 000000000005abf0     OpensslLib:obj_dat.obj
 0002:00005ef0       ??_C@_06HALMPEKO@BF?9CBC@  000000000005ac10     OpensslLib:obj_dat.obj
 0002:00005ef8       ??_C@_06LFFGAFHI@bf?9cbc@  000000000005ac18     OpensslLib:obj_dat.obj
 0002:00005f00       ??_C@_06ENAOPAAE@BF?9ECB@  000000000005ac20     OpensslLib:obj_dat.obj
 0002:00005f08       ??_C@_06IIOEABNC@bf?9ecb@  000000000005ac28     OpensslLib:obj_dat.obj
 0002:00005f10       ??_C@_06GOKOGNDD@BF?9CFB@  000000000005ac30     OpensslLib:obj_dat.obj
 0002:00005f18       ??_C@_06KLEEJMOF@bf?9cfb@  000000000005ac38     OpensslLib:obj_dat.obj
 0002:00005f20       ??_C@_06CEHINCIL@BF?9OFB@  000000000005ac40     OpensslLib:obj_dat.obj
 0002:00005f28       ??_C@_06OBJCCDFN@bf?9ofb@  000000000005ac48     OpensslLib:obj_dat.obj
 0002:00005f30       ??_C@_04BCGEDMJI@MDC2@     000000000005ac50     OpensslLib:obj_dat.obj
 0002:00005f38       ??_C@_04ELNKPKEC@mdc2@     000000000005ac58     OpensslLib:obj_dat.obj
 0002:00005f40       ??_C@_08OMAMCKNL@RSA?9MDC2@ 000000000005ac60     OpensslLib:obj_dat.obj
 0002:00005f50       ??_C@_0M@HGGNEPNN@mdc2WithRSA@ 000000000005ac70     OpensslLib:obj_dat.obj
 0002:00005f5c       ??_C@_06KFMILCMH@RC4?940@  000000000005ac7c     OpensslLib:obj_dat.obj
 0002:00005f64       ??_C@_06GNNJIOGN@rc4?940@  000000000005ac84     OpensslLib:obj_dat.obj
 0002:00005f70       ??_C@_0L@ODHPNGGE@RC2?940?9CBC@ 000000000005ac90     OpensslLib:obj_dat.obj
 0002:00005f80       ??_C@_0L@CHEFJHBP@rc2?940?9cbc@ 000000000005aca0     OpensslLib:obj_dat.obj
 0002:00005f8c       ??_C@_02BLJBNPCD@GN@       000000000005acac     OpensslLib:obj_dat.obj
 0002:00005f90       ??_C@_09GCBNJLNP@givenName@ 000000000005acb0     OpensslLib:obj_dat.obj
 0002:00005f9c       ??_C@_02LONEIP@SN@         000000000005acbc     OpensslLib:obj_dat.obj
 0002:00005fa0       ??_C@_07LNKFHLHI@surname@  000000000005acc0     OpensslLib:obj_dat.obj
 0002:00005fa8       ??_C@_08PAKNLFON@initials@ 000000000005acc8     OpensslLib:obj_dat.obj
 0002:00005fb4       ??_C@_03MEMNCOEB@uid@      000000000005acd4     OpensslLib:obj_dat.obj
 0002:00005fb8       ??_C@_0BB@HJMGPENC@uniqueIdentifier@ 000000000005acd8     OpensslLib:obj_dat.obj
 0002:00005fd0       ??_C@_0BG@CCHGOEBE@crlDistributionPoints@ 000000000005acf0     OpensslLib:obj_dat.obj
 0002:00005fe8       ??_C@_0BP@EGHJGANM@X509v3?5CRL?5Distribution?5Points@ 000000000005ad08     OpensslLib:obj_dat.obj
 0002:00006008       ??_C@_0L@NACEPNFC@RSA?9NP?9MD5@ 000000000005ad28     OpensslLib:obj_dat.obj
 0002:00006018       ??_C@_0L@CNDCBNIN@md5WithRSA@ 000000000005ad38     OpensslLib:obj_dat.obj
 0002:00006024       ??_C@_05PHLGJONK@title@    000000000005ad44     OpensslLib:obj_dat.obj
 0002:00006030       ??_C@_0M@PPJNHBMP@description@ 000000000005ad50     OpensslLib:obj_dat.obj
 0002:00006040       ??_C@_09OACPMKPP@CAST5?9CBC@ 000000000005ad60     OpensslLib:obj_dat.obj
 0002:00006050       ??_C@_09BGLDNNDK@cast5?9cbc@ 000000000005ad70     OpensslLib:obj_dat.obj
 0002:00006060       ??_C@_09NNJNMOFF@CAST5?9ECB@ 000000000005ad80     OpensslLib:obj_dat.obj
 0002:00006070       ??_C@_09CLABNJJA@cast5?9ecb@ 000000000005ad90     OpensslLib:obj_dat.obj
 0002:00006080       ??_C@_09PODNFDGC@CAST5?9CFB@ 000000000005ada0     OpensslLib:obj_dat.obj
 0002:00006090       ??_C@_09IKBEEKH@cast5?9cfb@ 000000000005adb0     OpensslLib:obj_dat.obj
 0002:000060a0       ??_C@_09LEOLOMNK@CAST5?9OFB@ 000000000005adc0     OpensslLib:obj_dat.obj
 0002:000060b0       ??_C@_09ECHHPLBP@cast5?9ofb@ 000000000005add0     OpensslLib:obj_dat.obj
 0002:000060c0       ??_C@_0BG@JCFINJGL@pbeWithMD5AndCast5CBC@ 000000000005ade0     OpensslLib:obj_dat.obj
 0002:000060d8       ??_C@_08IOHJAANG@DSA?9SHA1@ 000000000005adf8     OpensslLib:obj_dat.obj
 0002:000060e8       ??_C@_0M@EFJKPOPH@dsaWithSHA1@ 000000000005ae08     OpensslLib:obj_dat.obj
 0002:000060f8       ??_C@_08EMIDHKIH@MD5?9SHA1@ 000000000005ae18     OpensslLib:obj_dat.obj
 0002:00006108       ??_C@_08GOLKFMKI@md5?9sha1@ 000000000005ae28     OpensslLib:obj_dat.obj
 0002:00006118       ??_C@_0M@KECGAPAA@sha1WithRSA@ 000000000005ae38     OpensslLib:obj_dat.obj
 0002:00006124       ??_C@_03ENFFABCE@DSA@      000000000005ae44     OpensslLib:obj_dat.obj
 0002:00006128       ??_C@_0O@GMANLAEO@dsaEncryption@ 000000000005ae48     OpensslLib:obj_dat.obj
 0002:00006138       ??_C@_09DJDCAKJG@RIPEMD160@ 000000000005ae58     OpensslLib:obj_dat.obj
 0002:00006148       ??_C@_09EDIPKBN@ripemd160@ 000000000005ae68     OpensslLib:obj_dat.obj
 0002:00006158       ??_C@_0O@JPOIHGOH@RSA?9RIPEMD160@ 000000000005ae78     OpensslLib:obj_dat.obj
 0002:00006168       ??_C@_0BB@DCJDAKFH@ripemd160WithRSA@ 000000000005ae88     OpensslLib:obj_dat.obj
 0002:00006180       ??_C@_07LEDAHENJ@RC5?9CBC@ 000000000005aea0     OpensslLib:obj_dat.obj
 0002:00006188       ??_C@_07IPAAOCGP@rc5?9cbc@ 000000000005aea8     OpensslLib:obj_dat.obj
 0002:00006190       ??_C@_07IJICHAHD@RC5?9ECB@ 000000000005aeb0     OpensslLib:obj_dat.obj
 0002:00006198       ??_C@_07LCLCOGMF@rc5?9ecb@ 000000000005aeb8     OpensslLib:obj_dat.obj
 0002:000061a0       ??_C@_07KKCCONEE@RC5?9CFB@ 000000000005aec0     OpensslLib:obj_dat.obj
 0002:000061a8       ??_C@_07JBBCHLPC@rc5?9cfb@ 000000000005aec8     OpensslLib:obj_dat.obj
 0002:000061b0       ??_C@_07OAPEFCPM@RC5?9OFB@ 000000000005aed0     OpensslLib:obj_dat.obj
 0002:000061b8       ??_C@_07NLMEMEEK@rc5?9ofb@ 000000000005aed8     OpensslLib:obj_dat.obj
 0002:000061c0       ??_C@_04CHLIKDMF@ZLIB@     000000000005aee0     OpensslLib:obj_dat.obj
 0002:000061c8       ??_C@_0BB@KGNEOBKL@zlib?5compression@ 000000000005aee8     OpensslLib:obj_dat.obj
 0002:000061e0       ??_C@_0BB@DGDLKPHD@extendedKeyUsage@ 000000000005af00     OpensslLib:obj_dat.obj
 0002:000061f8       ??_C@_0BK@KFMGFBEG@X509v3?5Extended?5Key?5Usage@ 000000000005af18     OpensslLib:obj_dat.obj
 0002:00006214       ??_C@_04EAPCHJAG@PKIX@     000000000005af34     OpensslLib:obj_dat.obj
 0002:0000621c       ??_C@_05DEJBPLJH@id?9kp@   000000000005af3c     OpensslLib:obj_dat.obj
 0002:00006228       ??_C@_0L@CINGAJGN@serverAuth@ 000000000005af48     OpensslLib:obj_dat.obj
 0002:00006238       ??_C@_0BO@HPFOJNNE@TLS?5Web?5Server?5Authentication@ 000000000005af58     OpensslLib:obj_dat.obj
 0002:00006258       ??_C@_0L@HCMKLLOP@clientAuth@ 000000000005af78     OpensslLib:obj_dat.obj
 0002:00006268       ??_C@_0BO@FEMCBEOF@TLS?5Web?5Client?5Authentication@ 000000000005af88     OpensslLib:obj_dat.obj
 0002:00006288       ??_C@_0M@OJNCNGJ@codeSigning@ 000000000005afa8     OpensslLib:obj_dat.obj
 0002:00006298       ??_C@_0N@CHJHLHFC@Code?5Signing@ 000000000005afb8     OpensslLib:obj_dat.obj
 0002:000062a8       ??_C@_0BA@NPCFDPCO@emailProtection@ 000000000005afc8     OpensslLib:obj_dat.obj
 0002:000062b8       ??_C@_0BC@BLBGFKKG@E?9mail?5Protection@ 000000000005afd8     OpensslLib:obj_dat.obj
 0002:000062d0       ??_C@_0N@LONEBHPN@timeStamping@ 000000000005aff0     OpensslLib:obj_dat.obj
 0002:000062e0       ??_C@_0O@GMMBLMEE@Time?5Stamping@ 000000000005b000     OpensslLib:obj_dat.obj
 0002:000062f0       ??_C@_09EMNNPEBE@msCodeInd@ 000000000005b010     OpensslLib:obj_dat.obj
 0002:00006300       ??_C@_0CC@NDDHKAMP@Microsoft?5Individual?5Code?5Signi@ 000000000005b020     OpensslLib:obj_dat.obj
 0002:00006328       ??_C@_09PDGAMFAO@msCodeCom@ 000000000005b048     OpensslLib:obj_dat.obj
 0002:00006338       ??_C@_0CC@GKFNEBFA@Microsoft?5Commercial?5Code?5Signi@ 000000000005b058     OpensslLib:obj_dat.obj
 0002:00006360       ??_C@_09HGCLLDPK@msCTLSign@ 000000000005b080     OpensslLib:obj_dat.obj
 0002:00006370       ??_C@_0BN@GNMCHNOI@Microsoft?5Trust?5List?5Signing@ 000000000005b090     OpensslLib:obj_dat.obj
 0002:00006390       ??_C@_05DDBMPPAI@msSGC@    000000000005b0b0     OpensslLib:obj_dat.obj
 0002:00006398       ??_C@_0BO@FBDDCLK@Microsoft?5Server?5Gated?5Crypto@ 000000000005b0b8     OpensslLib:obj_dat.obj
 0002:000063b8       ??_C@_05NGOIPCN@msEFS@     000000000005b0d8     OpensslLib:obj_dat.obj
 0002:000063c0       ??_C@_0CA@IJODBCMB@Microsoft?5Encrypted?5File?5System@ 000000000005b0e0     OpensslLib:obj_dat.obj
 0002:000063e0       ??_C@_05LFIIINKG@nsSGC@    000000000005b100     OpensslLib:obj_dat.obj
 0002:000063e8       ??_C@_0BN@MDNLHLBL@Netscape?5Server?5Gated?5Crypto@ 000000000005b108     OpensslLib:obj_dat.obj
 0002:00006408       ??_C@_08ECNAKPJJ@deltaCRL@ 000000000005b128     OpensslLib:obj_dat.obj
 0002:00006418       ??_C@_0BL@HLNLPBHP@X509v3?5Delta?5CRL?5Indicator@ 000000000005b138     OpensslLib:obj_dat.obj
 0002:00006438       ??_C@_09MCDAGILE@CRLReason@ 000000000005b158     OpensslLib:obj_dat.obj
 0002:00006448       ??_C@_0BH@GODIEFKG@X509v3?5CRL?5Reason?5Code@ 000000000005b168     OpensslLib:obj_dat.obj
 0002:00006460       ??_C@_0P@BKEGCOMO@invalidityDate@ 000000000005b180     OpensslLib:obj_dat.obj
 0002:00006470       ??_C@_0BA@JDBEMONE@Invalidity?5Date@ 000000000005b190     OpensslLib:obj_dat.obj
 0002:00006480       ??_C@_07DKMNOLMH@SXNetID@  000000000005b1a0     OpensslLib:obj_dat.obj
 0002:00006488       ??_C@_0BD@PNDCMCDK@Strong?5Extranet?5ID@ 000000000005b1a8     OpensslLib:obj_dat.obj
 0002:000064a0       ??_C@_0BB@ILOABLNL@PBE?9SHA1?9RC4?9128@ 000000000005b1c0     OpensslLib:obj_dat.obj
 0002:000064b8       ??_C@_0BI@LBIFCLPB@pbeWithSHA1And128BitRC4@ 000000000005b1d8     OpensslLib:obj_dat.obj
 0002:000064d0       ??_C@_0BA@ECFMCJKN@PBE?9SHA1?9RC4?940@ 000000000005b1f0     OpensslLib:obj_dat.obj
 0002:000064e0       ??_C@_0BH@OCAEJMIL@pbeWithSHA1And40BitRC4@ 000000000005b200     OpensslLib:obj_dat.obj
 0002:000064f8       ??_C@_0O@EDBOMBNM@PBE?9SHA1?93DES@ 000000000005b218     OpensslLib:obj_dat.obj
 0002:00006508       ??_C@_0CB@FCNCEDP@pbeWithSHA1And3?9KeyTripleDES?9CB@ 000000000005b228     OpensslLib:obj_dat.obj
 0002:00006530       ??_C@_0O@HOHOOIGM@PBE?9SHA1?92DES@ 000000000005b250     OpensslLib:obj_dat.obj
 0002:00006540       ??_C@_0CB@NCMPKEGH@pbeWithSHA1And2?9KeyTripleDES?9CB@ 000000000005b260     OpensslLib:obj_dat.obj
 0002:00006568       ??_C@_0BB@FNLJPIMG@PBE?9SHA1?9RC2?9128@ 000000000005b288     OpensslLib:obj_dat.obj
 0002:00006580       ??_C@_0BM@DOLDINME@pbeWithSHA1And128BitRC2?9CBC@ 000000000005b2a0     OpensslLib:obj_dat.obj
 0002:000065a0       ??_C@_0BA@MNBMNMAN@PBE?9SHA1?9RC2?940@ 000000000005b2c0     OpensslLib:obj_dat.obj
 0002:000065b0       ??_C@_0BL@CKNKIMON@pbeWithSHA1And40BitRC2?9CBC@ 000000000005b2d0     OpensslLib:obj_dat.obj
 0002:000065cc       ??_C@_06BFGNOIAI@keyBag@   000000000005b2ec     OpensslLib:obj_dat.obj
 0002:000065d8       ??_C@_0BE@ELJKIANF@pkcs8ShroudedKeyBag@ 000000000005b2f8     OpensslLib:obj_dat.obj
 0002:000065f0       ??_C@_07FDLMCII@certBag@   000000000005b310     OpensslLib:obj_dat.obj
 0002:000065f8       ??_C@_06JAFBIMLO@crlBag@   000000000005b318     OpensslLib:obj_dat.obj
 0002:00006600       ??_C@_09DELDBPIE@secretBag@ 000000000005b320     OpensslLib:obj_dat.obj
 0002:00006610       ??_C@_0BA@KAKLKBBC@safeContentsBag@ 000000000005b330     OpensslLib:obj_dat.obj
 0002:00006620       ??_C@_0N@BGFMPLCM@friendlyName@ 000000000005b340     OpensslLib:obj_dat.obj
 0002:00006630       ??_C@_0L@BCMHPPAO@localKeyID@ 000000000005b350     OpensslLib:obj_dat.obj
 0002:00006640       ??_C@_0BA@EMOFOCJL@x509Certificate@ 000000000005b360     OpensslLib:obj_dat.obj
 0002:00006650       ??_C@_0BA@BFAOBDKH@sdsiCertificate@ 000000000005b370     OpensslLib:obj_dat.obj
 0002:00006660       ??_C@_07KAOEJCFK@x509Crl@  000000000005b380     OpensslLib:obj_dat.obj
 0002:00006668       ??_C@_05EPMADBBF@PBES2@    000000000005b388     OpensslLib:obj_dat.obj
 0002:00006670       ??_C@_06DEJMPFNK@PBMAC1@   000000000005b390     OpensslLib:obj_dat.obj
 0002:00006678       ??_C@_0N@KANOAIP@hmacWithSHA1@ 000000000005b398     OpensslLib:obj_dat.obj
 0002:00006688       ??_C@_09MIPGHKGJ@id?9qt?9cps@ 000000000005b3a8     OpensslLib:obj_dat.obj
 0002:00006698       ??_C@_0BF@HPKIKKPI@Policy?5Qualifier?5CPS@ 000000000005b3b8     OpensslLib:obj_dat.obj
 0002:000066b0       ??_C@_0O@CJFHFAHE@id?9qt?9unotice@ 000000000005b3d0     OpensslLib:obj_dat.obj
 0002:000066c0       ??_C@_0BN@KPMBKEE@Policy?5Qualifier?5User?5Notice@ 000000000005b3e0     OpensslLib:obj_dat.obj
 0002:000066e0       ??_C@_0L@OPHBIFFL@RC2?964?9CBC@ 000000000005b400     OpensslLib:obj_dat.obj
 0002:000066f0       ??_C@_0L@CLELMECA@rc2?964?9cbc@ 000000000005b410     OpensslLib:obj_dat.obj
 0002:00006700       ??_C@_0L@LCBJGKJG@SMIME?9CAPS@ 000000000005b420     OpensslLib:obj_dat.obj
 0002:00006710       ??_C@_0BE@CEEFMCAI@S?1MIME?5Capabilities@ 000000000005b430     OpensslLib:obj_dat.obj
 0002:00006728       ??_C@_0P@OHJEMJLF@PBE?9MD2?9RC2?964@ 000000000005b448     OpensslLib:obj_dat.obj
 0002:00006738       ??_C@_0BF@FOKDMACM@pbeWithMD2AndRC2?9CBC@ 000000000005b458     OpensslLib:obj_dat.obj
 0002:00006750       ??_C@_0P@IDPFKEHM@PBE?9MD5?9RC2?964@ 000000000005b470     OpensslLib:obj_dat.obj
 0002:00006760       ??_C@_0BF@CKDLCJKD@pbeWithMD5AndRC2?9CBC@ 000000000005b480     OpensslLib:obj_dat.obj
 0002:00006778       ??_C@_0N@GOPIPBOD@PBE?9SHA1?9DES@ 000000000005b498     OpensslLib:obj_dat.obj
 0002:00006788       ??_C@_0BG@JLHBEJLP@pbeWithSHA1AndDES?9CBC@ 000000000005b4a8     OpensslLib:obj_dat.obj
 0002:000067a0       ??_C@_08HCCJAOPJ@msExtReq@ 000000000005b4c0     OpensslLib:obj_dat.obj
 0002:000067b0       ??_C@_0BM@MEJAMAEO@Microsoft?5Extension?5Request@ 000000000005b4d0     OpensslLib:obj_dat.obj
 0002:000067cc       ??_C@_06EJACAMDF@extReq@   000000000005b4ec     OpensslLib:obj_dat.obj
 0002:000067d8       ??_C@_0BC@GLHEKHCC@Extension?5Request@ 000000000005b4f8     OpensslLib:obj_dat.obj
 0002:000067ec       ??_C@_04MEMAJGDJ@name@     000000000005b50c     OpensslLib:obj_dat.obj
 0002:000067f8       ??_C@_0M@DNNLEIMI@dnQualifier@ 000000000005b518     OpensslLib:obj_dat.obj
 0002:00006804       ??_C@_05BDFHFBBC@id?9pe@   000000000005b524     OpensslLib:obj_dat.obj
 0002:0000680c       ??_C@_05BHKIKJBE@id?9ad@   000000000005b52c     OpensslLib:obj_dat.obj
 0002:00006818       ??_C@_0BE@PLCGCINM@authorityInfoAccess@ 000000000005b538     OpensslLib:obj_dat.obj
 0002:00006830       ??_C@_0BN@EILCOJAN@Authority?5Information?5Access@ 000000000005b550     OpensslLib:obj_dat.obj
 0002:00006850       ??_C@_04LOJOPNBE@OCSP@     000000000005b570     OpensslLib:obj_dat.obj
 0002:00006858       ??_C@_09GFPECPIH@caIssuers@ 000000000005b578     OpensslLib:obj_dat.obj
 0002:00006868       ??_C@_0L@CABCENFK@CA?5Issuers@ 000000000005b588     OpensslLib:obj_dat.obj
 0002:00006878       ??_C@_0M@HBKJLKNM@OCSPSigning@ 000000000005b598     OpensslLib:obj_dat.obj
 0002:00006888       ??_C@_0N@CPJNIPDD@OCSP?5Signing@ 000000000005b5a8     OpensslLib:obj_dat.obj
 0002:00006898       ??_C@_03CBLMPEHH@ISO@      000000000005b5b8     OpensslLib:obj_dat.obj
 0002:0000689c       ??_C@_03CMEHDJAL@iso@      000000000005b5bc     OpensslLib:obj_dat.obj
 0002:000068a0       ??_C@_0M@CMICFDOA@member?9body@ 000000000005b5c0     OpensslLib:obj_dat.obj
 0002:000068b0       ??_C@_0BA@BGDAEHGF@ISO?5Member?5Body@ 000000000005b5d0     OpensslLib:obj_dat.obj
 0002:000068c0       ??_C@_06EKAADAMF@ISO?9US@  000000000005b5e0     OpensslLib:obj_dat.obj
 0002:000068c8       ??_C@_0BD@NMCDOJHL@ISO?5US?5Member?5Body@ 000000000005b5e8     OpensslLib:obj_dat.obj
 0002:000068dc       ??_C@_05OCCOPOJN@X9?957@   000000000005b5fc     OpensslLib:obj_dat.obj
 0002:000068e4       ??_C@_05PAJLFBHD@X9?457@   000000000005b604     OpensslLib:obj_dat.obj
 0002:000068ec       ??_C@_04CGFPFLFA@X9cm@     000000000005b60c     OpensslLib:obj_dat.obj
 0002:000068f8       ??_C@_0L@DJCLIPOH@X9?457?5CM?5?$DP@ 000000000005b618     OpensslLib:obj_dat.obj
 0002:00006904       ??_C@_05BCIEJMJH@pkcs1@    000000000005b624     OpensslLib:obj_dat.obj
 0002:0000690c       ??_C@_05HGOIFJJD@pkcs5@    000000000005b62c     OpensslLib:obj_dat.obj
 0002:00006914       ??_C@_05HHBEAKJJ@SMIME@    000000000005b634     OpensslLib:obj_dat.obj
 0002:0000691c       ??_C@_06DFGHEKNE@S?1MIME@  000000000005b63c     OpensslLib:obj_dat.obj
 0002:00006928       ??_C@_0N@GABIEKIN@id?9smime?9mod@ 000000000005b648     OpensslLib:obj_dat.obj
 0002:00006938       ??_C@_0M@EBLDBLEO@id?9smime?9ct@ 000000000005b658     OpensslLib:obj_dat.obj
 0002:00006948       ??_C@_0M@HFICCJDE@id?9smime?9aa@ 000000000005b668     OpensslLib:obj_dat.obj
 0002:00006958       ??_C@_0N@DKFBIKP@id?9smime?9alg@ 000000000005b678     OpensslLib:obj_dat.obj
 0002:00006968       ??_C@_0M@LHBAJBP@id?9smime?9cd@ 000000000005b688     OpensslLib:obj_dat.obj
 0002:00006978       ??_C@_0N@PABBGIHI@id?9smime?9spq@ 000000000005b698     OpensslLib:obj_dat.obj
 0002:00006988       ??_C@_0N@CFBKAPGC@id?9smime?9cti@ 000000000005b6a8     OpensslLib:obj_dat.obj
 0002:00006998       ??_C@_0BB@PJEIFOOP@id?9smime?9mod?9cms@ 000000000005b6b8     OpensslLib:obj_dat.obj
 0002:000069b0       ??_C@_0BB@MKJLIPEJ@id?9smime?9mod?9ess@ 000000000005b6d0     OpensslLib:obj_dat.obj
 0002:000069c8       ??_C@_0BB@LBBEMNBN@id?9smime?9mod?9oid@ 000000000005b6e8     OpensslLib:obj_dat.obj
 0002:000069e0       ??_C@_0BE@PEENABNJ@id?9smime?9mod?9msg?9v3@ 000000000005b700     OpensslLib:obj_dat.obj
 0002:000069f8       ??_C@_0BP@HIDGBPHA@id?9smime?9mod?9ets?9eSignature?988@ 000000000005b718     OpensslLib:obj_dat.obj
 0002:00006a18       ??_C@_0BP@POGMGJII@id?9smime?9mod?9ets?9eSignature?997@ 000000000005b738     OpensslLib:obj_dat.obj
 0002:00006a38       ??_C@_0BP@KEHEABPA@id?9smime?9mod?9ets?9eSigPolicy?988@ 000000000005b758     OpensslLib:obj_dat.obj
 0002:00006a58       ??_C@_0BP@CCCOHHAI@id?9smime?9mod?9ets?9eSigPolicy?997@ 000000000005b778     OpensslLib:obj_dat.obj
 0002:00006a78       ??_C@_0BE@GCHIHBHA@id?9smime?9ct?9receipt@ 000000000005b798     OpensslLib:obj_dat.obj
 0002:00006a90       ??_C@_0BF@KGEHGOF@id?9smime?9ct?9authData@ 000000000005b7b0     OpensslLib:obj_dat.obj
 0002:00006aa8       ??_C@_0BI@DBILCLFJ@id?9smime?9ct?9publishCert@ 000000000005b7c8     OpensslLib:obj_dat.obj
 0002:00006ac0       ??_C@_0BE@KHNGFDDI@id?9smime?9ct?9TSTInfo@ 000000000005b7e0     OpensslLib:obj_dat.obj
 0002:00006ad8       ??_C@_0BE@FKPPBHI@id?9smime?9ct?9TDTInfo@ 000000000005b7f8     OpensslLib:obj_dat.obj
 0002:00006af0       ??_C@_0BI@BGKPNMK@id?9smime?9ct?9contentInfo@ 000000000005b810     OpensslLib:obj_dat.obj
 0002:00006b08       ??_C@_0BM@MFKPCEGN@id?9smime?9ct?9DVCSRequestData@ 000000000005b828     OpensslLib:obj_dat.obj
 0002:00006b28       ??_C@_0BN@POKJLKJJ@id?9smime?9ct?9DVCSResponseData@ 000000000005b848     OpensslLib:obj_dat.obj
 0002:00006b48       ??_C@_0BL@LMGNMPFD@id?9smime?9aa?9receiptRequest@ 000000000005b868     OpensslLib:obj_dat.obj
 0002:00006b68       ??_C@_0BK@DNJNJILO@id?9smime?9aa?9securityLabel@ 000000000005b888     OpensslLib:obj_dat.obj
 0002:00006b88       ??_C@_0BM@OEKGBMLE@id?9smime?9aa?9mlExpandHistory@ 000000000005b8a8     OpensslLib:obj_dat.obj
 0002:00006ba8       ??_C@_0BI@EMGPJFHB@id?9smime?9aa?9contentHint@ 000000000005b8c8     OpensslLib:obj_dat.obj
 0002:00006bc0       ??_C@_0BJ@LJLDKMDH@id?9smime?9aa?9msgSigDigest@ 000000000005b8e0     OpensslLib:obj_dat.obj
 0002:00006be0       ??_C@_0BN@GCCNOJCG@id?9smime?9aa?9encapContentType@ 000000000005b900     OpensslLib:obj_dat.obj
 0002:00006c00       ??_C@_0BO@KMJGIAMK@id?9smime?9aa?9contentIdentifier@ 000000000005b920     OpensslLib:obj_dat.obj
 0002:00006c20       ??_C@_0BF@CFNHFPDB@id?9smime?9aa?9macValue@ 000000000005b940     OpensslLib:obj_dat.obj
 0002:00006c38       ??_C@_0BN@NFAAOKEA@id?9smime?9aa?9equivalentLabels@ 000000000005b958     OpensslLib:obj_dat.obj
 0002:00006c58       ??_C@_0BN@LEFAEFL@id?9smime?9aa?9contentReference@ 000000000005b978     OpensslLib:obj_dat.obj
 0002:00006c78       ??_C@_0BK@LAPEFMP@id?9smime?9aa?9encrypKeyPref@ 000000000005b998     OpensslLib:obj_dat.obj
 0002:00006c98       ??_C@_0BP@LHGJLGIB@id?9smime?9aa?9signingCertificate@ 000000000005b9b8     OpensslLib:obj_dat.obj
 0002:00006cb8       ??_C@_0BO@CEEOANBD@id?9smime?9aa?9smimeEncryptCerts@ 000000000005b9d8     OpensslLib:obj_dat.obj
 0002:00006cd8       ??_C@_0BL@DHJOIJNE@id?9smime?9aa?9timeStampToken@ 000000000005b9f8     OpensslLib:obj_dat.obj
 0002:00006cf8       ??_C@_0BM@GKFMJCFL@id?9smime?9aa?9ets?9sigPolicyId@ 000000000005ba18     OpensslLib:obj_dat.obj
 0002:00006d18       ??_C@_0BP@OLIFPEIM@id?9smime?9aa?9ets?9commitmentType@ 000000000005ba38     OpensslLib:obj_dat.obj
 0002:00006d38       ??_C@_0BP@EODAELPO@id?9smime?9aa?9ets?9signerLocation@ 000000000005ba58     OpensslLib:obj_dat.obj
 0002:00006d58       ??_C@_0BL@KDJDAGDC@id?9smime?9aa?9ets?9signerAttr@ 000000000005ba78     OpensslLib:obj_dat.obj
 0002:00006d78       ??_C@_0BN@JFIFOPBH@id?9smime?9aa?9ets?9otherSigCert@ 000000000005ba98     OpensslLib:obj_dat.obj
 0002:00006d98       ??_C@_0CB@GHKINGOH@id?9smime?9aa?9ets?9contentTimestam@ 000000000005bab8     OpensslLib:obj_dat.obj
 0002:00006dc0       ??_C@_0CA@NKIOCHLG@id?9smime?9aa?9ets?9CertificateRefs@ 000000000005bae0     OpensslLib:obj_dat.obj
 0002:00006de0       ??_C@_0BP@BCHJHNFO@id?9smime?9aa?9ets?9RevocationRefs@ 000000000005bb00     OpensslLib:obj_dat.obj
 0002:00006e00       ??_C@_0BL@IFKOLDIG@id?9smime?9aa?9ets?9certValues@ 000000000005bb20     OpensslLib:obj_dat.obj
 0002:00006e20       ??_C@_0CB@GOCEFPFO@id?9smime?9aa?9ets?9revocationValue@ 000000000005bb40     OpensslLib:obj_dat.obj
 0002:00006e48       ??_C@_0BN@HGLOGOFI@id?9smime?9aa?9ets?9escTimeStamp@ 000000000005bb68     OpensslLib:obj_dat.obj
 0002:00006e68       ??_C@_0CB@CJNBPJE@id?9smime?9aa?9ets?9certCRLTimestam@ 000000000005bb88     OpensslLib:obj_dat.obj
 0002:00006e90       ??_C@_0CB@BEMKNJGO@id?9smime?9aa?9ets?9archiveTimeStam@ 000000000005bbb0     OpensslLib:obj_dat.obj
 0002:00006eb8       ??_C@_0BK@HDBIPLFI@id?9smime?9aa?9signatureType@ 000000000005bbd8     OpensslLib:obj_dat.obj
 0002:00006ed8       ??_C@_0BF@KEMAMBKF@id?9smime?9aa?9dvcs?9dvc@ 000000000005bbf8     OpensslLib:obj_dat.obj
 0002:00006ef0       ??_C@_0BK@JNJOCCCB@id?9smime?9alg?9ESDHwith3DES@ 000000000005bc10     OpensslLib:obj_dat.obj
 0002:00006f10       ??_C@_0BJ@FIJMOHBJ@id?9smime?9alg?9ESDHwithRC2@ 000000000005bc30     OpensslLib:obj_dat.obj
 0002:00006f30       ??_C@_0BG@HHELPNAK@id?9smime?9alg?93DESwrap@ 000000000005bc50     OpensslLib:obj_dat.obj
 0002:00006f48       ??_C@_0BF@JNCPAJCA@id?9smime?9alg?9RC2wrap@ 000000000005bc68     OpensslLib:obj_dat.obj
 0002:00006f60       ??_C@_0BC@COOODKPD@id?9smime?9alg?9ESDH@ 000000000005bc80     OpensslLib:obj_dat.obj
 0002:00006f78       ??_C@_0BJ@FOFHEIDB@id?9smime?9alg?9CMS3DESwrap@ 000000000005bc98     OpensslLib:obj_dat.obj
 0002:00006f98       ??_C@_0BI@FIFDKKFJ@id?9smime?9alg?9CMSRC2wrap@ 000000000005bcb8     OpensslLib:obj_dat.obj
 0002:00006fb0       ??_C@_0BB@BMOBKAGE@id?9smime?9cd?9ldap@ 000000000005bcd0     OpensslLib:obj_dat.obj
 0002:00006fc8       ??_C@_0BJ@IMNKDGEG@id?9smime?9spq?9ets?9sqt?9uri@ 000000000005bce8     OpensslLib:obj_dat.obj
 0002:00006fe8       ??_C@_0BN@GPAAHNOH@id?9smime?9spq?9ets?9sqt?9unotice@ 000000000005bd08     OpensslLib:obj_dat.obj
 0002:00007008       ??_C@_0BP@BCHFEGHC@id?9smime?9cti?9ets?9proofOfOrigin@ 000000000005bd28     OpensslLib:obj_dat.obj
 0002:00007028       ??_C@_0CA@HNGOKBGC@id?9smime?9cti?9ets?9proofOfReceipt@ 000000000005bd48     OpensslLib:obj_dat.obj
 0002:00007048       ??_C@_0CB@ICJGPMEP@id?9smime?9cti?9ets?9proofOfDeliver@ 000000000005bd68     OpensslLib:obj_dat.obj
 0002:00007070       ??_C@_0BP@ODCAFFCM@id?9smime?9cti?9ets?9proofOfSender@ 000000000005bd90     OpensslLib:obj_dat.obj
 0002:00007090       ??_C@_0CB@DDLMHEBC@id?9smime?9cti?9ets?9proofOfApprova@ 000000000005bdb0     OpensslLib:obj_dat.obj
 0002:000070b8       ??_C@_0CB@MICJDGGH@id?9smime?9cti?9ets?9proofOfCreatio@ 000000000005bdd8     OpensslLib:obj_dat.obj
 0002:000070dc       ??_C@_03HLHMHGOI@MD4@      000000000005bdfc     OpensslLib:obj_dat.obj
 0002:000070e0       ??_C@_03ODADJPDG@md4@      000000000005be00     OpensslLib:obj_dat.obj
 0002:000070e8       ??_C@_0M@FNAFBNKE@id?9pkix?9mod@ 000000000005be08     OpensslLib:obj_dat.obj
 0002:000070f4       ??_C@_05EBEMBIDF@id?9qt@   000000000005be14     OpensslLib:obj_dat.obj
 0002:000070fc       ??_C@_05FDHJOKPN@id?9it@   000000000005be1c     OpensslLib:obj_dat.obj
 0002:00007108       ??_C@_07OMHOPMIM@id?9pkip@ 000000000005be28     OpensslLib:obj_dat.obj
 0002:00007110       ??_C@_06DOGCNAAM@id?9alg@  000000000005be30     OpensslLib:obj_dat.obj
 0002:00007118       ??_C@_06PBMFLHLE@id?9cmc@  000000000005be38     OpensslLib:obj_dat.obj
 0002:00007120       ??_C@_05OHNJGMJE@id?9on@   000000000005be40     OpensslLib:obj_dat.obj
 0002:00007128       ??_C@_06IOIOBGMI@id?9pda@  000000000005be48     OpensslLib:obj_dat.obj
 0002:00007130       ??_C@_06GDGEDALH@id?9aca@  000000000005be50     OpensslLib:obj_dat.obj
 0002:00007138       ??_C@_06ELIJBHPL@id?9qcs@  000000000005be58     OpensslLib:obj_dat.obj
 0002:00007140       ??_C@_06PONIBOCI@id?9cct@  000000000005be60     OpensslLib:obj_dat.obj
 0002:00007148       ??_C@_0BF@HGDNDMHO@id?9pkix1?9explicit?988@ 000000000005be68     OpensslLib:obj_dat.obj
 0002:00007160       ??_C@_0BF@KMJGBJHG@id?9pkix1?9implicit?988@ 000000000005be80     OpensslLib:obj_dat.obj
 0002:00007178       ??_C@_0BF@JEALIPIC@id?9pkix1?9explicit?993@ 000000000005be98     OpensslLib:obj_dat.obj
 0002:00007190       ??_C@_0BF@EOKAKKIK@id?9pkix1?9implicit?993@ 000000000005beb0     OpensslLib:obj_dat.obj
 0002:000071a8       ??_C@_0M@GHFPFJPB@id?9mod?9crmf@ 000000000005bec8     OpensslLib:obj_dat.obj
 0002:000071b8       ??_C@_0L@KPDLDADF@id?9mod?9cmc@ 000000000005bed8     OpensslLib:obj_dat.obj
 0002:000071c8       ??_C@_0BG@DCGANCKA@id?9mod?9kea?9profile?988@ 000000000005bee8     OpensslLib:obj_dat.obj
 0002:000071e0       ??_C@_0BG@NAFGGBFM@id?9mod?9kea?9profile?993@ 000000000005bf00     OpensslLib:obj_dat.obj
 0002:000071f8       ??_C@_0L@MONEHBKH@id?9mod?9cmp@ 000000000005bf18     OpensslLib:obj_dat.obj
 0002:00007208       ??_C@_0BJ@GENFLKHG@id?9mod?9qualified?9cert?988@ 000000000005bf28     OpensslLib:obj_dat.obj
 0002:00007228       ??_C@_0BJ@IGODAJIK@id?9mod?9qualified?9cert?993@ 000000000005bf48     OpensslLib:obj_dat.obj
 0002:00007248       ??_C@_0BG@EPPFBJNH@id?9mod?9attribute?9cert@ 000000000005bf68     OpensslLib:obj_dat.obj
 0002:00007260       ??_C@_0BK@GAJOODEK@id?9mod?9timestamp?9protocol@ 000000000005bf80     OpensslLib:obj_dat.obj
 0002:00007280       ??_C@_0M@EACKLPKH@id?9mod?9ocsp@ 000000000005bfa0     OpensslLib:obj_dat.obj
 0002:00007290       ??_C@_0M@GHDGNJKI@id?9mod?9dvcs@ 000000000005bfb0     OpensslLib:obj_dat.obj
 0002:000072a0       ??_C@_0P@MMOAAMFD@id?9mod?9cmp2000@ 000000000005bfc0     OpensslLib:obj_dat.obj
 0002:000072b0       ??_C@_0O@MPIIPAHM@biometricInfo@ 000000000005bfd0     OpensslLib:obj_dat.obj
 0002:000072c0       ??_C@_0P@KFKDECPH@Biometric?5Info@ 000000000005bfe0     OpensslLib:obj_dat.obj
 0002:000072d0       ??_C@_0N@FPMNLLM@qcStatements@ 000000000005bff0     OpensslLib:obj_dat.obj
 0002:000072e0       ??_C@_0P@CIOHPJGC@ac?9auditEntity@ 000000000005c000     OpensslLib:obj_dat.obj
 0002:000072f0       ??_C@_0N@FPEEOJCI@ac?9targeting@ 000000000005c010     OpensslLib:obj_dat.obj
 0002:00007300       ??_C@_0L@DLGBNBJE@aaControls@ 000000000005c020     OpensslLib:obj_dat.obj
 0002:00007310       ??_C@_0BB@NNCKCHBC@sbgp?9ipAddrBlock@ 000000000005c030     OpensslLib:obj_dat.obj
 0002:00007328       ??_C@_0BG@OJEHJDKA@sbgp?9autonomousSysNum@ 000000000005c048     OpensslLib:obj_dat.obj
 0002:00007340       ??_C@_0BG@JCJJBMAI@sbgp?9routerIdentifier@ 000000000005c060     OpensslLib:obj_dat.obj
 0002:00007358       ??_C@_0L@HLNNPJEH@textNotice@ 000000000005c078     OpensslLib:obj_dat.obj
 0002:00007368       ??_C@_0P@MKBFMAPP@ipsecEndSystem@ 000000000005c088     OpensslLib:obj_dat.obj
 0002:00007378       ??_C@_0BB@JEJDAICO@IPSec?5End?5System@ 000000000005c098     OpensslLib:obj_dat.obj
 0002:00007390       ??_C@_0M@GMMHFFHI@ipsecTunnel@ 000000000005c0b0     OpensslLib:obj_dat.obj
 0002:000073a0       ??_C@_0N@EKDIOGLO@IPSec?5Tunnel@ 000000000005c0c0     OpensslLib:obj_dat.obj
 0002:000073b0       ??_C@_09GOHJKOFF@ipsecUser@ 000000000005c0d0     OpensslLib:obj_dat.obj
 0002:000073c0       ??_C@_0L@DECDDCGF@IPSec?5User@ 000000000005c0e0     OpensslLib:obj_dat.obj
 0002:000073cc       ??_C@_04JJICJLBL@DVCS@     000000000005c0ec     OpensslLib:obj_dat.obj
 0002:000073d4       ??_C@_04FFLIHJGD@dvcs@     000000000005c0f4     OpensslLib:obj_dat.obj
 0002:000073e0       ??_C@_0BE@GJACIPND@id?9it?9caProtEncCert@ 000000000005c100     OpensslLib:obj_dat.obj
 0002:000073f8       ??_C@_0BH@POCENFBA@id?9it?9signKeyPairTypes@ 000000000005c118     OpensslLib:obj_dat.obj
 0002:00007410       ??_C@_0BG@FKIDIODL@id?9it?9encKeyPairTypes@ 000000000005c130     OpensslLib:obj_dat.obj
 0002:00007428       ??_C@_0BH@JFBOPDCH@id?9it?9preferredSymmAlg@ 000000000005c148     OpensslLib:obj_dat.obj
 0002:00007440       ??_C@_0BG@OAKEHPLC@id?9it?9caKeyUpdateInfo@ 000000000005c160     OpensslLib:obj_dat.obj
 0002:00007458       ??_C@_0BB@NHKBGJFG@id?9it?9currentCRL@ 000000000005c178     OpensslLib:obj_dat.obj
 0002:00007470       ??_C@_0BG@BPLKDJPD@id?9it?9unsupportedOIDs@ 000000000005c190     OpensslLib:obj_dat.obj
 0002:00007488       ??_C@_0BK@MKGCMKGI@id?9it?9subscriptionRequest@ 000000000005c1a8     OpensslLib:obj_dat.obj
 0002:000074a8       ??_C@_0BL@HBPHBFLO@id?9it?9subscriptionResponse@ 000000000005c1c8     OpensslLib:obj_dat.obj
 0002:000074c8       ??_C@_0BG@LGJDGAPG@id?9it?9keyPairParamReq@ 000000000005c1e8     OpensslLib:obj_dat.obj
 0002:000074e0       ??_C@_0BG@KPIIFBLH@id?9it?9keyPairParamRep@ 000000000005c200     OpensslLib:obj_dat.obj
 0002:000074f8       ??_C@_0BE@FOOOCPMH@id?9it?9revPassphrase@ 000000000005c218     OpensslLib:obj_dat.obj
 0002:00007510       ??_C@_0BG@MKDHCJKF@id?9it?9implicitConfirm@ 000000000005c230     OpensslLib:obj_dat.obj
 0002:00007528       ??_C@_0BG@KCBHNMIK@id?9it?9confirmWaitTime@ 000000000005c248     OpensslLib:obj_dat.obj
 0002:00007540       ??_C@_0BF@CLCJJGFI@id?9it?9origPKIMessage@ 000000000005c260     OpensslLib:obj_dat.obj
 0002:00007558       ??_C@_0L@FDGKGANK@id?9regCtrl@ 000000000005c278     OpensslLib:obj_dat.obj
 0002:00007568       ??_C@_0L@BGHMJHOP@id?9regInfo@ 000000000005c288     OpensslLib:obj_dat.obj
 0002:00007578       ??_C@_0BE@JDMKCIPE@id?9regCtrl?9regToken@ 000000000005c298     OpensslLib:obj_dat.obj
 0002:00007590       ??_C@_0BJ@FBKKLLKP@id?9regCtrl?9authenticator@ 000000000005c2b0     OpensslLib:obj_dat.obj
 0002:000075b0       ??_C@_0BO@GJKPPLPL@id?9regCtrl?9pkiPublicationInfo@ 000000000005c2d0     OpensslLib:obj_dat.obj
 0002:000075d0       ??_C@_0BN@ONKHMAOP@id?9regCtrl?9pkiArchiveOptions@ 000000000005c2f0     OpensslLib:obj_dat.obj
 0002:000075f0       ??_C@_0BF@GFJPNJIG@id?9regCtrl?9oldCertID@ 000000000005c310     OpensslLib:obj_dat.obj
 0002:00007608       ??_C@_0BL@GHBPLPHM@id?9regCtrl?9protocolEncrKey@ 000000000005c328     OpensslLib:obj_dat.obj
 0002:00007628       ??_C@_0BF@FHFGHAHE@id?9regInfo?9utf8Pairs@ 000000000005c348     OpensslLib:obj_dat.obj
 0002:00007640       ??_C@_0BD@EEAPBNJJ@id?9regInfo?9certReq@ 000000000005c360     OpensslLib:obj_dat.obj
 0002:00007658       ??_C@_0N@KIJONBNA@id?9alg?9des40@ 000000000005c378     OpensslLib:obj_dat.obj
 0002:00007668       ??_C@_0BD@LAAJOBHI@id?9alg?9noSignature@ 000000000005c388     OpensslLib:obj_dat.obj
 0002:00007680       ??_C@_0BI@KIODNBCM@id?9alg?9dh?9sig?9hmac?9sha1@ 000000000005c3a0     OpensslLib:obj_dat.obj
 0002:00007698       ??_C@_0O@OBGPPBGA@id?9alg?9dh?9pop@ 000000000005c3b8     OpensslLib:obj_dat.obj
 0002:000076a8       ??_C@_0BC@CMNEPEAI@id?9cmc?9statusInfo@ 000000000005c3c8     OpensslLib:obj_dat.obj
 0002:000076c0       ??_C@_0BG@PPIINOMK@id?9cmc?9identification@ 000000000005c3e0     OpensslLib:obj_dat.obj
 0002:000076d8       ??_C@_0BF@IDAHNDCK@id?9cmc?9identityProof@ 000000000005c3f8     OpensslLib:obj_dat.obj
 0002:000076f0       ??_C@_0BC@LLJKCHEN@id?9cmc?9dataReturn@ 000000000005c410     OpensslLib:obj_dat.obj
 0002:00007708       ??_C@_0BF@GEJAHBF@id?9cmc?9transactionId@ 000000000005c428     OpensslLib:obj_dat.obj
 0002:00007720       ??_C@_0BD@BCMJDDMP@id?9cmc?9senderNonce@ 000000000005c440     OpensslLib:obj_dat.obj
 0002:00007738       ??_C@_0BG@JLHHNNCH@id?9cmc?9recipientNonce@ 000000000005c458     OpensslLib:obj_dat.obj
 0002:00007750       ??_C@_0BF@HLOCACJF@id?9cmc?9addExtensions@ 000000000005c470     OpensslLib:obj_dat.obj
 0002:00007768       ??_C@_0BE@NILMJFN@id?9cmc?9encryptedPOP@ 000000000005c488     OpensslLib:obj_dat.obj
 0002:00007780       ??_C@_0BE@KBIPLENG@id?9cmc?9decryptedPOP@ 000000000005c4a0     OpensslLib:obj_dat.obj
 0002:00007798       ??_C@_0BF@BMODAINP@id?9cmc?9lraPOPWitness@ 000000000005c4b8     OpensslLib:obj_dat.obj
 0002:000077b0       ??_C@_0P@GMDPJKDO@id?9cmc?9getCert@ 000000000005c4d0     OpensslLib:obj_dat.obj
 0002:000077c0       ??_C@_0O@OIGIOBJ@id?9cmc?9getCRL@ 000000000005c4e0     OpensslLib:obj_dat.obj
 0002:000077d0       ??_C@_0BF@BOEAJJNI@id?9cmc?9revokeRequest@ 000000000005c4f0     OpensslLib:obj_dat.obj
 0002:000077e8       ??_C@_0P@PCIOIKNC@id?9cmc?9regInfo@ 000000000005c508     OpensslLib:obj_dat.obj
 0002:000077f8       ??_C@_0BE@CKMFMMDP@id?9cmc?9responseInfo@ 000000000005c518     OpensslLib:obj_dat.obj
 0002:00007810       ??_C@_0BE@JKLJLIIH@id?9cmc?9queryPending@ 000000000005c530     OpensslLib:obj_dat.obj
 0002:00007828       ??_C@_0BF@GGLCNKGO@id?9cmc?9popLinkRandom@ 000000000005c548     OpensslLib:obj_dat.obj
 0002:00007840       ??_C@_0BG@EEIJMDPB@id?9cmc?9popLinkWitness@ 000000000005c560     OpensslLib:obj_dat.obj
 0002:00007858       ??_C@_0BN@MIGHDJON@id?9cmc?9confirmCertAcceptance@ 000000000005c578     OpensslLib:obj_dat.obj
 0002:00007878       ??_C@_0BD@IGLADCFL@id?9on?9personalData@ 000000000005c598     OpensslLib:obj_dat.obj
 0002:00007890       ??_C@_0BD@BADJMIPF@id?9pda?9dateOfBirth@ 000000000005c5b0     OpensslLib:obj_dat.obj
 0002:000078a8       ??_C@_0BE@NIFFDBPJ@id?9pda?9placeOfBirth@ 000000000005c5c8     OpensslLib:obj_dat.obj
 0002:000078c0       ??_C@_0O@JMCFNPFD@id?9pda?9gender@ 000000000005c5e0     OpensslLib:obj_dat.obj
 0002:000078d0       ??_C@_0BM@KMGEGNAB@id?9pda?9countryOfCitizenship@ 000000000005c5f0     OpensslLib:obj_dat.obj
 0002:000078f0       ??_C@_0BK@BJMNIGCJ@id?9pda?9countryOfResidence@ 000000000005c610     OpensslLib:obj_dat.obj
 0002:00007910       ??_C@_0BK@OFEDAOCA@id?9aca?9authenticationInfo@ 000000000005c630     OpensslLib:obj_dat.obj
 0002:00007930       ??_C@_0BG@GFJCFEAI@id?9aca?9accessIdentity@ 000000000005c650     OpensslLib:obj_dat.obj
 0002:00007948       ??_C@_0BI@IDHFJBKH@id?9aca?9chargingIdentity@ 000000000005c668     OpensslLib:obj_dat.obj
 0002:00007960       ??_C@_0N@HOPCGOGP@id?9aca?9group@ 000000000005c680     OpensslLib:obj_dat.obj
 0002:00007970       ??_C@_0M@FBOAJIIJ@id?9aca?9role@ 000000000005c690     OpensslLib:obj_dat.obj
 0002:00007980       ??_C@_0BH@DJONLBHI@id?9qcs?9pkixQCSyntax?9v1@ 000000000005c6a0     OpensslLib:obj_dat.obj
 0002:00007998       ??_C@_0L@CDHPLMPE@id?9cct?9crs@ 000000000005c6b8     OpensslLib:obj_dat.obj
 0002:000079a8       ??_C@_0P@FNCPPGJO@id?9cct?9PKIData@ 000000000005c6c8     OpensslLib:obj_dat.obj
 0002:000079b8       ??_C@_0BD@DDALHPCH@id?9cct?9PKIResponse@ 000000000005c6d8     OpensslLib:obj_dat.obj
 0002:000079d0       ??_C@_0BA@PBBONLHE@ad_timestamping@ 000000000005c6f0     OpensslLib:obj_dat.obj
 0002:000079e0       ??_C@_0BB@NMPPBOGK@AD?5Time?5Stamping@ 000000000005c700     OpensslLib:obj_dat.obj
 0002:000079f8       ??_C@_07JCCJJKFE@AD_DVCS@  000000000005c718     OpensslLib:obj_dat.obj
 0002:00007a00       ??_C@_07JCKMJMPC@ad?5dvcs@ 000000000005c720     OpensslLib:obj_dat.obj
 0002:00007a08       ??_C@_0BC@KFAFMFFF@basicOCSPResponse@ 000000000005c728     OpensslLib:obj_dat.obj
 0002:00007a20       ??_C@_0BE@ONEEPEOL@Basic?5OCSP?5Response@ 000000000005c740     OpensslLib:obj_dat.obj
 0002:00007a38       ??_C@_0L@NCNDEJFL@OCSP?5Nonce@ 000000000005c758     OpensslLib:obj_dat.obj
 0002:00007a44       ??_C@_05NOENOBME@CrlID@    000000000005c764     OpensslLib:obj_dat.obj
 0002:00007a50       ??_C@_0M@LCLKJALE@OCSP?5CRL?5ID@ 000000000005c770     OpensslLib:obj_dat.obj
 0002:00007a60       ??_C@_0BE@FBPDIHIK@acceptableResponses@ 000000000005c780     OpensslLib:obj_dat.obj
 0002:00007a78       ??_C@_0BK@JKKLNLEI@Acceptable?5OCSP?5Responses@ 000000000005c798     OpensslLib:obj_dat.obj
 0002:00007a98       ??_C@_07MCKMCKHJ@noCheck@  000000000005c7b8     OpensslLib:obj_dat.obj
 0002:00007aa0       ??_C@_0O@HFOALJCG@OCSP?5No?5Check@ 000000000005c7c0     OpensslLib:obj_dat.obj
 0002:00007ab0       ??_C@_0O@FIEDPKGI@archiveCutoff@ 000000000005c7d0     OpensslLib:obj_dat.obj
 0002:00007ac0       ??_C@_0BE@JAFPABJB@OCSP?5Archive?5Cutoff@ 000000000005c7e0     OpensslLib:obj_dat.obj
 0002:00007ad8       ??_C@_0P@LCDAPLHC@serviceLocator@ 000000000005c7f8     OpensslLib:obj_dat.obj
 0002:00007ae8       ??_C@_0BF@CEIKAD@OCSP?5Service?5Locator@ 000000000005c808     OpensslLib:obj_dat.obj
 0002:00007b00       ??_C@_0P@EGENIBNC@extendedStatus@ 000000000005c820     OpensslLib:obj_dat.obj
 0002:00007b10       ??_C@_0BF@MPEDLKDP@Extended?5OCSP?5Status@ 000000000005c830     OpensslLib:obj_dat.obj
 0002:00007b28       ??_C@_05HDPIMK@valid@      000000000005c848     OpensslLib:obj_dat.obj
 0002:00007b30       ??_C@_04LNEJFJGI@path@     000000000005c850     OpensslLib:obj_dat.obj
 0002:00007b38       ??_C@_09LNEPAILM@trustRoot@ 000000000005c858     OpensslLib:obj_dat.obj
 0002:00007b48       ??_C@_0L@INBPOG@Trust?5Root@ 000000000005c868     OpensslLib:obj_dat.obj
 0002:00007b58       ??_C@_0N@JHANBHGC@rsaSignature@ 000000000005c878     OpensslLib:obj_dat.obj
 0002:00007b68       ??_C@_0P@NMIAKCBG@X500algorithms@ 000000000005c888     OpensslLib:obj_dat.obj
 0002:00007b78       ??_C@_0CA@FIOIBJEO@directory?5services?5?9?5algorithms@ 000000000005c898     OpensslLib:obj_dat.obj
 0002:00007b98       ??_C@_03MNMMELJE@ORG@      000000000005c8b8     OpensslLib:obj_dat.obj
 0002:00007b9c       ??_C@_03MADHIGOI@org@      000000000005c8bc     OpensslLib:obj_dat.obj
 0002:00007ba0       ??_C@_03CFBOKPHF@DOD@      000000000005c8c0     OpensslLib:obj_dat.obj
 0002:00007ba4       ??_C@_03CIOFGCAJ@dod@      000000000005c8c4     OpensslLib:obj_dat.obj
 0002:00007ba8       ??_C@_04NMPANDAM@IANA@     000000000005c8c8     OpensslLib:obj_dat.obj
 0002:00007bb0       ??_C@_04BAMKDBHE@iana@     000000000005c8d0     OpensslLib:obj_dat.obj
 0002:00007bb8       ??_C@_09ELLNFDPM@directory@ 000000000005c8d8     OpensslLib:obj_dat.obj
 0002:00007bc8       ??_C@_09EOAFACM@Directory@ 000000000005c8e8     OpensslLib:obj_dat.obj
 0002:00007bd4       ??_C@_04PFNCJACF@mgmt@     000000000005c8f4     OpensslLib:obj_dat.obj
 0002:00007be0       ??_C@_0L@ENAJINDB@Management@ 000000000005c900     OpensslLib:obj_dat.obj
 0002:00007bf0       ??_C@_0N@OJFGCCKJ@experimental@ 000000000005c910     OpensslLib:obj_dat.obj
 0002:00007c00       ??_C@_0N@FKCIGJFM@Experimental@ 000000000005c920     OpensslLib:obj_dat.obj
 0002:00007c10       ??_C@_07NMPLPEPB@private@  000000000005c930     OpensslLib:obj_dat.obj
 0002:00007c18       ??_C@_07CFINJGKH@Private@  000000000005c938     OpensslLib:obj_dat.obj
 0002:00007c20       ??_C@_08MBFLHJIB@security@ 000000000005c940     OpensslLib:obj_dat.obj
 0002:00007c30       ??_C@_08EDKKPLCC@Security@ 000000000005c950     OpensslLib:obj_dat.obj
 0002:00007c3c       ??_C@_06DKHMNHOO@snmpv2@   000000000005c95c     OpensslLib:obj_dat.obj
 0002:00007c44       ??_C@_06JDJOGLHO@SNMPv2@   000000000005c964     OpensslLib:obj_dat.obj
 0002:00007c4c       ??_C@_04JEGKNAHI@Mail@     000000000005c96c     OpensslLib:obj_dat.obj
 0002:00007c58       ??_C@_0M@DMHOKNAD@enterprises@ 000000000005c978     OpensslLib:obj_dat.obj
 0002:00007c68       ??_C@_0M@CEEPHGPL@Enterprises@ 000000000005c988     OpensslLib:obj_dat.obj
 0002:00007c78       ??_C@_08KAGHKPKK@dcobject@ 000000000005c998     OpensslLib:obj_dat.obj
 0002:00007c88       ??_C@_08GPNKJGDG@dcObject@ 000000000005c9a8     OpensslLib:obj_dat.obj
 0002:00007c94       ??_C@_02KMHJBPDH@DC@       000000000005c9b4     OpensslLib:obj_dat.obj
 0002:00007c98       ??_C@_0BA@DMAKFKAH@domainComponent@ 000000000005c9b8     OpensslLib:obj_dat.obj
 0002:00007ca8       ??_C@_06LKIIGAOE@domain@   000000000005c9c8     OpensslLib:obj_dat.obj
 0002:00007cb0       ??_C@_06HFDFFJHI@Domain@   000000000005c9d0     OpensslLib:obj_dat.obj
 0002:00007cb8       ??_C@_04HIBGFPH@NULL@      000000000005c9d8     OpensslLib:obj_dat.obj
 0002:00007cc0       ??_C@_0BJ@BDDNHDDA@selected?9attribute?9types@ 000000000005c9e0     OpensslLib:obj_dat.obj
 0002:00007ce0       ??_C@_0BJ@MAOJIBHF@Selected?5Attribute?5Types@ 000000000005ca00     OpensslLib:obj_dat.obj
 0002:00007d00       ??_C@_09ECGCCLFI@clearance@ 000000000005ca20     OpensslLib:obj_dat.obj
 0002:00007d10       ??_C@_07MHHBEDHA@RSA?9MD4@ 000000000005ca30     OpensslLib:obj_dat.obj
 0002:00007d18       ??_C@_0BF@JDOFKNPK@md4WithRSAEncryption@ 000000000005ca38     OpensslLib:obj_dat.obj
 0002:00007d30       ??_C@_0M@BKAIKGEL@ac?9proxying@ 000000000005ca50     OpensslLib:obj_dat.obj
 0002:00007d40       ??_C@_0BC@IEIBIKBA@subjectInfoAccess@ 000000000005ca60     OpensslLib:obj_dat.obj
 0002:00007d58       ??_C@_0BL@OMFIOBLF@Subject?5Information?5Access@ 000000000005ca78     OpensslLib:obj_dat.obj
 0002:00007d78       ??_C@_0BA@PEFFHNFH@id?9aca?9encAttrs@ 000000000005ca98     OpensslLib:obj_dat.obj
 0002:00007d88       ??_C@_04IAMNPBLO@role@     000000000005caa8     OpensslLib:obj_dat.obj
 0002:00007d90       ??_C@_0BC@IJLMCBHD@policyConstraints@ 000000000005cab0     OpensslLib:obj_dat.obj
 0002:00007da8       ??_C@_0BK@DNMBLGM@X509v3?5Policy?5Constraints@ 000000000005cac8     OpensslLib:obj_dat.obj
 0002:00007dc8       ??_C@_0BC@JINDJNPM@targetInformation@ 000000000005cae8     OpensslLib:obj_dat.obj
 0002:00007de0       ??_C@_0BE@IECCFFCH@X509v3?5AC?5Targeting@ 000000000005cb00     OpensslLib:obj_dat.obj
 0002:00007df8       ??_C@_0L@ECGDAGCK@noRevAvail@ 000000000005cb18     OpensslLib:obj_dat.obj
 0002:00007e08       ??_C@_0BP@DEKFNCEH@X509v3?5No?5Revocation?5Available@ 000000000005cb28     OpensslLib:obj_dat.obj
 0002:00007e28       ??_C@_0L@LBMOMFCJ@ansi?9X9?962@ 000000000005cb48     OpensslLib:obj_dat.obj
 0002:00007e38       ??_C@_0L@HAOKGHPF@ANSI?5X9?462@ 000000000005cb58     OpensslLib:obj_dat.obj
 0002:00007e48       ??_C@_0M@LGLKIODB@prime?9field@ 000000000005cb68     OpensslLib:obj_dat.obj
 0002:00007e58       ??_C@_0BJ@HECCMKCN@characteristic?9two?9field@ 000000000005cb78     OpensslLib:obj_dat.obj
 0002:00007e78       ??_C@_0P@NEOBKIMO@id?9ecPublicKey@ 000000000005cb98     OpensslLib:obj_dat.obj
 0002:00007e88       ??_C@_0L@FFFCIFBH@prime192v1@ 000000000005cba8     OpensslLib:obj_dat.obj
 0002:00007e98       ??_C@_0L@HOHPNGNE@prime192v2@ 000000000005cbb8     OpensslLib:obj_dat.obj
 0002:00007ea8       ??_C@_0L@GHGEOHJF@prime192v3@ 000000000005cbc8     OpensslLib:obj_dat.obj
 0002:00007eb8       ??_C@_0L@EOHHGIBJ@prime239v1@ 000000000005cbd8     OpensslLib:obj_dat.obj
 0002:00007ec8       ??_C@_0L@GFFKDLNK@prime239v2@ 000000000005cbe8     OpensslLib:obj_dat.obj
 0002:00007ed8       ??_C@_0L@HMEBAKJL@prime239v3@ 000000000005cbf8     OpensslLib:obj_dat.obj
 0002:00007ee8       ??_C@_0L@JJFEINOP@prime256v1@ 000000000005cc08     OpensslLib:obj_dat.obj
 0002:00007ef8       ??_C@_0BA@DGJNDOPM@ecdsa?9with?9SHA1@ 000000000005cc18     OpensslLib:obj_dat.obj
 0002:00007f08       ??_C@_07BPKAKPJK@CSPName@  000000000005cc28     OpensslLib:obj_dat.obj
 0002:00007f10       ??_C@_0BD@HDEEGCLB@Microsoft?5CSP?5Name@ 000000000005cc30     OpensslLib:obj_dat.obj
 0002:00007f28       ??_C@_0M@BCNEBAOB@AES?9128?9ECB@ 000000000005cc48     OpensslLib:obj_dat.obj
 0002:00007f38       ??_C@_0M@MONPIKGC@aes?9128?9ecb@ 000000000005cc58     OpensslLib:obj_dat.obj
 0002:00007f48       ??_C@_0M@CPGGBEEL@AES?9128?9CBC@ 000000000005cc68     OpensslLib:obj_dat.obj
 0002:00007f58       ??_C@_0M@PDGNIOMI@aes?9128?9cbc@ 000000000005cc78     OpensslLib:obj_dat.obj
 0002:00007f68       ??_C@_0M@HLKCDCGO@AES?9128?9OFB@ 000000000005cc88     OpensslLib:obj_dat.obj
 0002:00007f78       ??_C@_0M@KHKJKION@aes?9128?9ofb@ 000000000005cc98     OpensslLib:obj_dat.obj
 0002:00007f88       ??_C@_0M@DBHEINNG@AES?9128?9CFB@ 000000000005cca8     OpensslLib:obj_dat.obj
 0002:00007f98       ??_C@_0M@ONHPBHFF@aes?9128?9cfb@ 000000000005ccb8     OpensslLib:obj_dat.obj
 0002:00007fa8       ??_C@_0M@LBEIGHHN@AES?9192?9ECB@ 000000000005ccc8     OpensslLib:obj_dat.obj
 0002:00007fb8       ??_C@_0M@GNEDPNPO@aes?9192?9ecb@ 000000000005ccd8     OpensslLib:obj_dat.obj
 0002:00007fc8       ??_C@_0M@IMPKGDNH@AES?9192?9CBC@ 000000000005cce8     OpensslLib:obj_dat.obj
 0002:00007fd8       ??_C@_0M@FAPBPJFE@aes?9192?9cbc@ 000000000005ccf8     OpensslLib:obj_dat.obj
 0002:00007fe8       ??_C@_0M@NIDOEFPC@AES?9192?9OFB@ 000000000005cd08     OpensslLib:obj_dat.obj
 0002:00007ff8       ??_C@_0M@EDFNPHB@aes?9192?9ofb@ 000000000005cd18     OpensslLib:obj_dat.obj
 0002:00008008       ??_C@_0M@JCOIPKEK@AES?9192?9CFB@ 000000000005cd28     OpensslLib:obj_dat.obj
 0002:00008018       ??_C@_0M@EOODGAMJ@aes?9192?9cfb@ 000000000005cd38     OpensslLib:obj_dat.obj
 0002:00008028       ??_C@_0M@GDPGEIPM@AES?9256?9ECB@ 000000000005cd48     OpensslLib:obj_dat.obj
 0002:00008038       ??_C@_0M@LPPNNCHP@aes?9256?9ecb@ 000000000005cd58     OpensslLib:obj_dat.obj
 0002:00008048       ??_C@_0M@FOEEEMFG@AES?9256?9CBC@ 000000000005cd68     OpensslLib:obj_dat.obj
 0002:00008058       ??_C@_0M@ICEPNGNF@aes?9256?9cbc@ 000000000005cd78     OpensslLib:obj_dat.obj
 0002:00008068       ??_C@_0M@KIAGKHD@AES?9256?9OFB@ 000000000005cd88     OpensslLib:obj_dat.obj
 0002:00008078       ??_C@_0M@NGILPAPA@aes?9256?9ofb@ 000000000005cd98     OpensslLib:obj_dat.obj
 0002:00008088       ??_C@_0M@EAFGNFML@AES?9256?9CFB@ 000000000005cda8     OpensslLib:obj_dat.obj
 0002:00008098       ??_C@_0M@JMFNEPEI@aes?9256?9cfb@ 000000000005cdb8     OpensslLib:obj_dat.obj
 0002:000080a8       ??_C@_0BE@FKEPLGJO@holdInstructionCode@ 000000000005cdc8     OpensslLib:obj_dat.obj
 0002:000080c0       ??_C@_0BG@LHBPDMAN@Hold?5Instruction?5Code@ 000000000005cde0     OpensslLib:obj_dat.obj
 0002:000080d8       ??_C@_0BE@KPEIPHPJ@holdInstructionNone@ 000000000005cdf8     OpensslLib:obj_dat.obj
 0002:000080f0       ??_C@_0BG@ECBIHNGK@Hold?5Instruction?5None@ 000000000005ce10     OpensslLib:obj_dat.obj
 0002:00008108       ??_C@_0BK@ENEKHHMB@holdInstructionCallIssuer@ 000000000005ce28     OpensslLib:obj_dat.obj
 0002:00008128       ??_C@_0BN@IJKNPIFC@Hold?5Instruction?5Call?5Issuer@ 000000000005ce48     OpensslLib:obj_dat.obj
 0002:00008148       ??_C@_0BG@BDAACIJE@holdInstructionReject@ 000000000005ce68     OpensslLib:obj_dat.obj
 0002:00008160       ??_C@_0BI@EEABHGCD@Hold?5Instruction?5Reject@ 000000000005ce80     OpensslLib:obj_dat.obj
 0002:00008178       ??_C@_04PJOLNDGD@data@     000000000005ce98     OpensslLib:obj_dat.obj
 0002:00008180       ??_C@_03OHCBHMED@pss@      000000000005cea0     OpensslLib:obj_dat.obj
 0002:00008184       ??_C@_03BIDCBJP@ucl@       000000000005cea4     OpensslLib:obj_dat.obj
 0002:00008188       ??_C@_05KIBFDOPF@pilot@    000000000005cea8     OpensslLib:obj_dat.obj
 0002:00008190       ??_C@_0BD@NEGIHOAI@pilotAttributeType@ 000000000005ceb0     OpensslLib:obj_dat.obj
 0002:000081a8       ??_C@_0BF@CDEFHHCF@pilotAttributeSyntax@ 000000000005cec8     OpensslLib:obj_dat.obj
 0002:000081c0       ??_C@_0BB@MJFNAIDM@pilotObjectClass@ 000000000005cee0     OpensslLib:obj_dat.obj
 0002:000081d8       ??_C@_0M@DLMEDAFC@pilotGroups@ 000000000005cef8     OpensslLib:obj_dat.obj
 0002:000081e8       ??_C@_0BA@KPIIGILK@iA5StringSyntax@ 000000000005cf08     OpensslLib:obj_dat.obj
 0002:000081f8       ??_C@_0BK@LELMGJGD@caseIgnoreIA5StringSyntax@ 000000000005cf18     OpensslLib:obj_dat.obj
 0002:00008218       ??_C@_0M@MCCFCPKP@pilotObject@ 000000000005cf38     OpensslLib:obj_dat.obj
 0002:00008228       ??_C@_0M@NCGDCEIP@pilotPerson@ 000000000005cf48     OpensslLib:obj_dat.obj
 0002:00008238       ??_C@_07PMDLEBNF@account@  000000000005cf58     OpensslLib:obj_dat.obj
 0002:00008240       ??_C@_08JEEDKNPB@document@ 000000000005cf60     OpensslLib:obj_dat.obj
 0002:0000824c       ??_C@_04EKFCMFOP@room@     000000000005cf6c     OpensslLib:obj_dat.obj
 0002:00008258       ??_C@_0P@OAPEDDHP@documentSeries@ 000000000005cf78     OpensslLib:obj_dat.obj
 0002:00008268       ??_C@_0BA@KIAIOBLD@rFC822localPart@ 000000000005cf88     OpensslLib:obj_dat.obj
 0002:00008278       ??_C@_09BOCGGGMK@dNSDomain@ 000000000005cf98     OpensslLib:obj_dat.obj
 0002:00008288       ??_C@_0BE@OPAPHNCO@domainRelatedObject@ 000000000005cfa8     OpensslLib:obj_dat.obj
 0002:000082a0       ??_C@_0BA@LKHIAMBK@friendlyCountry@ 000000000005cfc0     OpensslLib:obj_dat.obj
 0002:000082b0       ??_C@_0BF@CONLNHDI@simpleSecurityObject@ 000000000005cfd0     OpensslLib:obj_dat.obj
 0002:000082c8       ??_C@_0BC@PLDKCMI@pilotOrganization@ 000000000005cfe8     OpensslLib:obj_dat.obj
 0002:000082e0       ??_C@_08MPJGPMC@pilotDSA@  000000000005d000     OpensslLib:obj_dat.obj
 0002:000082f0       ??_C@_0BE@DDFOMMI@qualityLabelledData@ 000000000005d010     OpensslLib:obj_dat.obj
 0002:00008304       ??_C@_03MJDGODDN@UID@      000000000005d024     OpensslLib:obj_dat.obj
 0002:00008308       ??_C@_06LPELCIKE@userId@   000000000005d028     OpensslLib:obj_dat.obj
 0002:00008310       ??_C@_0BF@HDIIKJDI@textEncodedORAddress@ 000000000005d030     OpensslLib:obj_dat.obj
 0002:00008328       ??_C@_04FFKLPPHM@mail@     000000000005d048     OpensslLib:obj_dat.obj
 0002:00008330       ??_C@_0O@PDNFEOHL@rfc822Mailbox@ 000000000005d050     OpensslLib:obj_dat.obj
 0002:00008340       ??_C@_04NIDJFNBE@info@     000000000005d060     OpensslLib:obj_dat.obj
 0002:00008348       ??_C@_0P@PAMFCEKP@favouriteDrink@ 000000000005d068     OpensslLib:obj_dat.obj
 0002:00008358       ??_C@_0L@DGKNANFO@roomNumber@ 000000000005d078     OpensslLib:obj_dat.obj
 0002:00008364       ??_C@_05DOIFDPKA@photo@    000000000005d084     OpensslLib:obj_dat.obj
 0002:00008370       ??_C@_09CCPGMHEM@userClass@ 000000000005d090     OpensslLib:obj_dat.obj
 0002:0000837c       ??_C@_04OODOLJMA@host@     000000000005d09c     OpensslLib:obj_dat.obj
 0002:00008388       ??_C@_07JPLKDPHP@manager@  000000000005d0a8     OpensslLib:obj_dat.obj
 0002:00008390       ??_C@_0BD@MEPJGCEO@documentIdentifier@ 000000000005d0b0     OpensslLib:obj_dat.obj
 0002:000083a8       ??_C@_0O@BDIDABAC@documentTitle@ 000000000005d0c8     OpensslLib:obj_dat.obj
 0002:000083b8       ??_C@_0BA@GHOLKFM@documentVersion@ 000000000005d0d8     OpensslLib:obj_dat.obj
 0002:000083c8       ??_C@_0P@DABDJKFB@documentAuthor@ 000000000005d0e8     OpensslLib:obj_dat.obj
 0002:000083d8       ??_C@_0BB@COFKDFJ@documentLocation@ 000000000005d0f8     OpensslLib:obj_dat.obj
 0002:000083f0       ??_C@_0BE@CPLAKLNE@homeTelephoneNumber@ 000000000005d110     OpensslLib:obj_dat.obj
 0002:00008408       ??_C@_09EMBFDNKC@secretary@ 000000000005d128     OpensslLib:obj_dat.obj
 0002:00008418       ??_C@_0N@CEOKELFP@otherMailbox@ 000000000005d138     OpensslLib:obj_dat.obj
 0002:00008428       ??_C@_0BB@LHLABCIP@lastModifiedTime@ 000000000005d148     OpensslLib:obj_dat.obj
 0002:00008440       ??_C@_0P@ECLEJAJJ@lastModifiedBy@ 000000000005d160     OpensslLib:obj_dat.obj
 0002:00008450       ??_C@_07IBNMBOJB@aRecord@  000000000005d170     OpensslLib:obj_dat.obj
 0002:00008458       ??_C@_0BF@MIIMJDJB@pilotAttributeType27@ 000000000005d178     OpensslLib:obj_dat.obj
 0002:00008470       ??_C@_08DFFJPLPD@mXRecord@ 000000000005d190     OpensslLib:obj_dat.obj
 0002:00008480       ??_C@_08FBLONLGA@nSRecord@ 000000000005d1a0     OpensslLib:obj_dat.obj
 0002:00008490       ??_C@_09OCFHDJJF@sOARecord@ 000000000005d1b0     OpensslLib:obj_dat.obj
 0002:000084a0       ??_C@_0M@GHEAGPOE@cNAMERecord@ 000000000005d1c0     OpensslLib:obj_dat.obj
 0002:000084b0       ??_C@_0BB@MEFMIBKO@associatedDomain@ 000000000005d1d0     OpensslLib:obj_dat.obj
 0002:000084c8       ??_C@_0P@OJOOFNGB@associatedName@ 000000000005d1e8     OpensslLib:obj_dat.obj
 0002:000084d8       ??_C@_0BC@NPJKACJF@homePostalAddress@ 000000000005d1f8     OpensslLib:obj_dat.obj
 0002:000084f0       ??_C@_0O@CCHLDBGG@personalTitle@ 000000000005d210     OpensslLib:obj_dat.obj
 0002:00008500       ??_C@_0BG@DCPABLLG@mobileTelephoneNumber@ 000000000005d220     OpensslLib:obj_dat.obj
 0002:00008518       ??_C@_0BF@JICDDEFM@pagerTelephoneNumber@ 000000000005d238     OpensslLib:obj_dat.obj
 0002:00008530       ??_C@_0BE@MGDAFGCM@friendlyCountryName@ 000000000005d250     OpensslLib:obj_dat.obj
 0002:00008548       ??_C@_0BF@IANLBJMF@organizationalStatus@ 000000000005d268     OpensslLib:obj_dat.obj
 0002:00008560       ??_C@_0N@DGNBNBGJ@janetMailbox@ 000000000005d280     OpensslLib:obj_dat.obj
 0002:00008570       ??_C@_0BF@OFOHKDCI@mailPreferenceOption@ 000000000005d290     OpensslLib:obj_dat.obj
 0002:00008588       ??_C@_0N@POAALOHC@buildingName@ 000000000005d2a8     OpensslLib:obj_dat.obj
 0002:00008598       ??_C@_0L@LMCCHBHL@dSAQuality@ 000000000005d2b8     OpensslLib:obj_dat.obj
 0002:000085a8       ??_C@_0BD@EHDOPADK@singleLevelQuality@ 000000000005d2c8     OpensslLib:obj_dat.obj
 0002:000085c0       ??_C@_0BG@HMOECBMF@subtreeMinimumQuality@ 000000000005d2e0     OpensslLib:obj_dat.obj
 0002:000085d8       ??_C@_0BG@FLFPEGPE@subtreeMaximumQuality@ 000000000005d2f8     OpensslLib:obj_dat.obj
 0002:000085f0       ??_C@_0BC@CBOFINFC@personalSignature@ 000000000005d310     OpensslLib:obj_dat.obj
 0002:00008608       ??_C@_0M@KIABODOB@dITRedirect@ 000000000005d328     OpensslLib:obj_dat.obj
 0002:00008614       ??_C@_05KNIAAKIP@audio@    000000000005d334     OpensslLib:obj_dat.obj
 0002:00008620       ??_C@_0BC@KCCHJGGO@documentPublisher@ 000000000005d340     OpensslLib:obj_dat.obj
 0002:00008638       ??_C@_0BF@EFCCADKK@x500UniqueIdentifier@ 000000000005d358     OpensslLib:obj_dat.obj
 0002:00008650       ??_C@_08HLONPBDI@mime?9mhs@ 000000000005d370     OpensslLib:obj_dat.obj
 0002:00008660       ??_C@_08DNBACEKK@MIME?5MHS@ 000000000005d380     OpensslLib:obj_dat.obj
 0002:00008670       ??_C@_0BC@NIFMCBEJ@mime?9mhs?9headings@ 000000000005d390     OpensslLib:obj_dat.obj
 0002:00008688       ??_C@_0BA@MOFCNIEE@mime?9mhs?9bodies@ 000000000005d3a8     OpensslLib:obj_dat.obj
 0002:00008698       ??_C@_0BH@ILCJEHBB@id?9hex?9partial?9message@ 000000000005d3b8     OpensslLib:obj_dat.obj
 0002:000086b0       ??_C@_0BJ@KCNAIDP@id?9hex?9multipart?9message@ 000000000005d3d0     OpensslLib:obj_dat.obj
 0002:000086d0       ??_C@_0BE@DAEHFOO@generationQualifier@ 000000000005d3f0     OpensslLib:obj_dat.obj
 0002:000086e8       ??_C@_09NNMENHIH@pseudonym@ 000000000005d408     OpensslLib:obj_dat.obj
 0002:000086f4       ??_C@_06KKEMDFAF@id?9set@  000000000005d414     OpensslLib:obj_dat.obj
 0002:00008700       ??_C@_0BP@KEIHJPNF@Secure?5Electronic?5Transactions@ 000000000005d420     OpensslLib:obj_dat.obj
 0002:00008720       ??_C@_09EJPBIJJA@set?9ctype@ 000000000005d440     OpensslLib:obj_dat.obj
 0002:00008730       ??_C@_0O@HJGLMADJ@content?5types@ 000000000005d450     OpensslLib:obj_dat.obj
 0002:00008740       ??_C@_0L@PKPEIEIJ@set?9msgExt@ 000000000005d460     OpensslLib:obj_dat.obj
 0002:00008750       ??_C@_0BD@LEIDLLNO@message?5extensions@ 000000000005d470     OpensslLib:obj_dat.obj
 0002:00008768       ??_C@_08OFDIOKIA@set?9attr@ 000000000005d488     OpensslLib:obj_dat.obj
 0002:00008778       ??_C@_0L@LAAAKICM@set?9policy@ 000000000005d498     OpensslLib:obj_dat.obj
 0002:00008788       ??_C@_0M@KEIBDDC@set?9certExt@ 000000000005d4a8     OpensslLib:obj_dat.obj
 0002:00008798       ??_C@_0BH@PDPIEGPA@certificate?5extensions@ 000000000005d4b8     OpensslLib:obj_dat.obj
 0002:000087b0       ??_C@_09JHODGPNO@set?9brand@ 000000000005d4d0     OpensslLib:obj_dat.obj
 0002:000087c0       ??_C@_0O@EKAPGBNN@setct?9PANData@ 000000000005d4e0     OpensslLib:obj_dat.obj
 0002:000087d0       ??_C@_0P@LAMDLEMO@setct?9PANToken@ 000000000005d4f0     OpensslLib:obj_dat.obj
 0002:000087e0       ??_C@_0O@PFJCCKAL@setct?9PANOnly@ 000000000005d500     OpensslLib:obj_dat.obj
 0002:000087f0       ??_C@_0N@GHLAGDMC@setct?9OIData@ 000000000005d510     OpensslLib:obj_dat.obj
 0002:00008800       ??_C@_08MNJJNIEC@setct?9PI@ 000000000005d520     OpensslLib:obj_dat.obj
 0002:00008810       ??_C@_0N@PGCGIPOF@setct?9PIData@ 000000000005d530     OpensslLib:obj_dat.obj
 0002:00008820       ??_C@_0BF@BDFGFMFJ@setct?9PIDataUnsigned@ 000000000005d540     OpensslLib:obj_dat.obj
 0002:00008838       ??_C@_0P@LPBKKIBL@setct?9HODInput@ 000000000005d558     OpensslLib:obj_dat.obj
 0002:00008848       ??_C@_0BF@EFHLGKOJ@setct?9AuthResBaggage@ 000000000005d568     OpensslLib:obj_dat.obj
 0002:00008860       ??_C@_0BI@DEMAFNK@setct?9AuthRevReqBaggage@ 000000000005d580     OpensslLib:obj_dat.obj
 0002:00008878       ??_C@_0BI@CNLKCNFM@setct?9AuthRevResBaggage@ 000000000005d598     OpensslLib:obj_dat.obj
 0002:00008890       ??_C@_0BC@DDFFKACM@setct?9CapTokenSeq@ 000000000005d5b0     OpensslLib:obj_dat.obj
 0002:000088a8       ??_C@_0BD@GIEGHJGD@setct?9PInitResData@ 000000000005d5c8     OpensslLib:obj_dat.obj
 0002:000088c0       ??_C@_0N@GIGHFPBJ@setct?9PI?9TBS@ 000000000005d5e0     OpensslLib:obj_dat.obj
 0002:000088d0       ??_C@_0P@NGDEPBBH@setct?9PResData@ 000000000005d5f0     OpensslLib:obj_dat.obj
 0002:000088e0       ??_C@_0BB@OFKINDPN@setct?9AuthReqTBS@ 000000000005d600     OpensslLib:obj_dat.obj
 0002:000088f8       ??_C@_0BB@JPGIIAJN@setct?9AuthResTBS@ 000000000005d618     OpensslLib:obj_dat.obj
 0002:00008910       ??_C@_0BC@PMEDFACF@setct?9AuthResTBSX@ 000000000005d630     OpensslLib:obj_dat.obj
 0002:00008928       ??_C@_0BD@CLPECGHJ@setct?9AuthTokenTBS@ 000000000005d648     OpensslLib:obj_dat.obj
 0002:00008940       ??_C@_0BD@BFGEHNIL@setct?9CapTokenData@ 000000000005d660     OpensslLib:obj_dat.obj
 0002:00008958       ??_C@_0BC@DEDCIONA@setct?9CapTokenTBS@ 000000000005d678     OpensslLib:obj_dat.obj
 0002:00008970       ??_C@_0BF@LAOAGKEH@setct?9AcqCardCodeMsg@ 000000000005d690     OpensslLib:obj_dat.obj
 0002:00008988       ??_C@_0BE@KBFOOHGF@setct?9AuthRevReqTBS@ 000000000005d6a8     OpensslLib:obj_dat.obj
 0002:000089a0       ??_C@_0BF@ODDCPHOK@setct?9AuthRevResData@ 000000000005d6c0     OpensslLib:obj_dat.obj
 0002:000089b8       ??_C@_0BE@NLJOLEAF@setct?9AuthRevResTBS@ 000000000005d6d8     OpensslLib:obj_dat.obj
 0002:000089d0       ??_C@_0BA@KCAOGCKM@setct?9CapReqTBS@ 000000000005d6f0     OpensslLib:obj_dat.obj
 0002:000089e0       ??_C@_0BB@KNKADGPN@setct?9CapReqTBSX@ 000000000005d700     OpensslLib:obj_dat.obj
 0002:000089f8       ??_C@_0BB@BIJNNHL@setct?9CapResData@ 000000000005d718     OpensslLib:obj_dat.obj
 0002:00008a10       ??_C@_0BD@OELDKIB@setct?9CapRevReqTBS@ 000000000005d730     OpensslLib:obj_dat.obj
 0002:00008a28       ??_C@_0BE@OINDCPNA@setct?9CapRevReqTBSX@ 000000000005d748     OpensslLib:obj_dat.obj
 0002:00008a40       ??_C@_0BE@EEPKMEFG@setct?9CapRevResData@ 000000000005d760     OpensslLib:obj_dat.obj
 0002:00008a58       ??_C@_0BB@LDAMDCDI@setct?9CredReqTBS@ 000000000005d778     OpensslLib:obj_dat.obj
 0002:00008a70       ??_C@_0BC@FKNDGDPA@setct?9CredReqTBSX@ 000000000005d790     OpensslLib:obj_dat.obj
 0002:00008a88       ??_C@_0BC@PGPKIIHG@setct?9CredResData@ 000000000005d7a8     OpensslLib:obj_dat.obj
 0002:00008aa0       ??_C@_0BE@KAOEBGME@setct?9CredRevReqTBS@ 000000000005d7c0     OpensslLib:obj_dat.obj
 0002:00008ab8       ??_C@_0BF@OOMLDFOD@setct?9CredRevReqTBSX@ 000000000005d7d8     OpensslLib:obj_dat.obj
 0002:00008ad0       ??_C@_0BF@ECOCNOGF@setct?9CredRevResData@ 000000000005d7f0     OpensslLib:obj_dat.obj
 0002:00008ae8       ??_C@_0BD@DDNGMNFC@setct?9PCertReqData@ 000000000005d808     OpensslLib:obj_dat.obj
 0002:00008b00       ??_C@_0BC@CFHCKIIA@setct?9PCertResTBS@ 000000000005d820     OpensslLib:obj_dat.obj
 0002:00008b18       ??_C@_0BI@MKKDKHGI@setct?9BatchAdminReqData@ 000000000005d838     OpensslLib:obj_dat.obj
 0002:00008b30       ??_C@_0BI@IHGLAGGD@setct?9BatchAdminResData@ 000000000005d850     OpensslLib:obj_dat.obj
 0002:00008b48       ??_C@_0BG@OMHIHPPP@setct?9CardCInitResTBS@ 000000000005d868     OpensslLib:obj_dat.obj
 0002:00008b60       ??_C@_0BG@DIBJJIJB@setct?9MeAqCInitResTBS@ 000000000005d880     OpensslLib:obj_dat.obj
 0002:00008b78       ??_C@_0BE@KOFLJLPI@setct?9RegFormResTBS@ 000000000005d898     OpensslLib:obj_dat.obj
 0002:00008b90       ??_C@_0BC@FFENCANF@setct?9CertReqData@ 000000000005d8b0     OpensslLib:obj_dat.obj
 0002:00008ba8       ??_C@_0BB@MCGELGDK@setct?9CertReqTBS@ 000000000005d8c8     OpensslLib:obj_dat.obj
 0002:00008bc0       ??_C@_0BC@BIIFIBNO@setct?9CertResData@ 000000000005d8e0     OpensslLib:obj_dat.obj
 0002:00008bd8       ??_C@_0BE@OIDIJLCF@setct?9CertInqReqTBS@ 000000000005d8f8     OpensslLib:obj_dat.obj
 0002:00008bf0       ??_C@_0P@DLHKHMDJ@setct?9ErrorTBS@ 000000000005d910     OpensslLib:obj_dat.obj
 0002:00008c00       ??_C@_0BG@JDDNBPAG@setct?9PIDualSignedTBE@ 000000000005d920     OpensslLib:obj_dat.obj
 0002:00008c18       ??_C@_0BE@IBOAPLDD@setct?9PIUnsignedTBE@ 000000000005d938     OpensslLib:obj_dat.obj
 0002:00008c30       ??_C@_0BB@PJDAGGCK@setct?9AuthReqTBE@ 000000000005d950     OpensslLib:obj_dat.obj
 0002:00008c48       ??_C@_0BB@IDPADFEK@setct?9AuthResTBE@ 000000000005d968     OpensslLib:obj_dat.obj
 0002:00008c60       ??_C@_0BC@OEOIIPOH@setct?9AuthResTBEX@ 000000000005d980     OpensslLib:obj_dat.obj
 0002:00008c78       ??_C@_0BD@DHGMJDKO@setct?9AuthTokenTBE@ 000000000005d998     OpensslLib:obj_dat.obj
 0002:00008c90       ??_C@_0BC@CIKKDLAH@setct?9CapTokenTBE@ 000000000005d9b0     OpensslLib:obj_dat.obj
 0002:00008ca8       ??_C@_0BD@OMCOOIME@setct?9CapTokenTBEX@ 000000000005d9c8     OpensslLib:obj_dat.obj
 0002:00008cc0       ??_C@_0BI@PALCIALL@setct?9AcqCardCodeMsgTBE@ 000000000005d9e0     OpensslLib:obj_dat.obj
 0002:00008cd8       ??_C@_0BE@LNMGFCLC@setct?9AuthRevReqTBE@ 000000000005d9f8     OpensslLib:obj_dat.obj
 0002:00008cf0       ??_C@_0BE@MHAGABNC@setct?9AuthRevResTBE@ 000000000005da10     OpensslLib:obj_dat.obj
 0002:00008d08       ??_C@_0BF@KKFFJIHO@setct?9AuthRevResTBEB@ 000000000005da28     OpensslLib:obj_dat.obj
 0002:00008d20       ??_C@_0BA@LOJGNHHL@setct?9CapReqTBE@ 000000000005da40     OpensslLib:obj_dat.obj
 0002:00008d30       ??_C@_0BB@LFALOJDP@setct?9CapReqTBEX@ 000000000005da50     OpensslLib:obj_dat.obj
 0002:00008d48       ??_C@_0BA@MEFGIEBL@setct?9CapResTBE@ 000000000005da68     OpensslLib:obj_dat.obj
 0002:00008d58       ??_C@_0BD@BCNDIPFG@setct?9CapRevReqTBE@ 000000000005da78     OpensslLib:obj_dat.obj
 0002:00008d70       ??_C@_0BE@PAHIPABC@setct?9CapRevReqTBEX@ 000000000005da90     OpensslLib:obj_dat.obj
 0002:00008d88       ??_C@_0BD@GIBDNMDG@setct?9CapRevResTBE@ 000000000005daa8     OpensslLib:obj_dat.obj
 0002:00008da0       ??_C@_0BB@KPJEIHOP@setct?9CredReqTBE@ 000000000005dac0     OpensslLib:obj_dat.obj
 0002:00008db8       ??_C@_0BC@ECHILMDC@setct?9CredReqTBEX@ 000000000005dad8     OpensslLib:obj_dat.obj
 0002:00008dd0       ??_C@_0BB@NFFENEIP@setct?9CredResTBE@ 000000000005daf0     OpensslLib:obj_dat.obj
 0002:00008de8       ??_C@_0BE@LMHMKDBD@setct?9CredRevReqTBE@ 000000000005db08     OpensslLib:obj_dat.obj
 0002:00008e00       ??_C@_0BF@PGGAOKCB@setct?9CredRevReqTBEX@ 000000000005db20     OpensslLib:obj_dat.obj
 0002:00008e18       ??_C@_0BE@MGLMPAHD@setct?9CredRevResTBE@ 000000000005db38     OpensslLib:obj_dat.obj
 0002:00008e30       ??_C@_0BH@IPJPBLKL@setct?9BatchAdminReqTBE@ 000000000005db50     OpensslLib:obj_dat.obj
 0002:00008e48       ??_C@_0BH@PFFPEIML@setct?9BatchAdminResTBE@ 000000000005db68     OpensslLib:obj_dat.obj
 0002:00008e60       ??_C@_0BE@MIADHNEP@setct?9RegFormReqTBE@ 000000000005db80     OpensslLib:obj_dat.obj
 0002:00008e78       ??_C@_0BB@NOPMADON@setct?9CertReqTBE@ 000000000005db98     OpensslLib:obj_dat.obj
 0002:00008e90       ??_C@_0BC@KMAHLFJK@setct?9CertReqTBEX@ 000000000005dbb0     OpensslLib:obj_dat.obj
 0002:00008ea8       ??_C@_0BB@KEDMFAIN@setct?9CertResTBE@ 000000000005dbc8     OpensslLib:obj_dat.obj
 0002:00008ec0       ??_C@_0BJ@KMIJGANO@setct?9CRLNotificationTBS@ 000000000005dbe0     OpensslLib:obj_dat.obj
 0002:00008ee0       ??_C@_0BM@GINBKIMJ@setct?9CRLNotificationResTBS@ 000000000005dc00     OpensslLib:obj_dat.obj
 0002:00008f00       ??_C@_0BJ@BPGLEKIJ@setct?9BCIDistributionTBS@ 000000000005dc20     OpensslLib:obj_dat.obj
 0002:00008f20       ??_C@_0BA@NKJJMGPC@setext?9genCrypt@ 000000000005dc40     OpensslLib:obj_dat.obj
 0002:00008f30       ??_C@_0BD@IMJHIOH@generic?5cryptogram@ 000000000005dc50     OpensslLib:obj_dat.obj
 0002:00008f48       ??_C@_0O@IFMPKKOL@setext?9miAuth@ 000000000005dc68     OpensslLib:obj_dat.obj
 0002:00008f58       ??_C@_0BI@IMGNFPLI@merchant?5initiated?5auth@ 000000000005dc78     OpensslLib:obj_dat.obj
 0002:00008f70       ??_C@_0BB@IKLFBNP@setext?9pinSecure@ 000000000005dc90     OpensslLib:obj_dat.obj
 0002:00008f88       ??_C@_0O@PNHGIFHA@setext?9pinAny@ 000000000005dca8     OpensslLib:obj_dat.obj
 0002:00008f98       ??_C@_0O@PNAFPHHK@setext?9track2@ 000000000005dcb8     OpensslLib:obj_dat.obj
 0002:00008fa8       ??_C@_09GMOEIEJI@setext?9cv@ 000000000005dcc8     OpensslLib:obj_dat.obj
 0002:00008fb8       ??_C@_0BI@MFPOFNGC@additional?5verification@ 000000000005dcd8     OpensslLib:obj_dat.obj
 0002:00008fd0       ??_C@_0BA@DLJGCPKK@set?9policy?9root@ 000000000005dcf0     OpensslLib:obj_dat.obj
 0002:00008fe0       ??_C@_0BD@MELPLACB@setCext?9hashedRoot@ 000000000005dd00     OpensslLib:obj_dat.obj
 0002:00008ff8       ??_C@_0BB@LHGCHNFD@setCext?9certType@ 000000000005dd18     OpensslLib:obj_dat.obj
 0002:00009010       ??_C@_0BC@ONMLOIHK@setCext?9merchData@ 000000000005dd30     OpensslLib:obj_dat.obj
 0002:00009028       ??_C@_0BG@CMNKGOHO@setCext?9cCertRequired@ 000000000005dd48     OpensslLib:obj_dat.obj
 0002:00009040       ??_C@_0BC@BPADJLFJ@setCext?9tunneling@ 000000000005dd60     OpensslLib:obj_dat.obj
 0002:00009058       ??_C@_0P@DFHCPLJG@setCext?9setExt@ 000000000005dd78     OpensslLib:obj_dat.obj
 0002:00009068       ??_C@_0BB@HIAOOOIO@setCext?9setQualf@ 000000000005dd88     OpensslLib:obj_dat.obj
 0002:00009080       ??_C@_0BJ@CNLNHONG@setCext?9PGWYcapabilities@ 000000000005dda0     OpensslLib:obj_dat.obj
 0002:000090a0       ??_C@_0BI@FIIEHNL@setCext?9TokenIdentifier@ 000000000005ddc0     OpensslLib:obj_dat.obj
 0002:000090b8       ??_C@_0BD@FHFLAKJD@setCext?9Track2Data@ 000000000005ddd8     OpensslLib:obj_dat.obj
 0002:000090d0       ??_C@_0BC@KMFGLCBL@setCext?9TokenType@ 000000000005ddf0     OpensslLib:obj_dat.obj
 0002:000090e8       ??_C@_0BL@OLCLGJDA@setCext?9IssuerCapabilities@ 000000000005de08     OpensslLib:obj_dat.obj
 0002:00009108       ??_C@_0N@DCNKAAPN@setAttr?9Cert@ 000000000005de28     OpensslLib:obj_dat.obj
 0002:00009118       ??_C@_0BA@FAIFDKDK@setAttr?9PGWYcap@ 000000000005de38     OpensslLib:obj_dat.obj
 0002:00009128       ??_C@_0BN@HEFBDPEB@payment?5gateway?5capabilities@ 000000000005de48     OpensslLib:obj_dat.obj
 0002:00009148       ??_C@_0BC@IKOKMCIL@setAttr?9TokenType@ 000000000005de68     OpensslLib:obj_dat.obj
 0002:00009160       ??_C@_0P@OGFLCCKL@setAttr?9IssCap@ 000000000005de80     OpensslLib:obj_dat.obj
 0002:00009170       ??_C@_0BE@HBDPGKCG@issuer?5capabilities@ 000000000005de90     OpensslLib:obj_dat.obj
 0002:00009188       ??_C@_0BB@MADMNAKK@set?9rootKeyThumb@ 000000000005dea8     OpensslLib:obj_dat.obj
 0002:000091a0       ??_C@_0O@NOCONBCM@set?9addPolicy@ 000000000005dec0     OpensslLib:obj_dat.obj
 0002:000091b0       ??_C@_0BC@BMANBENP@setAttr?9Token?9EMV@ 000000000005ded0     OpensslLib:obj_dat.obj
 0002:000091c8       ??_C@_0BG@ICNBHDJ@setAttr?9Token?9B0Prime@ 000000000005dee8     OpensslLib:obj_dat.obj
 0002:000091e0       ??_C@_0BD@CMJDLAHE@setAttr?9IssCap?9CVM@ 000000000005df00     OpensslLib:obj_dat.obj
 0002:000091f8       ??_C@_0BC@FKLLNJMF@setAttr?9IssCap?9T2@ 000000000005df18     OpensslLib:obj_dat.obj
 0002:00009210       ??_C@_0BD@DMNGIJGO@setAttr?9IssCap?9Sig@ 000000000005df30     OpensslLib:obj_dat.obj
 0002:00009228       ??_C@_0BE@FJCINFHM@setAttr?9GenCryptgrm@ 000000000005df48     OpensslLib:obj_dat.obj
 0002:00009240       ??_C@_0BE@BANBLNDJ@generate?5cryptogram@ 000000000005df60     OpensslLib:obj_dat.obj
 0002:00009258       ??_C@_0O@GFEDKLID@setAttr?9T2Enc@ 000000000005df78     OpensslLib:obj_dat.obj
 0002:00009268       ??_C@_0BC@MCHFBPJF@encrypted?5track?52@ 000000000005df88     OpensslLib:obj_dat.obj
 0002:00009280       ??_C@_0BD@GDDCOMNC@setAttr?9T2cleartxt@ 000000000005dfa0     OpensslLib:obj_dat.obj
 0002:00009298       ??_C@_0BC@EEELFHMJ@cleartext?5track?52@ 000000000005dfb8     OpensslLib:obj_dat.obj
 0002:000092b0       ??_C@_0BC@KFHJNGAA@setAttr?9TokICCsig@ 000000000005dfd0     OpensslLib:obj_dat.obj
 0002:000092c8       ??_C@_0BH@FLMFBHA@ICC?5or?5token?5signature@ 000000000005dfe8     OpensslLib:obj_dat.obj
 0002:000092e0       ??_C@_0BC@HILPEDHB@setAttr?9SecDevSig@ 000000000005e000     OpensslLib:obj_dat.obj
 0002:000092f8       ??_C@_0BI@BMDLNIII@secure?5device?5signature@ 000000000005e018     OpensslLib:obj_dat.obj
 0002:00009310       ??_C@_0BD@EBDAHFCK@set?9brand?9IATA?9ATA@ 000000000005e030     OpensslLib:obj_dat.obj
 0002:00009328       ??_C@_0BB@MJOMIBOM@set?9brand?9Diners@ 000000000005e048     OpensslLib:obj_dat.obj
 0002:00009340       ??_C@_0BK@NGHCPIFJ@set?9brand?9AmericanExpress@ 000000000005e060     OpensslLib:obj_dat.obj
 0002:00009360       ??_C@_0O@ODFDKJIN@set?9brand?9JCB@ 000000000005e080     OpensslLib:obj_dat.obj
 0002:00009370       ??_C@_0P@KADKEMKM@set?9brand?9Visa@ 000000000005e090     OpensslLib:obj_dat.obj
 0002:00009380       ??_C@_0BF@EKCBHCKG@set?9brand?9MasterCard@ 000000000005e0a0     OpensslLib:obj_dat.obj
 0002:00009398       ??_C@_0BA@JHOGHBHC@set?9brand?9Novus@ 000000000005e0b8     OpensslLib:obj_dat.obj
 0002:000093a8       ??_C@_08IHLOILPC@DES?9CDMF@ 000000000005e0c8     OpensslLib:obj_dat.obj
 0002:000093b8       ??_C@_08PPLOLAOD@des?9cdmf@ 000000000005e0d8     OpensslLib:obj_dat.obj
 0002:000093c8       ??_C@_0BF@EIIDBKMM@rsaOAEPEncryptionSET@ 000000000005e0e8     OpensslLib:obj_dat.obj
 0002:000093e0       ??_C@_05LJGINOIA@ITU?9T@   000000000005e100     OpensslLib:obj_dat.obj
 0002:000093e8       ??_C@_05EKLDHPCO@itu?9t@   000000000005e108     OpensslLib:obj_dat.obj
 0002:000093f0       ??_C@_0BA@NPJCPIN@JOINT?9ISO?9ITU?9T@ 000000000005e110     OpensslLib:obj_dat.obj
 0002:00009400       ??_C@_0BA@DDCJMADA@joint?9iso?9itu?9t@ 000000000005e120     OpensslLib:obj_dat.obj
 0002:00009410       ??_C@_0BM@PBBEOBAP@international?9organizations@ 000000000005e130     OpensslLib:obj_dat.obj
 0002:00009430       ??_C@_0BM@PGMBEIHL@International?5Organizations@ 000000000005e150     OpensslLib:obj_dat.obj
 0002:00009450       ??_C@_0BB@MJPMDGHF@msSmartcardLogin@ 000000000005e170     OpensslLib:obj_dat.obj
 0002:00009468       ??_C@_0BK@BJLJNHIE@Microsoft?5Smartcard?5Login@ 000000000005e188     OpensslLib:obj_dat.obj
 0002:00009484       ??_C@_05LKLAGLGM@msUPN@    000000000005e1a4     OpensslLib:obj_dat.obj
 0002:00009490       ??_C@_0BO@NJMDLJHK@Microsoft?5User?5Principal?5Name@ 000000000005e1b0     OpensslLib:obj_dat.obj
 0002:000094b0       ??_C@_0N@KJNMAENO@AES?9128?9CFB1@ 000000000005e1d0     OpensslLib:obj_dat.obj
 0002:000094c0       ??_C@_0N@NNLBNNNO@aes?9128?9cfb1@ 000000000005e1e0     OpensslLib:obj_dat.obj
 0002:000094d0       ??_C@_0N@FAMGEHMG@AES?9192?9CFB1@ 000000000005e1f0     OpensslLib:obj_dat.obj
 0002:000094e0       ??_C@_0N@CEKLJOMG@aes?9192?9cfb1@ 000000000005e200     OpensslLib:obj_dat.obj
 0002:000094f0       ??_C@_0N@MKKLEKFP@AES?9256?9CFB1@ 000000000005e210     OpensslLib:obj_dat.obj
 0002:00009500       ??_C@_0N@LOMGJDFP@aes?9256?9cfb1@ 000000000005e220     OpensslLib:obj_dat.obj
 0002:00009510       ??_C@_0N@HIBOLPJH@AES?9128?9CFB8@ 000000000005e230     OpensslLib:obj_dat.obj
 0002:00009520       ??_C@_0N@MHDGGJH@aes?9128?9cfb8@ 000000000005e240     OpensslLib:obj_dat.obj
 0002:00009530       ??_C@_0N@IBAEPMIP@AES?9192?9CFB8@ 000000000005e250     OpensslLib:obj_dat.obj
 0002:00009540       ??_C@_0N@PFGJCFIP@aes?9192?9cfb8@ 000000000005e260     OpensslLib:obj_dat.obj
 0002:00009550       ??_C@_0N@BLGJPBBG@AES?9256?9CFB8@ 000000000005e270     OpensslLib:obj_dat.obj
 0002:00009560       ??_C@_0N@GPAECIBG@aes?9256?9cfb8@ 000000000005e280     OpensslLib:obj_dat.obj
 0002:00009570       ??_C@_08EGJFOLHF@DES?9CFB1@ 000000000005e290     OpensslLib:obj_dat.obj
 0002:00009580       ??_C@_08KLBBPEMG@des?9cfb1@ 000000000005e2a0     OpensslLib:obj_dat.obj
 0002:00009590       ??_C@_08JHFHFADM@DES?9CFB8@ 000000000005e2b0     OpensslLib:obj_dat.obj
 0002:000095a0       ??_C@_08HKNDEPIP@des?9cfb8@ 000000000005e2c0     OpensslLib:obj_dat.obj
 0002:000095b0       ??_C@_0O@HMFIBGGD@DES?9EDE3?9CFB1@ 000000000005e2d0     OpensslLib:obj_dat.obj
 0002:000095c0       ??_C@_0O@HHBHNLEJ@des?9ede3?9cfb1@ 000000000005e2e0     OpensslLib:obj_dat.obj
 0002:000095d0       ??_C@_0O@KNJKKNCK@DES?9EDE3?9CFB8@ 000000000005e2f0     OpensslLib:obj_dat.obj
 0002:000095e0       ??_C@_0O@KGNFGAAA@des?9ede3?9cfb8@ 000000000005e300     OpensslLib:obj_dat.obj
 0002:000095f0       ??_C@_06KFAFKEEH@street@   000000000005e310     OpensslLib:obj_dat.obj
 0002:000095f8       ??_C@_0O@GFJANBCD@streetAddress@ 000000000005e318     OpensslLib:obj_dat.obj
 0002:00009608       ??_C@_0L@NCDHJCMF@postalCode@ 000000000005e328     OpensslLib:obj_dat.obj
 0002:00009614       ??_C@_06CAAPGDCJ@id?9ppl@  000000000005e334     OpensslLib:obj_dat.obj
 0002:00009620       ??_C@_0O@LOINHHBF@proxyCertInfo@ 000000000005e340     OpensslLib:obj_dat.obj
 0002:00009630       ??_C@_0BO@CCHFGBDO@Proxy?5Certificate?5Information@ 000000000005e350     OpensslLib:obj_dat.obj
 0002:00009650       ??_C@_0BD@HNCKDFAM@id?9ppl?9anyLanguage@ 000000000005e370     OpensslLib:obj_dat.obj
 0002:00009668       ??_C@_0N@BEBFEGLC@Any?5language@ 000000000005e388     OpensslLib:obj_dat.obj
 0002:00009678       ??_C@_0BC@PCEJIIF@id?9ppl?9inheritAll@ 000000000005e398     OpensslLib:obj_dat.obj
 0002:00009690       ??_C@_0M@FFLAPACB@Inherit?5all@ 000000000005e3b0     OpensslLib:obj_dat.obj
 0002:000096a0       ??_C@_0BA@NDBMPGLN@nameConstraints@ 000000000005e3c0     OpensslLib:obj_dat.obj
 0002:000096b0       ??_C@_0BI@MLJLAGL@X509v3?5Name?5Constraints@ 000000000005e3d0     OpensslLib:obj_dat.obj
 0002:000096c8       ??_C@_0BD@JMNHHICP@id?9ppl?9independent@ 000000000005e3e8     OpensslLib:obj_dat.obj
 0002:000096e0       ??_C@_0M@MLMKHJLC@Independent@ 000000000005e400     OpensslLib:obj_dat.obj
 0002:000096f0       ??_C@_0L@CICIPLII@RSA?9SHA256@ 000000000005e410     OpensslLib:obj_dat.obj
 0002:00009700       ??_C@_0BI@OLMNBFHG@sha256WithRSAEncryption@ 000000000005e420     OpensslLib:obj_dat.obj
 0002:00009718       ??_C@_0L@KKHKGNDM@RSA?9SHA384@ 000000000005e438     OpensslLib:obj_dat.obj
 0002:00009728       ??_C@_0BI@LGPCJGLE@sha384WithRSAEncryption@ 000000000005e448     OpensslLib:obj_dat.obj
 0002:00009740       ??_C@_0L@NGJKKOOJ@RSA?9SHA512@ 000000000005e460     OpensslLib:obj_dat.obj
 0002:00009750       ??_C@_0BI@CFKPHFJF@sha512WithRSAEncryption@ 000000000005e470     OpensslLib:obj_dat.obj
 0002:00009768       ??_C@_0L@BPFBIPIP@RSA?9SHA224@ 000000000005e488     OpensslLib:obj_dat.obj
 0002:00009778       ??_C@_0BI@HODNLFBE@sha224WithRSAEncryption@ 000000000005e498     OpensslLib:obj_dat.obj
 0002:00009790       ??_C@_06HKIKMHH@SHA256@    000000000005e4b0     OpensslLib:obj_dat.obj
 0002:00009798       ??_C@_06OHILPNJ@sha256@    000000000005e4b8     OpensslLib:obj_dat.obj
 0002:000097a0       ??_C@_06IFPKDKMD@SHA384@   000000000005e4c0     OpensslLib:obj_dat.obj
 0002:000097a8       ??_C@_06IMCKCJGN@sha384@   000000000005e4c8     OpensslLib:obj_dat.obj
 0002:000097b0       ??_C@_06PJBKPJBG@SHA512@   000000000005e4d0     OpensslLib:obj_dat.obj
 0002:000097b8       ??_C@_06PAMKOKLI@sha512@   000000000005e4d8     OpensslLib:obj_dat.obj
 0002:000097c0       ??_C@_06DANBNIHA@SHA224@   000000000005e4e0     OpensslLib:obj_dat.obj
 0002:000097c8       ??_C@_06DJABMLNO@sha224@   000000000005e4e8     OpensslLib:obj_dat.obj
 0002:000097d0       ??_C@_0BI@NDBFOMIA@identified?9organization@ 000000000005e4f0     OpensslLib:obj_dat.obj
 0002:000097e8       ??_C@_0N@GOPBJFID@certicom?9arc@ 000000000005e508     OpensslLib:obj_dat.obj
 0002:000097f8       ??_C@_03EOHJGACH@wap@      000000000005e518     OpensslLib:obj_dat.obj
 0002:00009800       ??_C@_07KJBJKKHG@wap?9wsg@ 000000000005e520     OpensslLib:obj_dat.obj
 0002:00009808       ??_C@_0BM@PPOCDOAJ@id?9characteristic?9two?9basis@ 000000000005e528     OpensslLib:obj_dat.obj
 0002:00009828       ??_C@_07JEMDIFEL@onBasis@  000000000005e548     OpensslLib:obj_dat.obj
 0002:00009830       ??_C@_07ICPDEPKF@tpBasis@  000000000005e550     OpensslLib:obj_dat.obj
 0002:00009838       ??_C@_07GLJEBFP@ppBasis@   000000000005e558     OpensslLib:obj_dat.obj
 0002:00009840       ??_C@_0L@INFLBNIO@c2pnb163v1@ 000000000005e560     OpensslLib:obj_dat.obj
 0002:00009850       ??_C@_0L@KGHGEOEN@c2pnb163v2@ 000000000005e570     OpensslLib:obj_dat.obj
 0002:00009860       ??_C@_0L@LPGNHPAM@c2pnb163v3@ 000000000005e580     OpensslLib:obj_dat.obj
 0002:00009870       ??_C@_0L@IHOFMEAM@c2pnb176v1@ 000000000005e590     OpensslLib:obj_dat.obj
 0002:00009880       ??_C@_0L@PIOOBDNI@c2tnb191v1@ 000000000005e5a0     OpensslLib:obj_dat.obj
 0002:00009890       ??_C@_0L@NDMDEABL@c2tnb191v2@ 000000000005e5b0     OpensslLib:obj_dat.obj
 0002:000098a0       ??_C@_0L@MKNIHBFK@c2tnb191v3@ 000000000005e5c0     OpensslLib:obj_dat.obj
 0002:000098b0       ??_C@_0L@KLAMDLDB@c2onb191v4@ 000000000005e5d0     OpensslLib:obj_dat.obj
 0002:000098c0       ??_C@_0L@LCBHAKHA@c2onb191v5@ 000000000005e5e0     OpensslLib:obj_dat.obj
 0002:000098d0       ??_C@_0L@FCEMHHLG@c2pnb208w1@ 000000000005e5f0     OpensslLib:obj_dat.obj
 0002:000098e0       ??_C@_0L@PBHOFBDI@c2tnb239v1@ 000000000005e600     OpensslLib:obj_dat.obj
 0002:000098f0       ??_C@_0L@NKFDACPL@c2tnb239v2@ 000000000005e610     OpensslLib:obj_dat.obj
 0002:00009900       ??_C@_0L@MDEIDDLK@c2tnb239v3@ 000000000005e620     OpensslLib:obj_dat.obj
 0002:00009910       ??_C@_0L@KCJMHJNB@c2onb239v4@ 000000000005e630     OpensslLib:obj_dat.obj
 0002:00009920       ??_C@_0L@LLIHEIJA@c2onb239v5@ 000000000005e640     OpensslLib:obj_dat.obj
 0002:00009930       ??_C@_0L@IPNBELMC@c2pnb272w1@ 000000000005e650     OpensslLib:obj_dat.obj
 0002:00009940       ??_C@_0L@NDMGBLKL@c2pnb304w1@ 000000000005e660     OpensslLib:obj_dat.obj
 0002:00009950       ??_C@_0L@LFGCHHDN@c2tnb359v1@ 000000000005e670     OpensslLib:obj_dat.obj
 0002:00009960       ??_C@_0L@BGFAFBLD@c2pnb368w1@ 000000000005e680     OpensslLib:obj_dat.obj
 0002:00009970       ??_C@_0L@OFJKDCBG@c2tnb431r1@ 000000000005e690     OpensslLib:obj_dat.obj
 0002:00009980       ??_C@_09DNJONEBC@secp112r1@ 000000000005e6a0     OpensslLib:obj_dat.obj
 0002:00009990       ??_C@_09BGLDIHNB@secp112r2@ 000000000005e6b0     OpensslLib:obj_dat.obj
 0002:000099a0       ??_C@_09BFIDEOKG@secp128r1@ 000000000005e6c0     OpensslLib:obj_dat.obj
 0002:000099b0       ??_C@_09DOKOBNGF@secp128r2@ 000000000005e6d0     OpensslLib:obj_dat.obj
 0002:000099c0       ??_C@_09DGEAFIHG@secp160k1@ 000000000005e6e0     OpensslLib:obj_dat.obj
 0002:000099d0       ??_C@_09CFLHMAIJ@secp160r1@ 000000000005e6f0     OpensslLib:obj_dat.obj
 0002:000099e0       ??_C@_09OJKJDEK@secp160r2@ 000000000005e700     OpensslLib:obj_dat.obj
 0002:000099f0       ??_C@_09BOBJAHCM@secp192k1@ 000000000005e710     OpensslLib:obj_dat.obj
 0002:00009a00       ??_C@_09MKDGBLEP@secp224k1@ 000000000005e720     OpensslLib:obj_dat.obj
 0002:00009a10       ??_C@_09NJMBIDLA@secp224r1@ 000000000005e730     OpensslLib:obj_dat.obj
 0002:00009a20       ??_C@_09NCBPAPNE@secp256k1@ 000000000005e740     OpensslLib:obj_dat.obj
 0002:00009a30       ??_C@_09FICNEILE@secp384r1@ 000000000005e750     OpensslLib:obj_dat.obj
 0002:00009a40       ??_C@_09PDBKEDDK@secp521r1@ 000000000005e760     OpensslLib:obj_dat.obj
 0002:00009a50       ??_C@_09HBGNJHGE@sect113r1@ 000000000005e770     OpensslLib:obj_dat.obj
 0002:00009a60       ??_C@_09FKEAMEKH@sect113r2@ 000000000005e780     OpensslLib:obj_dat.obj
 0002:00009a70       ??_C@_09KBKEAMIP@sect131r1@ 000000000005e790     OpensslLib:obj_dat.obj
 0002:00009a80       ??_C@_09IKIJFPEM@sect131r2@ 000000000005e7a0     OpensslLib:obj_dat.obj
 0002:00009a90       ??_C@_09NALKNDIL@sect163k1@ 000000000005e7b0     OpensslLib:obj_dat.obj
 0002:00009aa0       ??_C@_09MDENELHE@sect163r1@ 000000000005e7c0     OpensslLib:obj_dat.obj
 0002:00009ab0       ??_C@_09OIGABILH@sect163r2@ 000000000005e7d0     OpensslLib:obj_dat.obj
 0002:00009ac0       ??_C@_09EBBNNMKF@sect193r1@ 000000000005e7e0     OpensslLib:obj_dat.obj
 0002:00009ad0       ??_C@_09GKDAIPGG@sect193r2@ 000000000005e7f0     OpensslLib:obj_dat.obj
 0002:00009ae0       ??_C@_09JOMOCOFF@sect233k1@ 000000000005e800     OpensslLib:obj_dat.obj
 0002:00009af0       ??_C@_09INDJLGKK@sect233r1@ 000000000005e810     OpensslLib:obj_dat.obj
 0002:00009b00       ??_C@_09PBHDMODB@sect239k1@ 000000000005e820     OpensslLib:obj_dat.obj
 0002:00009b10       ??_C@_09OJBOBPEE@sect283k1@ 000000000005e830     OpensslLib:obj_dat.obj
 0002:00009b20       ??_C@_09PKOJIHLL@sect283r1@ 000000000005e840     OpensslLib:obj_dat.obj
 0002:00009b30       ??_C@_09GAIKFHPM@sect409k1@ 000000000005e850     OpensslLib:obj_dat.obj
 0002:00009b40       ??_C@_09HDHNMPAD@sect409r1@ 000000000005e860     OpensslLib:obj_dat.obj
 0002:00009b50       ??_C@_09NMECHAKG@sect571k1@ 000000000005e870     OpensslLib:obj_dat.obj
 0002:00009b60       ??_C@_09MPLFOIFJ@sect571r1@ 000000000005e880     OpensslLib:obj_dat.obj
 0002:00009b70       ??_C@_0BH@PEHFMMHF@wap?9wsg?9idm?9ecid?9wtls1@ 000000000005e890     OpensslLib:obj_dat.obj
 0002:00009b88       ??_C@_0BH@MGEDKOPH@wap?9wsg?9idm?9ecid?9wtls3@ 000000000005e8a8     OpensslLib:obj_dat.obj
 0002:00009ba0       ??_C@_0BH@IJACDIDA@wap?9wsg?9idm?9ecid?9wtls4@ 000000000005e8c0     OpensslLib:obj_dat.obj
 0002:00009bb8       ??_C@_0BH@JABJAJHB@wap?9wsg?9idm?9ecid?9wtls5@ 000000000005e8d8     OpensslLib:obj_dat.obj
 0002:00009bd0       ??_C@_0BH@LLDEFKLC@wap?9wsg?9idm?9ecid?9wtls6@ 000000000005e8f0     OpensslLib:obj_dat.obj
 0002:00009be8       ??_C@_0BH@KCCPGLPD@wap?9wsg?9idm?9ecid?9wtls7@ 000000000005e908     OpensslLib:obj_dat.obj
 0002:00009c00       ??_C@_0BH@CFLHHHDM@wap?9wsg?9idm?9ecid?9wtls8@ 000000000005e920     OpensslLib:obj_dat.obj
 0002:00009c18       ??_C@_0BH@DMKMEGHN@wap?9wsg?9idm?9ecid?9wtls9@ 000000000005e938     OpensslLib:obj_dat.obj
 0002:00009c30       ??_C@_0BI@PPNNMGIM@wap?9wsg?9idm?9ecid?9wtls10@ 000000000005e950     OpensslLib:obj_dat.obj
 0002:00009c48       ??_C@_0BI@OGMGPHMN@wap?9wsg?9idm?9ecid?9wtls11@ 000000000005e968     OpensslLib:obj_dat.obj
 0002:00009c60       ??_C@_0BI@MNOLKEAO@wap?9wsg?9idm?9ecid?9wtls12@ 000000000005e980     OpensslLib:obj_dat.obj
 0002:00009c78       ??_C@_09HBBJOJHB@anyPolicy@ 000000000005e998     OpensslLib:obj_dat.obj
 0002:00009c88       ??_C@_0BC@CEEMIAHF@X509v3?5Any?5Policy@ 000000000005e9a8     OpensslLib:obj_dat.obj
 0002:00009ca0       ??_C@_0P@MEGGINDP@policyMappings@ 000000000005e9c0     OpensslLib:obj_dat.obj
 0002:00009cb0       ??_C@_0BH@NJBPACCN@X509v3?5Policy?5Mappings@ 000000000005e9d0     OpensslLib:obj_dat.obj
 0002:00009cc8       ??_C@_0BB@CFCCDKGF@inhibitAnyPolicy@ 000000000005e9e8     OpensslLib:obj_dat.obj
 0002:00009ce0       ??_C@_0BK@FPAAFIAO@X509v3?5Inhibit?5Any?5Policy@ 000000000005ea00     OpensslLib:obj_dat.obj
 0002:00009d00       ??_C@_0O@BLJEJBFH@Oakley?9EC2N?93@ 000000000005ea20     OpensslLib:obj_dat.obj
 0002:00009d10       ??_C@_06HLOPKJBB@ipsec3@   000000000005ea30     OpensslLib:obj_dat.obj
 0002:00009d18       ??_C@_0O@FENFAHJA@Oakley?9EC2N?94@ 000000000005ea38     OpensslLib:obj_dat.obj
 0002:00009d28       ??_C@_06DEKODPNG@ipsec4@   000000000005ea48     OpensslLib:obj_dat.obj
 0002:00009d30       ??_C@_0BB@HAKAAAMD@CAMELLIA?9128?9CBC@ 000000000005ea50     OpensslLib:obj_dat.obj
 0002:00009d48       ??_C@_0BB@GDOINOHE@camellia?9128?9cbc@ 000000000005ea68     OpensslLib:obj_dat.obj
 0002:00009d60       ??_C@_0BB@NDDMHHFP@CAMELLIA?9192?9CBC@ 000000000005ea80     OpensslLib:obj_dat.obj
 0002:00009d78       ??_C@_0BB@MAHEKJOI@camellia?9192?9cbc@ 000000000005ea98     OpensslLib:obj_dat.obj
 0002:00009d90       ??_C@_0BB@BICFINO@CAMELLIA?9256?9CBC@ 000000000005eab0     OpensslLib:obj_dat.obj
 0002:00009da8       ??_C@_0BB@BCMKIGGJ@camellia?9256?9cbc@ 000000000005eac8     OpensslLib:obj_dat.obj
 0002:00009dc0       ??_C@_0BB@ENBCAEGJ@CAMELLIA?9128?9ECB@ 000000000005eae0     OpensslLib:obj_dat.obj
 0002:00009dd8       ??_C@_0BB@FOFKNKNO@camellia?9128?9ecb@ 000000000005eaf8     OpensslLib:obj_dat.obj
 0002:00009df0       ??_C@_0BB@OOIOHDPF@CAMELLIA?9192?9ECB@ 000000000005eb10     OpensslLib:obj_dat.obj
 0002:00009e08       ??_C@_0BB@PNMGKNEC@camellia?9192?9ecb@ 000000000005eb28     OpensslLib:obj_dat.obj
 0002:00009e20       ??_C@_0BB@DMDAFMHE@CAMELLIA?9256?9ECB@ 000000000005eb40     OpensslLib:obj_dat.obj
 0002:00009e38       ??_C@_0BB@CPHIICMD@camellia?9256?9ecb@ 000000000005eb58     OpensslLib:obj_dat.obj
 0002:00009e50       ??_C@_0BB@GOLCJJFO@CAMELLIA?9128?9CFB@ 000000000005eb70     OpensslLib:obj_dat.obj
 0002:00009e68       ??_C@_0BB@HNPKEHOJ@camellia?9128?9cfb@ 000000000005eb88     OpensslLib:obj_dat.obj
 0002:00009e80       ??_C@_0BB@MNCOOOMC@CAMELLIA?9192?9CFB@ 000000000005eba0     OpensslLib:obj_dat.obj
 0002:00009e98       ??_C@_0BB@NOGGDAHF@camellia?9192?9cfb@ 000000000005ebb8     OpensslLib:obj_dat.obj
 0002:00009eb0       ??_C@_0BB@BPJAMBED@CAMELLIA?9256?9CFB@ 000000000005ebd0     OpensslLib:obj_dat.obj
 0002:00009ec8       ??_C@_0BB@MNIBPPE@camellia?9256?9cfb@ 000000000005ebe8     OpensslLib:obj_dat.obj
 0002:00009ee0       ??_C@_0BC@EKOAMJNI@CAMELLIA?9128?9CFB1@ 000000000005ec00     OpensslLib:obj_dat.obj
 0002:00009ef8       ??_C@_0BC@BPPGKHCJ@camellia?9128?9cfb1@ 000000000005ec18     OpensslLib:obj_dat.obj
 0002:00009f10       ??_C@_0BC@LDPKIKMA@CAMELLIA?9192?9CFB1@ 000000000005ec30     OpensslLib:obj_dat.obj
 0002:00009f28       ??_C@_0BC@OGOMOEDB@camellia?9192?9cfb1@ 000000000005ec48     OpensslLib:obj_dat.obj
 0002:00009f40       ??_C@_0BC@CJJHIHFJ@CAMELLIA?9256?9CFB1@ 000000000005ec60     OpensslLib:obj_dat.obj
 0002:00009f58       ??_C@_0BC@HMIBOJKI@camellia?9256?9cfb1@ 000000000005ec78     OpensslLib:obj_dat.obj
 0002:00009f70       ??_C@_0BC@JLCCHCJB@CAMELLIA?9128?9CFB8@ 000000000005ec90     OpensslLib:obj_dat.obj
 0002:00009f88       ??_C@_0BC@MODEBMGA@camellia?9128?9cfb8@ 000000000005eca8     OpensslLib:obj_dat.obj
 0002:00009fa0       ??_C@_0BC@GCDIDBIJ@CAMELLIA?9192?9CFB8@ 000000000005ecc0     OpensslLib:obj_dat.obj
 0002:00009fb8       ??_C@_0BC@DHCOFPHI@camellia?9192?9cfb8@ 000000000005ecd8     OpensslLib:obj_dat.obj
 0002:00009fd0       ??_C@_0BC@PIFFDMBA@CAMELLIA?9256?9CFB8@ 000000000005ecf0     OpensslLib:obj_dat.obj
 0002:00009fe8       ??_C@_0BC@KNEDFCOB@camellia?9256?9cfb8@ 000000000005ed08     OpensslLib:obj_dat.obj
 0002:0000a000       ??_C@_0BB@CEGECGOG@CAMELLIA?9128?9OFB@ 000000000005ed20     OpensslLib:obj_dat.obj
 0002:0000a018       ??_C@_0BB@DHCMPIFB@camellia?9128?9ofb@ 000000000005ed38     OpensslLib:obj_dat.obj
 0002:0000a030       ??_C@_0BB@IHPIFBHK@CAMELLIA?9192?9OFB@ 000000000005ed50     OpensslLib:obj_dat.obj
 0002:0000a048       ??_C@_0BB@JELAIPMN@camellia?9192?9ofb@ 000000000005ed68     OpensslLib:obj_dat.obj
 0002:0000a060       ??_C@_0BB@FFEGHOPL@CAMELLIA?9256?9OFB@ 000000000005ed80     OpensslLib:obj_dat.obj
 0002:0000a078       ??_C@_0BB@EGAOKAEM@camellia?9256?9ofb@ 000000000005ed98     OpensslLib:obj_dat.obj
 0002:0000a090       ??_C@_0BL@GAJEKNCJ@subjectDirectoryAttributes@ 000000000005edb0     OpensslLib:obj_dat.obj
 0002:0000a0b0       ??_C@_0CE@OGGDDHCK@X509v3?5Subject?5Directory?5Attrib@ 000000000005edd0     OpensslLib:obj_dat.obj
 0002:0000a0d8       ??_C@_0BJ@OAOPOBMH@issuingDistributionPoint@ 000000000005edf8     OpensslLib:obj_dat.obj
 0002:0000a0f8       ??_C@_0CC@IAMHILJN@X509v3?5Issuing?5Distribution?5Poi@ 000000000005ee18     OpensslLib:obj_dat.obj
 0002:0000a120       ??_C@_0BC@NAJGKAHO@certificateIssuer@ 000000000005ee40     OpensslLib:obj_dat.obj
 0002:0000a138       ??_C@_0BK@EMNEMCDI@X509v3?5Certificate?5Issuer@ 000000000005ee58     OpensslLib:obj_dat.obj
 0002:0000a154       ??_C@_04HHHKJIKA@KISA@     000000000005ee74     OpensslLib:obj_dat.obj
 0002:0000a15c       ??_C@_04LLEAHKNI@kisa@     000000000005ee7c     OpensslLib:obj_dat.obj
 0002:0000a168       ??_C@_08JEKGBFGL@SEED?9ECB@ 000000000005ee88     OpensslLib:obj_dat.obj
 0002:0000a178       ??_C@_08CKMLAEEI@seed?9ecb@ 000000000005ee98     OpensslLib:obj_dat.obj
 0002:0000a188       ??_C@_08KJBEBBMB@SEED?9CBC@ 000000000005eea8     OpensslLib:obj_dat.obj
 0002:0000a198       ??_C@_08BHHJAAOC@seed?9cbc@ 000000000005eeb8     OpensslLib:obj_dat.obj
 0002:0000a1a8       ??_C@_08PNNADHOE@SEED?9OFB@ 000000000005eec8     OpensslLib:obj_dat.obj
 0002:0000a1b8       ??_C@_08EDLNCGMH@seed?9ofb@ 000000000005eed8     OpensslLib:obj_dat.obj
 0002:0000a1c8       ??_C@_08LHAGIIFM@SEED?9CFB@ 000000000005eee8     OpensslLib:obj_dat.obj
 0002:0000a1d8       ??_C@_08JGLJJHP@seed?9cfb@ 000000000005eef8     OpensslLib:obj_dat.obj
 0002:0000a1e8       ??_C@_08CABJBHIC@HMAC?9MD5@ 000000000005ef08     OpensslLib:obj_dat.obj
 0002:0000a1f8       ??_C@_08LPACCAD@hmac?9md5@ 000000000005ef18     OpensslLib:obj_dat.obj
 0002:0000a208       ??_C@_09DDFKKHO@HMAC?9SHA1@ 000000000005ef28     OpensslLib:obj_dat.obj
 0002:0000a218       ??_C@_09KBOMLGBN@hmac?9sha1@ 000000000005ef38     OpensslLib:obj_dat.obj
 0002:0000a228       ??_C@_0BE@HCNFOMHA@id?9PasswordBasedMAC@ 000000000005ef48     OpensslLib:obj_dat.obj
 0002:0000a240       ??_C@_0BD@FANJCJAP@password?5based?5MAC@ 000000000005ef60     OpensslLib:obj_dat.obj
 0002:0000a258       ??_C@_0O@MEHCKGFD@id?9DHBasedMac@ 000000000005ef78     OpensslLib:obj_dat.obj
 0002:0000a268       ??_C@_0BJ@CDGIGDFG@Diffie?9Hellman?5based?5MAC@ 000000000005ef88     OpensslLib:obj_dat.obj
 0002:0000a288       ??_C@_0BD@MGCOMIO@id?9it?9suppLangTags@ 000000000005efa8     OpensslLib:obj_dat.obj
 0002:0000a2a0       ??_C@_0N@CKNFLOGG@caRepository@ 000000000005efc0     OpensslLib:obj_dat.obj
 0002:0000a2b0       ??_C@_0O@LBCGFGCI@CA?5Repository@ 000000000005efd0     OpensslLib:obj_dat.obj
 0002:0000a2c0       ??_C@_0BL@HEJKLKLL@id?9smime?9ct?9compressedData@ 000000000005efe0     OpensslLib:obj_dat.obj
 0002:0000a2e0       ??_C@_0BI@FNBGJEPL@id?9ct?9asciiTextWithCRLF@ 000000000005f000     OpensslLib:obj_dat.obj
 0002:0000a2f8       ??_C@_0P@MALLFAMO@id?9aes128?9wrap@ 000000000005f018     OpensslLib:obj_dat.obj
 0002:0000a308       ??_C@_0P@DJKBBDNG@id?9aes192?9wrap@ 000000000005f028     OpensslLib:obj_dat.obj
 0002:0000a318       ??_C@_0P@KDMMBOEP@id?9aes256?9wrap@ 000000000005f038     OpensslLib:obj_dat.obj
 0002:0000a328       ??_C@_0BH@GCJALNKM@ecdsa?9with?9Recommended@ 000000000005f048     OpensslLib:obj_dat.obj
 0002:0000a340       ??_C@_0BF@INFCLNHO@ecdsa?9with?9Specified@ 000000000005f060     OpensslLib:obj_dat.obj
 0002:0000a358       ??_C@_0BC@PHBIOIGA@ecdsa?9with?9SHA224@ 000000000005f078     OpensslLib:obj_dat.obj
 0002:0000a370       ??_C@_0BC@MAGBJMGH@ecdsa?9with?9SHA256@ 000000000005f090     OpensslLib:obj_dat.obj
 0002:0000a388       ??_C@_0BC@ECDDAKND@ecdsa?9with?9SHA384@ 000000000005f0a8     OpensslLib:obj_dat.obj
 0002:0000a3a0       ??_C@_0BC@DONDMJAG@ecdsa?9with?9SHA512@ 000000000005f0c0     OpensslLib:obj_dat.obj
 0002:0000a3b8       ??_C@_0M@KOBPMNIO@hmacWithMD5@ 000000000005f0d8     OpensslLib:obj_dat.obj
 0002:0000a3c8       ??_C@_0P@JCGBABBG@hmacWithSHA224@ 000000000005f0e8     OpensslLib:obj_dat.obj
 0002:0000a3d8       ??_C@_0P@KFBIHFBB@hmacWithSHA256@ 000000000005f0f8     OpensslLib:obj_dat.obj
 0002:0000a3e8       ??_C@_0P@CHEKODKF@hmacWithSHA384@ 000000000005f108     OpensslLib:obj_dat.obj
 0002:0000a3f8       ??_C@_0P@FLKKCAHA@hmacWithSHA512@ 000000000005f118     OpensslLib:obj_dat.obj
 0002:0000a408       ??_C@_0BA@GLCLJGGH@dsa_with_SHA224@ 000000000005f128     OpensslLib:obj_dat.obj
 0002:0000a418       ??_C@_0BA@FMFCOCGA@dsa_with_SHA256@ 000000000005f138     OpensslLib:obj_dat.obj
 0002:0000a428       ??_C@_09DEGKDAEL@whirlpool@ 000000000005f148     OpensslLib:obj_dat.obj
 0002:0000a438       ??_C@_09PCHJFNLI@cryptopro@ 000000000005f158     OpensslLib:obj_dat.obj
 0002:0000a448       ??_C@_09JGBNPHGI@cryptocom@ 000000000005f168     OpensslLib:obj_dat.obj
 0002:0000a458       ??_C@_0CE@FCAOBIOC@id?9GostR3411?994?9with?9GostR3410?9@ 000000000005f178     OpensslLib:obj_dat.obj
 0002:0000a480       ??_C@_0CH@MPKKPBGC@GOST?5R?534?411?994?5with?5GOST?5R?534?4@ 000000000005f1a0     OpensslLib:obj_dat.obj
 0002:0000a4a8       ??_C@_0CC@LCAPGDKC@id?9GostR3411?994?9with?9GostR3410?9@ 000000000005f1c8     OpensslLib:obj_dat.obj
 0002:0000a4d0       ??_C@_0CF@PAGBHGOC@GOST?5R?534?411?994?5with?5GOST?5R?534?4@ 000000000005f1f0     OpensslLib:obj_dat.obj
 0002:0000a4f8       ??_C@_09MIOJGGFD@md_gost94@ 000000000005f218     OpensslLib:obj_dat.obj
 0002:0000a508       ??_C@_0BA@KDEBPBMN@GOST?5R?534?411?994@ 000000000005f228     OpensslLib:obj_dat.obj
 0002:0000a518       ??_C@_0BE@EBBOKDGI@id?9HMACGostR3411?994@ 000000000005f238     OpensslLib:obj_dat.obj
 0002:0000a530       ??_C@_0BD@BHKLGKNG@HMAC?5GOST?534?411?994@ 000000000005f250     OpensslLib:obj_dat.obj
 0002:0000a548       ??_C@_08KMPAMBCP@gost2001@ 000000000005f268     OpensslLib:obj_dat.obj
 0002:0000a558       ??_C@_0BC@IBNIHBI@GOST?5R?534?410?92001@ 000000000005f278     OpensslLib:obj_dat.obj
 0002:0000a56c       ??_C@_06BPJPGPFJ@gost94@   000000000005f28c     OpensslLib:obj_dat.obj
 0002:0000a578       ??_C@_0BA@JOCBNIHN@GOST?5R?534?410?994@ 000000000005f298     OpensslLib:obj_dat.obj
 0002:0000a588       ??_C@_06KLPDHLCD@gost89@   000000000005f2a8     OpensslLib:obj_dat.obj
 0002:0000a590       ??_C@_0O@POKHNLDL@GOST?528147?989@ 000000000005f2b0     OpensslLib:obj_dat.obj
 0002:0000a5a0       ??_C@_0L@INGOKGPP@gost89?9cnt@ 000000000005f2c0     OpensslLib:obj_dat.obj
 0002:0000a5b0       ??_C@_08JCNEGNFC@gost?9mac@ 000000000005f2d0     OpensslLib:obj_dat.obj
 0002:0000a5c0       ??_C@_0BC@BPAGAEJB@GOST?528147?989?5MAC@ 000000000005f2e0     OpensslLib:obj_dat.obj
 0002:0000a5d8       ??_C@_0BB@LJIINAAP@prf?9gostr3411?994@ 000000000005f2f8     OpensslLib:obj_dat.obj
 0002:0000a5f0       ??_C@_0BE@FFELJBNB@GOST?5R?534?411?994?5PRF@ 000000000005f310     OpensslLib:obj_dat.obj
 0002:0000a608       ??_C@_0BE@OBKEJCJB@id?9GostR3410?92001DH@ 000000000005f328     OpensslLib:obj_dat.obj
 0002:0000a620       ??_C@_0BF@OKPANPLK@GOST?5R?534?410?92001?5DH@ 000000000005f340     OpensslLib:obj_dat.obj
 0002:0000a638       ??_C@_0BC@CEMDDFNK@id?9GostR3410?994DH@ 000000000005f358     OpensslLib:obj_dat.obj
 0002:0000a650       ??_C@_0BD@LGKAOLPL@GOST?5R?534?410?994?5DH@ 000000000005f370     OpensslLib:obj_dat.obj
 0002:0000a668       ??_C@_0CF@MMKONEIK@id?9Gost28147?989?9CryptoPro?9KeyMe@ 000000000005f388     OpensslLib:obj_dat.obj
 0002:0000a690       ??_C@_0CA@BLJAEGEG@id?9Gost28147?989?9None?9KeyMeshing@ 000000000005f3b0     OpensslLib:obj_dat.obj
 0002:0000a6b0       ??_C@_0BN@DPLCCDOE@id?9GostR3411?994?9TestParamSet@ 000000000005f3d0     OpensslLib:obj_dat.obj
 0002:0000a6d0       ??_C@_0CC@DOHJLMBI@id?9GostR3411?994?9CryptoProParamS@ 000000000005f3f0     OpensslLib:obj_dat.obj
 0002:0000a6f8       ??_C@_0BN@GKJFBLMI@id?9Gost28147?989?9TestParamSet@ 000000000005f418     OpensslLib:obj_dat.obj
 0002:0000a718       ??_C@_0CF@PFEMLAKN@id?9Gost28147?989?9CryptoPro?9A?9Par@ 000000000005f438     OpensslLib:obj_dat.obj
 0002:0000a740       ??_C@_0CF@GMKONGKM@id?9Gost28147?989?9CryptoPro?9B?9Par@ 000000000005f460     OpensslLib:obj_dat.obj
 0002:0000a768       ??_C@_0CF@KNCAAJGM@id?9Gost28147?989?9CryptoPro?9C?9Par@ 000000000005f488     OpensslLib:obj_dat.obj
 0002:0000a790       ??_C@_0CF@IEBLBMOP@id?9Gost28147?989?9CryptoPro?9D?9Par@ 000000000005f4b0     OpensslLib:obj_dat.obj
 0002:0000a7b8       ??_C@_0CN@EJBNJDBM@id?9Gost28147?989?9CryptoPro?9Oscar@ 000000000005f4d8     OpensslLib:obj_dat.obj
 0002:0000a7e8       ??_C@_0CN@IIJDEMNM@id?9Gost28147?989?9CryptoPro?9Oscar@ 000000000005f508     OpensslLib:obj_dat.obj
 0002:0000a818       ??_C@_0CJ@IIADIAJH@id?9Gost28147?989?9CryptoPro?9RIC?91@ 000000000005f538     OpensslLib:obj_dat.obj
 0002:0000a848       ??_C@_0BN@NAOAJFAF@id?9GostR3410?994?9TestParamSet@ 000000000005f568     OpensslLib:obj_dat.obj
 0002:0000a868       ??_C@_0CF@MNFOPPCD@id?9GostR3410?994?9CryptoPro?9A?9Par@ 000000000005f588     OpensslLib:obj_dat.obj
 0002:0000a890       ??_C@_0CF@FELMJJCC@id?9GostR3410?994?9CryptoPro?9B?9Par@ 000000000005f5b0     OpensslLib:obj_dat.obj
 0002:0000a8b8       ??_C@_0CF@JFDCEGOC@id?9GostR3410?994?9CryptoPro?9C?9Par@ 000000000005f5d8     OpensslLib:obj_dat.obj
 0002:0000a8e0       ??_C@_0CF@LMAJFDGB@id?9GostR3410?994?9CryptoPro?9D?9Par@ 000000000005f600     OpensslLib:obj_dat.obj
 0002:0000a908       ??_C@_0CI@FLGMGEEM@id?9GostR3410?994?9CryptoPro?9XchA?9@ 000000000005f628     OpensslLib:obj_dat.obj
 0002:0000a930       ??_C@_0CI@MCIOACEN@id?9GostR3410?994?9CryptoPro?9XchB?9@ 000000000005f650     OpensslLib:obj_dat.obj
 0002:0000a958       ??_C@_0CI@DAANNIN@id?9GostR3410?994?9CryptoPro?9XchC?9@ 000000000005f678     OpensslLib:obj_dat.obj
 0002:0000a980       ??_C@_0BP@GEEJLPDI@id?9GostR3410?92001?9TestParamSet@ 000000000005f6a0     OpensslLib:obj_dat.obj
 0002:0000a9a0       ??_C@_0CH@GDAPDBKP@id?9GostR3410?92001?9CryptoPro?9A?9P@ 000000000005f6c0     OpensslLib:obj_dat.obj
 0002:0000a9c8       ??_C@_0CH@PKONFHKO@id?9GostR3410?92001?9CryptoPro?9B?9P@ 000000000005f6e8     OpensslLib:obj_dat.obj
 0002:0000a9f0       ??_C@_0CH@DLGDIIGO@id?9GostR3410?92001?9CryptoPro?9C?9P@ 000000000005f710     OpensslLib:obj_dat.obj
 0002:0000aa18       ??_C@_0CK@PKFGBNKE@id?9GostR3410?92001?9CryptoPro?9Xch@ 000000000005f738     OpensslLib:obj_dat.obj
 0002:0000aa48       ??_C@_0CK@GDLEHLKF@id?9GostR3410?92001?9CryptoPro?9Xch@ 000000000005f768     OpensslLib:obj_dat.obj
 0002:0000aa78       ??_C@_0BC@CHIDFKJO@id?9GostR3410?994?9a@ 000000000005f798     OpensslLib:obj_dat.obj
 0002:0000aa90       ??_C@_0BF@LBGBLILF@id?9GostR3410?994?9aBis@ 000000000005f7b0     OpensslLib:obj_dat.obj
 0002:0000aaa8       ??_C@_0BC@MKOAJFN@id?9GostR3410?994?9b@ 000000000005f7c8     OpensslLib:obj_dat.obj
 0002:0000aac0       ??_C@_0BF@PGMBMCGF@id?9GostR3410?994?9bBis@ 000000000005f7e0     OpensslLib:obj_dat.obj
 0002:0000aad8       ??_C@_0BD@MEAAKKFJ@id?9Gost28147?989?9cc@ 000000000005f7f8     OpensslLib:obj_dat.obj
 0002:0000aaf0       ??_C@_0CB@KNOPDNHN@GOST?528147?989?5Cryptocom?5ParamSe@ 000000000005f810     OpensslLib:obj_dat.obj
 0002:0000ab18       ??_C@_08LCDFMIFG@gost94cc@ 000000000005f838     OpensslLib:obj_dat.obj
 0002:0000ab28       ??_C@_0BI@GJIILMEB@GOST?534?410?994?5Cryptocom@ 000000000005f848     OpensslLib:obj_dat.obj
 0002:0000ab40       ??_C@_0L@PKDOCLKG@gost2001cc@ 000000000005f860     OpensslLib:obj_dat.obj
 0002:0000ab50       ??_C@_0BK@IGCJADLM@GOST?534?410?92001?5Cryptocom@ 000000000005f870     OpensslLib:obj_dat.obj
 0002:0000ab70       ??_C@_0CF@FCIKJGLH@id?9GostR3411?994?9with?9GostR3410?9@ 000000000005f890     OpensslLib:obj_dat.obj
 0002:0000ab98       ??_C@_0CP@ILDIBBAJ@GOST?5R?534?411?994?5with?5GOST?5R?534?4@ 000000000005f8b8     OpensslLib:obj_dat.obj
 0002:0000abc8       ??_C@_0CH@JJNMILDM@id?9GostR3411?994?9with?9GostR3410?9@ 000000000005f8e8     OpensslLib:obj_dat.obj
 0002:0000abf0       ??_C@_0DB@BGOOPLFE@GOST?5R?534?411?994?5with?5GOST?5R?534?4@ 000000000005f910     OpensslLib:obj_dat.obj
 0002:0000ac28       ??_C@_0BO@LBPHKLOM@id?9GostR3410?92001?9ParamSet?9cc@ 000000000005f948     OpensslLib:obj_dat.obj
 0002:0000ac48       ??_C@_0CJ@NCCJHEBD@GOST?5R?53410?92001?5Parameter?5Set?5@ 000000000005f968     OpensslLib:obj_dat.obj
 0002:0000ac74       ??_C@_04JCCMGALL@HMAC@     000000000005f994     OpensslLib:obj_dat.obj
 0002:0000ac7c       ??_C@_04FOBGICMD@hmac@     000000000005f99c     OpensslLib:obj_dat.obj
 0002:0000ac88       ??_C@_0M@LCODBGNO@LocalKeySet@ 000000000005f9a8     OpensslLib:obj_dat.obj
 0002:0000ac98       ??_C@_0BI@FMFOLFMC@Microsoft?5Local?5Key?5set@ 000000000005f9b8     OpensslLib:obj_dat.obj
 0002:0000acb0       ??_C@_0M@PKNKMHEG@freshestCRL@ 000000000005f9d0     OpensslLib:obj_dat.obj
 0002:0000acc0       ??_C@_0BE@KEJIKEFG@X509v3?5Freshest?5CRL@ 000000000005f9e0     OpensslLib:obj_dat.obj
 0002:0000acd8       ??_C@_0BK@BMFCOPIC@id?9on?9permanentIdentifier@ 000000000005f9f8     OpensslLib:obj_dat.obj
 0002:0000acf8       ??_C@_0BF@DGGAJJCO@Permanent?5Identifier@ 000000000005fa18     OpensslLib:obj_dat.obj
 0002:0000ad10       ??_C@_0M@MCCFGANF@searchGuide@ 000000000005fa30     OpensslLib:obj_dat.obj
 0002:0000ad20       ??_C@_0BB@GFJJGHBI@businessCategory@ 000000000005fa40     OpensslLib:obj_dat.obj
 0002:0000ad38       ??_C@_0O@KABBPKPG@postalAddress@ 000000000005fa58     OpensslLib:obj_dat.obj
 0002:0000ad48       ??_C@_0O@PCCHCGPG@postOfficeBox@ 000000000005fa68     OpensslLib:obj_dat.obj
 0002:0000ad58       ??_C@_0BL@DENBGONK@physicalDeliveryOfficeName@ 000000000005fa78     OpensslLib:obj_dat.obj
 0002:0000ad78       ??_C@_0BA@NCAGJGBF@telephoneNumber@ 000000000005fa98     OpensslLib:obj_dat.obj
 0002:0000ad88       ??_C@_0M@MMDMBPMM@telexNumber@ 000000000005faa8     OpensslLib:obj_dat.obj
 0002:0000ad98       ??_C@_0BK@BBNEJJDC@teletexTerminalIdentifier@ 000000000005fab8     OpensslLib:obj_dat.obj
 0002:0000adb8       ??_C@_0BJ@NDMMBDAB@facsimileTelephoneNumber@ 000000000005fad8     OpensslLib:obj_dat.obj
 0002:0000add8       ??_C@_0M@MOCAHDLJ@x121Address@ 000000000005faf8     OpensslLib:obj_dat.obj
 0002:0000ade8       ??_C@_0BI@OAHCBLEE@internationaliSDNNumber@ 000000000005fb08     OpensslLib:obj_dat.obj
 0002:0000ae00       ??_C@_0BC@DLLOJDNE@registeredAddress@ 000000000005fb20     OpensslLib:obj_dat.obj
 0002:0000ae18       ??_C@_0BF@CMAFNEOO@destinationIndicator@ 000000000005fb38     OpensslLib:obj_dat.obj
 0002:0000ae30       ??_C@_0BI@MKMMOKIA@preferredDeliveryMethod@ 000000000005fb50     OpensslLib:obj_dat.obj
 0002:0000ae48       ??_C@_0BE@KHACCONJ@presentationAddress@ 000000000005fb68     OpensslLib:obj_dat.obj
 0002:0000ae60       ??_C@_0BM@NHJFOGBI@supportedApplicationContext@ 000000000005fb80     OpensslLib:obj_dat.obj
 0002:0000ae7c       ??_C@_06HDFDANIG@member@   000000000005fb9c     OpensslLib:obj_dat.obj
 0002:0000ae84       ??_C@_05HEIBENID@owner@    000000000005fba4     OpensslLib:obj_dat.obj
 0002:0000ae90       ??_C@_0N@NAEJMDPF@roleOccupant@ 000000000005fbb0     OpensslLib:obj_dat.obj
 0002:0000aea0       ??_C@_07JJAENDGN@seeAlso@  000000000005fbc0     OpensslLib:obj_dat.obj
 0002:0000aea8       ??_C@_0N@JHMNNHKM@userPassword@ 000000000005fbc8     OpensslLib:obj_dat.obj
 0002:0000aeb8       ??_C@_0BA@FEECIELF@userCertificate@ 000000000005fbd8     OpensslLib:obj_dat.obj
 0002:0000aec8       ??_C@_0O@JJCNKCKK@cACertificate@ 000000000005fbe8     OpensslLib:obj_dat.obj
 0002:0000aed8       ??_C@_0BI@EODAEBFG@authorityRevocationList@ 000000000005fbf8     OpensslLib:obj_dat.obj
 0002:0000aef0       ??_C@_0BK@IMFDMOND@certificateRevocationList@ 000000000005fc10     OpensslLib:obj_dat.obj
 0002:0000af10       ??_C@_0BF@GAAPBDAE@crossCertificatePair@ 000000000005fc30     OpensslLib:obj_dat.obj
 0002:0000af28       ??_C@_0BE@NNAGLFEM@enhancedSearchGuide@ 000000000005fc48     OpensslLib:obj_dat.obj
 0002:0000af40       ??_C@_0BE@FKAMNJMM@protocolInformation@ 000000000005fc60     OpensslLib:obj_dat.obj
 0002:0000af58       ??_C@_0BC@IIJOGNNH@distinguishedName@ 000000000005fc78     OpensslLib:obj_dat.obj
 0002:0000af70       ??_C@_0N@FIGDLDDJ@uniqueMember@ 000000000005fc90     OpensslLib:obj_dat.obj
 0002:0000af80       ??_C@_0BA@EKKIBBF@houseIdentifier@ 000000000005fca0     OpensslLib:obj_dat.obj
 0002:0000af90       ??_C@_0BE@KGOGIPEN@supportedAlgorithms@ 000000000005fcb0     OpensslLib:obj_dat.obj
 0002:0000afa8       ??_C@_0BE@MNOFELKF@deltaRevocationList@ 000000000005fcc8     OpensslLib:obj_dat.obj
 0002:0000afc0       ??_C@_07ILKEFPGB@dmdName@  000000000005fce0     OpensslLib:obj_dat.obj
 0002:0000afc8       ??_C@_0BA@NJOHMDIG@id?9alg?9PWRI?9KEK@ 000000000005fce8     OpensslLib:obj_dat.obj
 0002:0000afd8       ??_C@_04OFPMFBKK@CMAC@     000000000005fcf8     OpensslLib:obj_dat.obj
 0002:0000afe0       ??_C@_04CJMGLDNC@cmac@     000000000005fd00     OpensslLib:obj_dat.obj
 0002:0000afe8       ??_C@_0O@LNIKAOOL@id?9aes128?9GCM@ 000000000005fd08     OpensslLib:obj_dat.obj
 0002:0000aff8       ??_C@_0M@ODEOFOCG@aes?9128?9gcm@ 000000000005fd18     OpensslLib:obj_dat.obj
 0002:0000b008       ??_C@_0O@DCOIJJLM@id?9aes128?9CCM@ 000000000005fd28     OpensslLib:obj_dat.obj
 0002:0000b018       ??_C@_0M@GMCMMJHB@aes?9128?9ccm@ 000000000005fd38     OpensslLib:obj_dat.obj
 0002:0000b028       ??_C@_0BD@HMJBEGNL@id?9aes128?9wrap?9pad@ 000000000005fd48     OpensslLib:obj_dat.obj
 0002:0000b040       ??_C@_0O@BOBGHJHH@id?9aes192?9GCM@ 000000000005fd60     OpensslLib:obj_dat.obj
 0002:0000b050       ??_C@_0M@EANCCJLK@aes?9192?9gcm@ 000000000005fd70     OpensslLib:obj_dat.obj
 0002:0000b060       ??_C@_0O@JBHEOOCA@id?9aes192?9CCM@ 000000000005fd80     OpensslLib:obj_dat.obj
 0002:0000b070       ??_C@_0M@MPLALOON@aes?9192?9ccm@ 000000000005fd90     OpensslLib:obj_dat.obj
 0002:0000b080       ??_C@_0BD@OPKMLKFB@id?9aes192?9wrap?9pad@ 000000000005fda0     OpensslLib:obj_dat.obj
 0002:0000b098       ??_C@_0O@MMKIFGPG@id?9aes256?9GCM@ 000000000005fdb8     OpensslLib:obj_dat.obj
 0002:0000b0a8       ??_C@_0M@JCGMAGDL@aes?9256?9gcm@ 000000000005fdc8     OpensslLib:obj_dat.obj
 0002:0000b0b8       ??_C@_0O@EDMKMBKB@id?9aes256?9CCM@ 000000000005fdd8     OpensslLib:obj_dat.obj
 0002:0000b0c8       ??_C@_0M@BNAOJBGM@aes?9256?9ccm@ 000000000005fde8     OpensslLib:obj_dat.obj
 0002:0000b0d8       ??_C@_0BD@OHLFOIJM@id?9aes256?9wrap?9pad@ 000000000005fdf8     OpensslLib:obj_dat.obj
 0002:0000b0f0       ??_C@_0M@GEBEOIJJ@AES?9128?9CTR@ 000000000005fe10     OpensslLib:obj_dat.obj
 0002:0000b100       ??_C@_0M@LIBPHCBK@aes?9128?9ctr@ 000000000005fe20     OpensslLib:obj_dat.obj
 0002:0000b110       ??_C@_0M@MHIIJPAF@AES?9192?9CTR@ 000000000005fe30     OpensslLib:obj_dat.obj
 0002:0000b120       ??_C@_0M@BLIDAFIG@aes?9192?9ctr@ 000000000005fe40     OpensslLib:obj_dat.obj
 0002:0000b130       ??_C@_0M@BFDGLAIE@AES?9256?9CTR@ 000000000005fe50     OpensslLib:obj_dat.obj
 0002:0000b140       ??_C@_0M@MJDNCKAH@aes?9256?9ctr@ 000000000005fe60     OpensslLib:obj_dat.obj
 0002:0000b150       ??_C@_0BE@JENMCLBD@id?9camellia128?9wrap@ 000000000005fe70     OpensslLib:obj_dat.obj
 0002:0000b168       ??_C@_0BE@GNMGGIAL@id?9camellia192?9wrap@ 000000000005fe88     OpensslLib:obj_dat.obj
 0002:0000b180       ??_C@_0BE@PHKLGFJC@id?9camellia256?9wrap@ 000000000005fea0     OpensslLib:obj_dat.obj
 0002:0000b198       ??_C@_0BE@FKFLDMON@anyExtendedKeyUsage@ 000000000005feb8     OpensslLib:obj_dat.obj
 0002:0000b1b0       ??_C@_0BH@FHBOBBKO@Any?5Extended?5Key?5Usage@ 000000000005fed0     OpensslLib:obj_dat.obj
 0002:0000b1c8       ??_C@_04CNDHACFO@MGF1@     000000000005fee8     OpensslLib:obj_dat.obj
 0002:0000b1d0       ??_C@_04HEIJMEIE@mgf1@     000000000005fef0     OpensslLib:obj_dat.obj
 0002:0000b1d8       ??_C@_0L@CPMAKEFG@RSASSA?9PSS@ 000000000005fef8     OpensslLib:obj_dat.obj
 0002:0000b1e8       ??_C@_09FGGKIFKD@rsassaPss@ 000000000005ff08     OpensslLib:obj_dat.obj
 0002:0000b1f8       ??_C@_0M@PKBHAJEG@AES?9128?9XTS@ 000000000005ff18     OpensslLib:obj_dat.obj
 0002:0000b208       ??_C@_0M@CGBMJDMF@aes?9128?9xts@ 000000000005ff28     OpensslLib:obj_dat.obj
 0002:0000b218       ??_C@_0M@ILDFFBFL@AES?9256?9XTS@ 000000000005ff38     OpensslLib:obj_dat.obj
 0002:0000b228       ??_C@_0M@FHDOMLNI@aes?9256?9xts@ 000000000005ff48     OpensslLib:obj_dat.obj
 0002:0000b238       ??_C@_0N@MFFPBCGK@RC4?9HMAC?9MD5@ 000000000005ff58     OpensslLib:obj_dat.obj
 0002:0000b248       ??_C@_0N@EFPJLHOG@rc4?9hmac?9md5@ 000000000005ff68     OpensslLib:obj_dat.obj
 0002:0000b258       ??_C@_0BG@OKEPPAEE@AES?9128?9CBC?9HMAC?9SHA1@ 000000000005ff78     OpensslLib:obj_dat.obj
 0002:0000b270       ??_C@_0BG@CLBGODOC@aes?9128?9cbc?9hmac?9sha1@ 000000000005ff90     OpensslLib:obj_dat.obj
 0002:0000b288       ??_C@_0BG@KLHGFOHC@AES?9192?9CBC?9HMAC?9SHA1@ 000000000005ffa8     OpensslLib:obj_dat.obj
 0002:0000b2a0       ??_C@_0BG@GKCPENNE@aes?9192?9cbc?9hmac?9sha1@ 000000000005ffc0     OpensslLib:obj_dat.obj
 0002:0000b2b8       ??_C@_0BG@NJKHMG@AES?9256?9CBC?9HMAC?9SHA1@ 000000000005ffd8     OpensslLib:obj_dat.obj
 0002:0000b2d0       ??_C@_0BG@MBIALEGA@aes?9256?9cbc?9hmac?9sha1@ 000000000005fff0     OpensslLib:obj_dat.obj
 0002:0000b2e8       ??_C@_0L@NCPDMLAN@RSAES?9OAEP@ 0000000000060008     OpensslLib:obj_dat.obj
 0002:0000b2f8       ??_C@_09FHIEKOPH@rsaesOaep@ 0000000000060018     OpensslLib:obj_dat.obj
 0002:0000b308       ??_C@_0P@BHMOKJEG@dhpublicnumber@ 0000000000060028     OpensslLib:obj_dat.obj
 0002:0000b318       ??_C@_08HOHHODNK@X9?442?5DH@ 0000000000060038     OpensslLib:obj_dat.obj
 0002:0000b328       ??_C@_0BA@CDGJLDLH@brainpoolP160r1@ 0000000000060048     OpensslLib:obj_dat.obj
 0002:0000b338       ??_C@_0BA@CHOEMPAF@brainpoolP160t1@ 0000000000060058     OpensslLib:obj_dat.obj
 0002:0000b348       ??_C@_0BA@LDAOMON@brainpoolP192r1@ 0000000000060068     OpensslLib:obj_dat.obj
 0002:0000b358       ??_C@_0BA@PLNJAFP@brainpoolP192t1@ 0000000000060078     OpensslLib:obj_dat.obj
 0002:0000b368       ??_C@_0BA@NPBPPAIO@brainpoolP224r1@ 0000000000060088     OpensslLib:obj_dat.obj
 0002:0000b378       ??_C@_0BA@NLJCIMDM@brainpoolP224t1@ 0000000000060098     OpensslLib:obj_dat.obj
 0002:0000b388       ??_C@_0BA@MHDGOEBF@brainpoolP256r1@ 00000000000600a8     OpensslLib:obj_dat.obj
 0002:0000b398       ??_C@_0BA@MDLLJIKH@brainpoolP256t1@ 00000000000600b8     OpensslLib:obj_dat.obj
 0002:0000b3a8       ??_C@_0BA@JLCBLEHM@brainpoolP320r1@ 00000000000600c8     OpensslLib:obj_dat.obj
 0002:0000b3b8       ??_C@_0BA@JPKMMIMO@brainpoolP320t1@ 00000000000600d8     OpensslLib:obj_dat.obj
 0002:0000b3c8       ??_C@_0BA@FOPDDLIK@brainpoolP384r1@ 00000000000600e8     OpensslLib:obj_dat.obj
 0002:0000b3d8       ??_C@_0BA@FKHOEHDI@brainpoolP384t1@ 00000000000600f8     OpensslLib:obj_dat.obj
 0002:0000b3e8       ??_C@_0BA@KANBOFDK@brainpoolP512r1@ 0000000000060108     OpensslLib:obj_dat.obj
 0002:0000b3f8       ??_C@_0BA@KEFMJJII@brainpoolP512t1@ 0000000000060118     OpensslLib:obj_dat.obj
 0002:0000b408       ??_C@_0L@CDJFGILH@PSPECIFIED@ 0000000000060128     OpensslLib:obj_dat.obj
 0002:0000b418       ??_C@_0L@NKKFNJEH@pSpecified@ 0000000000060138     OpensslLib:obj_dat.obj
 0002:0000b428       ??_C@_0CC@GCFJNDOJ@dhSinglePass?9stdDH?9sha1kdf?9sche@ 0000000000060148     OpensslLib:obj_dat.obj
 0002:0000b450       ??_C@_0CE@OPNDOJI@dhSinglePass?9stdDH?9sha224kdf?9sc@ 0000000000060170     OpensslLib:obj_dat.obj
 0002:0000b478       ??_C@_0CE@JPLFKGFP@dhSinglePass?9stdDH?9sha256kdf?9sc@ 0000000000060198     OpensslLib:obj_dat.obj
 0002:0000b4a0       ??_C@_0CE@KJKNLJMI@dhSinglePass?9stdDH?9sha384kdf?9sc@ 00000000000601c0     OpensslLib:obj_dat.obj
 0002:0000b4c8       ??_C@_0CE@DJMHFNHG@dhSinglePass?9stdDH?9sha512kdf?9sc@ 00000000000601e8     OpensslLib:obj_dat.obj
 0002:0000b4f0       ??_C@_0CH@DHIHBIGF@dhSinglePass?9cofactorDH?9sha1kdf@ 0000000000060210     OpensslLib:obj_dat.obj
 0002:0000b518       ??_C@_0CJ@JFHNKHDJ@dhSinglePass?9cofactorDH?9sha224k@ 0000000000060238     OpensslLib:obj_dat.obj
 0002:0000b548       ??_C@_0CJ@EDFDPPO@dhSinglePass?9cofactorDH?9sha256k@ 0000000000060268     OpensslLib:obj_dat.obj
 0002:0000b578       ??_C@_0CJ@DCCNCAGJ@dhSinglePass?9cofactorDH?9sha384k@ 0000000000060298     OpensslLib:obj_dat.obj
 0002:0000b5a8       ??_C@_0CJ@KCEHMENH@dhSinglePass?9cofactorDH?9sha512k@ 00000000000602c8     OpensslLib:obj_dat.obj
 0002:0000b5d8       ??_C@_0L@MFGJJBLE@dh?9std?9kdf@ 00000000000602f8     OpensslLib:obj_dat.obj
 0002:0000b5e8       ??_C@_0BA@LJEJAEDG@dh?9cofactor?9kdf@ 0000000000060308     OpensslLib:obj_dat.obj
 0002:0000b5f8       ??_C@_0BI@JAKBILLC@AES?9128?9CBC?9HMAC?9SHA256@ 0000000000060318     OpensslLib:obj_dat.obj
 0002:0000b610       ??_C@_0BI@OMECBAFK@aes?9128?9cbc?9hmac?9sha256@ 0000000000060330     OpensslLib:obj_dat.obj
 0002:0000b628       ??_C@_0BI@CINDNFBB@AES?9192?9CBC?9HMAC?9SHA256@ 0000000000060348     OpensslLib:obj_dat.obj
 0002:0000b640       ??_C@_0BI@FEDAEOPJ@aes?9192?9cbc?9hmac?9sha256@ 0000000000060360     OpensslLib:obj_dat.obj
 0002:0000b658       ??_C@_0BI@GMBLFPLK@AES?9256?9CBC?9HMAC?9SHA256@ 0000000000060378     OpensslLib:obj_dat.obj
 0002:0000b670       ??_C@_0BI@BAPIMEFC@aes?9256?9cbc?9hmac?9sha256@ 0000000000060390     OpensslLib:obj_dat.obj
 0002:0000b688       ??_C@_0BA@EKNBJPMK@ct_precert_scts@ 00000000000603a8     OpensslLib:obj_dat.obj
 0002:0000b698       ??_C@_0BH@MJHOKGCL@CT?5Precertificate?5SCTs@ 00000000000603b8     OpensslLib:obj_dat.obj
 0002:0000b6b0       ??_C@_0BC@DHAKLICB@ct_precert_poison@ 00000000000603d0     OpensslLib:obj_dat.obj
 0002:0000b6c8       ??_C@_0BJ@OJAHFLBJ@CT?5Precertificate?5Poison@ 00000000000603e8     OpensslLib:obj_dat.obj
 0002:0000b6e8       ??_C@_0BC@CGBIKIAJ@ct_precert_signer@ 0000000000060408     OpensslLib:obj_dat.obj
 0002:0000b700       ??_C@_0BJ@PIBFELDB@CT?5Precertificate?5Signer@ 0000000000060420     OpensslLib:obj_dat.obj
 0002:0000b720       ??_C@_0N@GIBNBHKA@ct_cert_scts@ 0000000000060440     OpensslLib:obj_dat.obj
 0002:0000b730       ??_C@_0BE@OLBHFOCE@CT?5Certificate?5SCTs@ 0000000000060450     OpensslLib:obj_dat.obj
 0002:0000b748       ??_C@_0O@CEMHPDIN@jurisdictionL@ 0000000000060468     OpensslLib:obj_dat.obj
 0002:0000b758       ??_C@_0BJ@DGGEPBOP@jurisdictionLocalityName@ 0000000000060478     OpensslLib:obj_dat.obj
 0002:0000b778       ??_C@_0P@FKIAEEHD@jurisdictionST@ 0000000000060498     OpensslLib:obj_dat.obj
 0002:0000b788       ??_C@_0CA@ILILPDLE@jurisdictionStateOrProvinceName@ 00000000000604a8     OpensslLib:obj_dat.obj
 0002:0000b7a8       ??_C@_0O@KDFPOPEC@jurisdictionC@ 00000000000604c8     OpensslLib:obj_dat.obj
 0002:0000b7b8       ??_C@_0BI@IBHEHEJE@jurisdictionCountryName@ 00000000000604d8     OpensslLib:obj_dat.obj
 0002:0000b7d0       ??_C@_0M@HNGJPAIF@AES?9128?9OCB@ 00000000000604f0     OpensslLib:obj_dat.obj
 0002:0000b7e0       ??_C@_0M@KBGCGKAG@aes?9128?9ocb@ 0000000000060500     OpensslLib:obj_dat.obj
 0002:0000b7f0       ??_C@_0M@NOPFIHBJ@AES?9192?9OCB@ 0000000000060510     OpensslLib:obj_dat.obj
 0002:0000b800       ??_C@_0M@CPOBNJK@aes?9192?9ocb@ 0000000000060520     OpensslLib:obj_dat.obj
 0002:0000b810       ??_C@_0M@MELKIJI@AES?9256?9OCB@ 0000000000060530     OpensslLib:obj_dat.obj
 0002:0000b820       ??_C@_0M@NAEADCBL@aes?9256?9ocb@ 0000000000060540     OpensslLib:obj_dat.obj
 0002:0000b830       ??_C@_0BB@GAIDNACN@CAMELLIA?9128?9GCM@ 0000000000060550     OpensslLib:obj_dat.obj
 0002:0000b848       ??_C@_0BB@HDMLAOJK@camellia?9128?9gcm@ 0000000000060568     OpensslLib:obj_dat.obj
 0002:0000b860       ??_C@_0BB@OPOBEHHK@CAMELLIA?9128?9CCM@ 0000000000060580     OpensslLib:obj_dat.obj
 0002:0000b878       ??_C@_0BB@PMKJJJMN@camellia?9128?9ccm@ 0000000000060598     OpensslLib:obj_dat.obj
 0002:0000b890       ??_C@_0BB@DLNCPMBB@CAMELLIA?9128?9CTR@ 00000000000605b0     OpensslLib:obj_dat.obj
 0002:0000b8a8       ??_C@_0BB@CIJKCCKG@camellia?9128?9ctr@ 00000000000605c8     OpensslLib:obj_dat.obj
 0002:0000b8c0       ??_C@_0BC@ICKOOLPE@CAMELLIA?9128?9CMAC@ 00000000000605e0     OpensslLib:obj_dat.obj
 0002:0000b8d8       ??_C@_0BC@ECDMKBKH@camellia?9128?9cmac@ 00000000000605f8     OpensslLib:obj_dat.obj
 0002:0000b8f0       ??_C@_0BB@MDBPKHLB@CAMELLIA?9192?9GCM@ 0000000000060610     OpensslLib:obj_dat.obj
 0002:0000b908       ??_C@_0BB@NAFHHJAG@camellia?9192?9gcm@ 0000000000060628     OpensslLib:obj_dat.obj
 0002:0000b920       ??_C@_0BB@EMHNDAOG@CAMELLIA?9192?9CCM@ 0000000000060640     OpensslLib:obj_dat.obj
 0002:0000b938       ??_C@_0BB@FPDFOOFB@camellia?9192?9ccm@ 0000000000060658     OpensslLib:obj_dat.obj
 0002:0000b950       ??_C@_0BB@JIEOILIN@CAMELLIA?9192?9CTR@ 0000000000060670     OpensslLib:obj_dat.obj
 0002:0000b968       ??_C@_0BB@ILAGFFDK@camellia?9192?9ctr@ 0000000000060688     OpensslLib:obj_dat.obj
 0002:0000b980       ??_C@_0BC@HLLEKIOM@CAMELLIA?9192?9CMAC@ 00000000000606a0     OpensslLib:obj_dat.obj
 0002:0000b998       ??_C@_0BC@LLCGOCLP@camellia?9192?9cmac@ 00000000000606b8     OpensslLib:obj_dat.obj
 0002:0000b9b0       ??_C@_0BB@BBKBIIDA@CAMELLIA?9256?9GCM@ 00000000000606d0     OpensslLib:obj_dat.obj
 0002:0000b9c8       ??_C@_0BB@COJFGIH@camellia?9256?9gcm@ 00000000000606e8     OpensslLib:obj_dat.obj
 0002:0000b9e0       ??_C@_0BB@JOMDBPGH@CAMELLIA?9256?9CCM@ 0000000000060700     OpensslLib:obj_dat.obj
 0002:0000b9f8       ??_C@_0BB@INILMBNA@camellia?9256?9ccm@ 0000000000060718     OpensslLib:obj_dat.obj
 0002:0000ba10       ??_C@_0BB@EKPAKEAM@CAMELLIA?9256?9CTR@ 0000000000060730     OpensslLib:obj_dat.obj
 0002:0000ba28       ??_C@_0BB@FJLIHKLL@camellia?9256?9ctr@ 0000000000060748     OpensslLib:obj_dat.obj
 0002:0000ba40       ??_C@_0BC@OBNJKFHF@CAMELLIA?9256?9CMAC@ 0000000000060760     OpensslLib:obj_dat.obj
 0002:0000ba58       ??_C@_0BC@CBELOPCG@camellia?9256?9cmac@ 0000000000060778     OpensslLib:obj_dat.obj
 0002:0000ba70       ??_C@_09ILBMCAEF@id?9scrypt@ 0000000000060790     OpensslLib:obj_dat.obj
 0002:0000ba7c       ??_C@_06LLPEBPNI@scrypt@   000000000006079c     OpensslLib:obj_dat.obj
 0002:0000ba88       ??_C@_07BKIAFLHB@id?9tc26@ 00000000000607a8     OpensslLib:obj_dat.obj
 0002:0000ba90       ??_C@_0O@HGEOMPGF@gost89?9cnt?912@ 00000000000607b0     OpensslLib:obj_dat.obj
 0002:0000baa0       ??_C@_0M@KEFEFFFO@gost?9mac?912@ 00000000000607c0     OpensslLib:obj_dat.obj
 0002:0000bab0       ??_C@_0BD@PKHBIAHP@id?9tc26?9algorithms@ 00000000000607d0     OpensslLib:obj_dat.obj
 0002:0000bac8       ??_C@_0N@HMCOAPHF@id?9tc26?9sign@ 00000000000607e8     OpensslLib:obj_dat.obj
 0002:0000bad8       ??_C@_0N@MINOOKEF@gost2012_256@ 00000000000607f8     OpensslLib:obj_dat.obj
 0002:0000bae8       ??_C@_0CH@DJAHIKCF@GOST?5R?534?410?92012?5with?5256?5bit?5@ 0000000000060808     OpensslLib:obj_dat.obj
 0002:0000bb10       ??_C@_0N@DGGMLPCE@gost2012_512@ 0000000000060830     OpensslLib:obj_dat.obj
 0002:0000bb20       ??_C@_0CH@FHCOJICI@GOST?5R?534?410?92012?5with?5512?5bit?5@ 0000000000060840     OpensslLib:obj_dat.obj
 0002:0000bb48       ??_C@_0P@KKGLKDLG@id?9tc26?9digest@ 0000000000060868     OpensslLib:obj_dat.obj
 0002:0000bb58       ??_C@_0O@CBIKGGLN@md_gost12_256@ 0000000000060878     OpensslLib:obj_dat.obj
 0002:0000bb68       ??_C@_0CE@FGDJHNGL@GOST?5R?534?411?92012?5with?5256?5bit?5@ 0000000000060888     OpensslLib:obj_dat.obj
 0002:0000bb90       ??_C@_0O@NPDIDDNM@md_gost12_512@ 00000000000608b0     OpensslLib:obj_dat.obj
 0002:0000bba0       ??_C@_0CE@JIJFDDMO@GOST?5R?534?411?92012?5with?5512?5bit?5@ 00000000000608c0     OpensslLib:obj_dat.obj
 0002:0000bbc8       ??_C@_0BH@DGELPKNI@id?9tc26?9signwithdigest@ 00000000000608e8     OpensslLib:obj_dat.obj
 0002:0000bbe0       ??_C@_0CJ@IEAKGPIK@id?9tc26?9signwithdigest?9gost3410@ 0000000000060900     OpensslLib:obj_dat.obj
 0002:0000bc10       ??_C@_0DD@IIJACCAI@GOST?5R?534?410?92012?5with?5GOST?5R?53@ 0000000000060930     OpensslLib:obj_dat.obj
 0002:0000bc48       ??_C@_0CJ@HKLIDKOL@id?9tc26?9signwithdigest?9gost3410@ 0000000000060968     OpensslLib:obj_dat.obj
 0002:0000bc78       ??_C@_0DD@JMPEGFCI@GOST?5R?534?410?92012?5with?5GOST?5R?53@ 0000000000060998     OpensslLib:obj_dat.obj
 0002:0000bcb0       ??_C@_0M@ICFDDKIB@id?9tc26?9mac@ 00000000000609d0     OpensslLib:obj_dat.obj
 0002:0000bcc0       ??_C@_0CA@JKDKOOFJ@id?9tc26?9hmac?9gost?93411?92012?9256@ 00000000000609e0     OpensslLib:obj_dat.obj
 0002:0000bce0       ??_C@_0BN@JOOLALJM@HMAC?5GOST?534?411?92012?5256?5bit@ 0000000000060a00     OpensslLib:obj_dat.obj
 0002:0000bd00       ??_C@_0CA@GEIILLDI@id?9tc26?9hmac?9gost?93411?92012?9512@ 0000000000060a20     OpensslLib:obj_dat.obj
 0002:0000bd20       ??_C@_0BN@PLPAGEIA@HMAC?5GOST?534?411?92012?5512?5bit@ 0000000000060a40     OpensslLib:obj_dat.obj
 0002:0000bd40       ??_C@_0P@BJHHGDD@id?9tc26?9cipher@ 0000000000060a60     OpensslLib:obj_dat.obj
 0002:0000bd50       ??_C@_0BC@DJLELDPH@id?9tc26?9agreement@ 0000000000060a70     OpensslLib:obj_dat.obj
 0002:0000bd68       ??_C@_0CF@JALEKNFA@id?9tc26?9agreement?9gost?93410?9201@ 0000000000060a88     OpensslLib:obj_dat.obj
 0002:0000bd90       ??_C@_0CF@GOAGPIDB@id?9tc26?9agreement?9gost?93410?9201@ 0000000000060ab0     OpensslLib:obj_dat.obj
 0002:0000bdb8       ??_C@_0BC@CNAIEHBN@id?9tc26?9constants@ 0000000000060ad8     OpensslLib:obj_dat.obj
 0002:0000bdd0       ??_C@_0BH@FMPMHLHM@id?9tc26?9sign?9constants@ 0000000000060af0     OpensslLib:obj_dat.obj
 0002:0000bde8       ??_C@_0CF@ONCEGCLN@id?9tc26?9gost?93410?92012?9512?9cons@ 0000000000060b08     OpensslLib:obj_dat.obj
 0002:0000be10       ??_C@_0CI@GGHEPEIH@id?9tc26?9gost?93410?92012?9512?9para@ 0000000000060b30     OpensslLib:obj_dat.obj
 0002:0000be38       ??_C@_0DC@INCJCNBI@GOST?5R?534?410?92012?5?$CI512?5bit?$CJ?5tes@ 0000000000060b58     OpensslLib:obj_dat.obj
 0002:0000be70       ??_C@_0CF@PHGDEBIC@id?9tc26?9gost?93410?92012?9512?9para@ 0000000000060b90     OpensslLib:obj_dat.obj
 0002:0000be98       ??_C@_0CH@KEBIEEKM@GOST?5R?534?410?92012?5?$CI512?5bit?$CJ?5Par@ 0000000000060bb8     OpensslLib:obj_dat.obj
 0002:0000bec0       ??_C@_0CF@NMEOBCEB@id?9tc26?9gost?93410?92012?9512?9para@ 0000000000060be0     OpensslLib:obj_dat.obj
 0002:0000bee8       ??_C@_0CH@IPDFBHGP@GOST?5R?534?410?92012?5?$CI512?5bit?$CJ?5Par@ 0000000000060c08     OpensslLib:obj_dat.obj
 0002:0000bf10       ??_C@_0BJ@GEIKEFNA@id?9tc26?9digest?9constants@ 0000000000060c30     OpensslLib:obj_dat.obj
 0002:0000bf30       ??_C@_0BJ@NHFOAFHC@id?9tc26?9cipher?9constants@ 0000000000060c50     OpensslLib:obj_dat.obj
 0002:0000bf50       ??_C@_0BN@EAAGDAMM@id?9tc26?9gost?928147?9constants@ 0000000000060c70     OpensslLib:obj_dat.obj
 0002:0000bf70       ??_C@_0BL@JJBMFHGO@id?9tc26?9gost?928147?9param?9Z@ 0000000000060c90     OpensslLib:obj_dat.obj
 0002:0000bf90       ??_C@_0CB@CNOGCECB@GOST?528147?989?5TC26?5parameter?5se@ 0000000000060cb0     OpensslLib:obj_dat.obj
 0002:0000bfb4       ??_C@_03CMFJPFBF@INN@      0000000000060cd4     OpensslLib:obj_dat.obj
 0002:0000bfb8       ??_C@_04OEHPDPKL@OGRN@     0000000000060cd8     OpensslLib:obj_dat.obj
 0002:0000bfc0       ??_C@_05CNOOKPKJ@SNILS@    0000000000060ce0     OpensslLib:obj_dat.obj
 0002:0000bfc8       ??_C@_0BA@NDMKBCND@subjectSignTool@ 0000000000060ce8     OpensslLib:obj_dat.obj
 0002:0000bfd8       ??_C@_0BI@GJCFDOKO@Signing?5Tool?5of?5Subject@ 0000000000060cf8     OpensslLib:obj_dat.obj
 0002:0000bff0       ??_C@_0P@DOAHENPB@issuerSignTool@ 0000000000060d10     OpensslLib:obj_dat.obj
 0002:0000c000       ??_C@_0BH@GHEABPMA@Signing?5Tool?5of?5Issuer@ 0000000000060d20     OpensslLib:obj_dat.obj
 0002:0000c018       ??_C@_0L@IBPHNLAN@gost89?9cbc@ 0000000000060d38     OpensslLib:obj_dat.obj
 0002:0000c028       ??_C@_0L@LMEFNPKH@gost89?9ecb@ 0000000000060d48     OpensslLib:obj_dat.obj
 0002:0000c038       ??_C@_0L@MKIFCHNP@gost89?9ctr@ 0000000000060d58     OpensslLib:obj_dat.obj
 0002:0000c048       ??_C@_0BA@BNIBKCOB@grasshopper?9ecb@ 0000000000060d68     OpensslLib:obj_dat.obj
 0002:0000c058       ??_C@_0BA@GLEBFKJJ@grasshopper?9ctr@ 0000000000060d78     OpensslLib:obj_dat.obj
 0002:0000c068       ??_C@_0BA@HEPHIAGO@grasshopper?9ofb@ 0000000000060d88     OpensslLib:obj_dat.obj
 0002:0000c078       ??_C@_0BA@CADDKGEL@grasshopper?9cbc@ 0000000000060d98     OpensslLib:obj_dat.obj
 0002:0000c088       ??_C@_0BA@DOCBDPNG@grasshopper?9cfb@ 0000000000060da8     OpensslLib:obj_dat.obj
 0002:0000c098       ??_C@_0BA@MCKKGPCB@grasshopper?9mac@ 0000000000060db8     OpensslLib:obj_dat.obj
 0002:0000c0a8       ??_C@_0BC@PEKIBJLH@ChaCha20?9Poly1305@ 0000000000060dc8     OpensslLib:obj_dat.obj
 0002:0000c0c0       ??_C@_0BC@KDNKBNLK@chacha20?9poly1305@ 0000000000060de0     OpensslLib:obj_dat.obj
 0002:0000c0d8       ??_C@_08ILJLPLOJ@ChaCha20@ 0000000000060df8     OpensslLib:obj_dat.obj
 0002:0000c0e8       ??_C@_08OMGHMHM@chacha20@  0000000000060e08     OpensslLib:obj_dat.obj
 0002:0000c0f8       ??_C@_0L@MLJIFHHA@tlsfeature@ 0000000000060e18     OpensslLib:obj_dat.obj
 0002:0000c108       ??_C@_0M@FNEPCNIJ@TLS?5Feature@ 0000000000060e28     OpensslLib:obj_dat.obj
 0002:0000c118       ??_C@_08KOCGPNOB@TLS1?9PRF@ 0000000000060e38     OpensslLib:obj_dat.obj
 0002:0000c128       ??_C@_08BHOHOJPE@tls1?9prf@ 0000000000060e48     OpensslLib:obj_dat.obj
 0002:0000c138       ??_C@_08JJANKCK@ipsecIKE@  0000000000060e58     OpensslLib:obj_dat.obj
 0002:0000c148       ??_C@_0BM@OPBJFEOG@ipsec?5Internet?5Key?5Exchange@ 0000000000060e68     OpensslLib:obj_dat.obj
 0002:0000c168       ??_C@_08PPHHBOBH@capwapAC@ 0000000000060e88     OpensslLib:obj_dat.obj
 0002:0000c178       ??_C@_0BK@IALCAIEG@Ctrl?1provision?5WAP?5Access@ 0000000000060e98     OpensslLib:obj_dat.obj
 0002:0000c198       ??_C@_09FFIMBCDL@capwapWTP@ 0000000000060eb8     OpensslLib:obj_dat.obj
 0002:0000c1a8       ??_C@_0BP@LFGCKHED@Ctrl?1Provision?5WAP?5Termination@ 0000000000060ec8     OpensslLib:obj_dat.obj
 0002:0000c1c8       ??_C@_0BC@DBPEJOAM@secureShellClient@ 0000000000060ee8     OpensslLib:obj_dat.obj
 0002:0000c1e0       ??_C@_0L@CACOODCE@SSH?5Client@ 0000000000060f00     OpensslLib:obj_dat.obj
 0002:0000c1f0       ??_C@_0BC@HOLGEFIP@secureShellServer@ 0000000000060f10     OpensslLib:obj_dat.obj
 0002:0000c208       ??_C@_0L@GPGMDIKH@SSH?5Server@ 0000000000060f28     OpensslLib:obj_dat.obj
 0002:0000c218       ??_C@_0L@MPOEEOHI@sendRouter@ 0000000000060f38     OpensslLib:obj_dat.obj
 0002:0000c228       ??_C@_0M@BCAJACPB@Send?5Router@ 0000000000060f48     OpensslLib:obj_dat.obj
 0002:0000c238       ??_C@_0BC@KKHBJBOB@sendProxiedRouter@ 0000000000060f58     OpensslLib:obj_dat.obj
 0002:0000c250       ??_C@_0BE@JHOOFFHO@Send?5Proxied?5Router@ 0000000000060f70     OpensslLib:obj_dat.obj
 0002:0000c268       ??_C@_09JAHHKBGP@sendOwner@ 0000000000060f88     OpensslLib:obj_dat.obj
 0002:0000c278       ??_C@_0L@HAEHOBAA@Send?5Owner@ 0000000000060f98     OpensslLib:obj_dat.obj
 0002:0000c288       ??_C@_0BB@LFHBPODH@sendProxiedOwner@ 0000000000060fa8     OpensslLib:obj_dat.obj
 0002:0000c2a0       ??_C@_0BD@PCCALGFC@Send?5Proxied?5Owner@ 0000000000060fc0     OpensslLib:obj_dat.obj
 0002:0000c2b8       ??_C@_09JPKOOJPP@id?9pkinit@ 0000000000060fd8     OpensslLib:obj_dat.obj
 0002:0000c2c8       ??_C@_0BB@EPFMAKG@pkInitClientAuth@ 0000000000060fe8     OpensslLib:obj_dat.obj
 0002:0000c2e0       ??_C@_0BD@EMKKJPI@PKINIT?5Client?5Auth@ 0000000000061000     OpensslLib:obj_dat.obj
 0002:0000c2f8       ??_C@_09BKCKBNGN@pkInitKDC@ 0000000000061018     OpensslLib:obj_dat.obj
 0002:0000c308       ??_C@_0BF@JILKFMLF@Signing?5KDC?5Response@ 0000000000061028     OpensslLib:obj_dat.obj
 0002:0000c320       ??_C@_06LOACBMIP@X25519@   0000000000061040     OpensslLib:obj_dat.obj
 0002:0000c328       ??_C@_04HKAKBCKJ@X448@     0000000000061048     OpensslLib:obj_dat.obj
 0002:0000c330       ??_C@_04MMPLAJMJ@HKDF@     0000000000061050     OpensslLib:obj_dat.obj
 0002:0000c338       ??_C@_04MBOLLB@hkdf@       0000000000061058     OpensslLib:obj_dat.obj
 0002:0000c340       ??_C@_05EJMCGHJ@KxRSA@     0000000000061060     OpensslLib:obj_dat.obj
 0002:0000c348       ??_C@_06NOGFLIHP@kx?9rsa@  0000000000061068     OpensslLib:obj_dat.obj
 0002:0000c350       ??_C@_07JGJKHBHF@KxECDHE@  0000000000061070     OpensslLib:obj_dat.obj
 0002:0000c358       ??_C@_08HKLONAAL@kx?9ecdhe@ 0000000000061078     OpensslLib:obj_dat.obj
 0002:0000c364       ??_C@_05FPBKHKP@KxDHE@     0000000000061084     OpensslLib:obj_dat.obj
 0002:0000c36c       ??_C@_06NPAIDJKJ@kx?9dhe@  000000000006108c     OpensslLib:obj_dat.obj
 0002:0000c378       ??_C@_0M@BEDLOEBI@KxECDHE?9PSK@ 0000000000061098     OpensslLib:obj_dat.obj
 0002:0000c388       ??_C@_0N@BCMOIGGJ@kx?9ecdhe?9psk@ 00000000000610a8     OpensslLib:obj_dat.obj
 0002:0000c398       ??_C@_09DLNJIEPF@KxDHE?9PSK@ 00000000000610b8     OpensslLib:obj_dat.obj
 0002:0000c3a8       ??_C@_0L@EHLMOCJB@kx?9dhe?9psk@ 00000000000610c8     OpensslLib:obj_dat.obj
 0002:0000c3b8       ??_C@_09PMFHIFNE@KxRSA_PSK@ 00000000000610d8     OpensslLib:obj_dat.obj
 0002:0000c3c8       ??_C@_0L@DCAFABP@kx?9rsa?9psk@ 00000000000610e8     OpensslLib:obj_dat.obj
 0002:0000c3d4       ??_C@_05FEHKAGHI@KxPSK@    00000000000610f4     OpensslLib:obj_dat.obj
 0002:0000c3dc       ??_C@_06IOIDJIHO@kx?9psk@  00000000000610fc     OpensslLib:obj_dat.obj
 0002:0000c3e4       ??_C@_05OODLAIDL@KxSRP@    0000000000061104     OpensslLib:obj_dat.obj
 0002:0000c3ec       ??_C@_06DEMCJGDN@kx?9srp@  000000000006110c     OpensslLib:obj_dat.obj
 0002:0000c3f4       ??_C@_06FKGHEKCF@KxGOST@   0000000000061114     OpensslLib:obj_dat.obj
 0002:0000c400       ??_C@_07CGFKDCCM@kx?9gost@ 0000000000061120     OpensslLib:obj_dat.obj
 0002:0000c408       ??_C@_07BONHEHLG@AuthRSA@  0000000000061128     OpensslLib:obj_dat.obj
 0002:0000c410       ??_C@_08JIOIJHAA@auth?9rsa@ 0000000000061130     OpensslLib:obj_dat.obj
 0002:0000c420       ??_C@_09JEFCHIOE@AuthECDSA@ 0000000000061140     OpensslLib:obj_dat.obj
 0002:0000c430       ??_C@_0L@NNHEHHD@auth?9ecdsa@ 0000000000061150     OpensslLib:obj_dat.obj
 0002:0000c440       ??_C@_07EODBGHLH@AuthPSK@  0000000000061160     OpensslLib:obj_dat.obj
 0002:0000c448       ??_C@_08MIAOLHAB@auth?9psk@ 0000000000061168     OpensslLib:obj_dat.obj
 0002:0000c458       ??_C@_07BDFBDPCG@AuthDSS@  0000000000061178     OpensslLib:obj_dat.obj
 0002:0000c460       ??_C@_08JFGOOPJA@auth?9dss@ 0000000000061180     OpensslLib:obj_dat.obj
 0002:0000c470       ??_C@_0L@JLNHNDLF@AuthGOST01@ 0000000000061190     OpensslLib:obj_dat.obj
 0002:0000c480       ??_C@_0M@MNGIBGIN@auth?9gost01@ 00000000000611a0     OpensslLib:obj_dat.obj
 0002:0000c490       ??_C@_0L@LBDIOKEB@AuthGOST12@ 00000000000611b0     OpensslLib:obj_dat.obj
 0002:0000c4a0       ??_C@_0M@OHIHCPHJ@auth?9gost12@ 00000000000611c0     OpensslLib:obj_dat.obj
 0002:0000c4b0       ??_C@_07PEHAGJPE@AuthSRP@  00000000000611d0     OpensslLib:obj_dat.obj
 0002:0000c4b8       ??_C@_08HCEPLJEC@auth?9srp@ 00000000000611d8     OpensslLib:obj_dat.obj
 0002:0000c4c8       ??_C@_08PGHDHHPL@AuthNULL@ 00000000000611e8     OpensslLib:obj_dat.obj
 0002:0000c4d8       ??_C@_09EBHDHKDA@auth?9null@ 00000000000611f8     OpensslLib:obj_dat.obj
 0002:0000c4e8       ??_C@_0L@JAJLMLPM@BLAKE2b512@ 0000000000061208     OpensslLib:obj_dat.obj
 0002:0000c4f8       ??_C@_0L@ONGAJOJC@blake2b512@ 0000000000061218     OpensslLib:obj_dat.obj
 0002:0000c508       ??_C@_0L@DDKJCAKP@BLAKE2s256@ 0000000000061228     OpensslLib:obj_dat.obj
 0002:0000c518       ??_C@_0L@EOFCHFMB@blake2s256@ 0000000000061238     OpensslLib:obj_dat.obj
 0002:0000c528       ??_C@_0BO@OGCFEAKN@id?9smime?9ct?9contentCollection@ 0000000000061248     OpensslLib:obj_dat.obj
 0002:0000c548       ??_C@_0BO@INCMCPON@id?9smime?9ct?9authEnvelopedData@ 0000000000061268     OpensslLib:obj_dat.obj
 0002:0000c568       ??_C@_09GGALBJKN@id?9ct?9xml@ 0000000000061288     OpensslLib:obj_dat.obj
 0002:0000c578       ??_C@_08PKNBIDPH@Poly1305@ 0000000000061298     OpensslLib:obj_dat.obj
 0002:0000c588       ??_C@_08HICAABFE@poly1305@ 00000000000612a8     OpensslLib:obj_dat.obj
 0002:0000c598       ??_C@_07EEPCGEAM@SipHash@  00000000000612b8     OpensslLib:obj_dat.obj
 0002:0000c5a0       ??_C@_07HMEFCJFO@siphash@  00000000000612c0     OpensslLib:obj_dat.obj
 0002:0000c5a8       ??_C@_05NANFHGHC@KxANY@    00000000000612c8     OpensslLib:obj_dat.obj
 0002:0000c5b0       ??_C@_06KCMOIHE@kx?9any@   00000000000612d0     OpensslLib:obj_dat.obj
 0002:0000c5b8       ??_C@_07MKJOBHLN@AuthANY@  00000000000612d8     OpensslLib:obj_dat.obj
 0002:0000c5c0       ??_C@_08EMKBMHAL@auth?9any@ 00000000000612e0     OpensslLib:obj_dat.obj
 0002:0000c5d0       ??_C@_0N@FEKJCEDM@ARIA?9128?9ECB@ 00000000000612f0     OpensslLib:obj_dat.obj
 0002:0000c5e0       ??_C@_0N@DLNMPFEK@aria?9128?9ecb@ 0000000000061300     OpensslLib:obj_dat.obj
 0002:0000c5f0       ??_C@_0N@GJBLCAJG@ARIA?9128?9CBC@ 0000000000061310     OpensslLib:obj_dat.obj
 0002:0000c600       ??_C@_0N@GGOPBOA@aria?9128?9cbc@ 0000000000061320     OpensslLib:obj_dat.obj
 0002:0000c610       ??_C@_0N@HHAJLJAL@ARIA?9128?9CFB@ 0000000000061330     OpensslLib:obj_dat.obj
 0002:0000c620       ??_C@_0N@BIHMGIHN@aria?9128?9cfb@ 0000000000061340     OpensslLib:obj_dat.obj
 0002:0000c630       ??_C@_0N@DNNPAGLD@ARIA?9128?9OFB@ 0000000000061350     OpensslLib:obj_dat.obj
 0002:0000c640       ??_C@_0N@FCKKNHMF@aria?9128?9ofb@ 0000000000061360     OpensslLib:obj_dat.obj
 0002:0000c650       ??_C@_0N@CCGJNMEE@ARIA?9128?9CTR@ 0000000000061370     OpensslLib:obj_dat.obj
 0002:0000c660       ??_C@_0N@ENBMANDC@aria?9128?9ctr@ 0000000000061380     OpensslLib:obj_dat.obj
 0002:0000c670       ??_C@_0N@PHDFFDKA@ARIA?9192?9ECB@ 0000000000061390     OpensslLib:obj_dat.obj
 0002:0000c680       ??_C@_0N@JIEAICNG@aria?9192?9ecb@ 00000000000613a0     OpensslLib:obj_dat.obj
 0002:0000c690       ??_C@_0N@MKIHFHAK@ARIA?9192?9CBC@ 00000000000613b0     OpensslLib:obj_dat.obj
 0002:0000c6a0       ??_C@_0N@KFPCIGHM@aria?9192?9cbc@ 00000000000613c0     OpensslLib:obj_dat.obj
 0002:0000c6b0       ??_C@_0N@NEJFMOJH@ARIA?9192?9CFB@ 00000000000613d0     OpensslLib:obj_dat.obj
 0002:0000c6c0       ??_C@_0N@LLOABPOB@aria?9192?9cfb@ 00000000000613e0     OpensslLib:obj_dat.obj
 0002:0000c6d0       ??_C@_0N@JOEDHBCP@ARIA?9192?9OFB@ 00000000000613f0     OpensslLib:obj_dat.obj
 0002:0000c6e0       ??_C@_0N@PBDGKAFJ@aria?9192?9ofb@ 0000000000061400     OpensslLib:obj_dat.obj
 0002:0000c6f0       ??_C@_0N@IBPFKLNI@ARIA?9192?9CTR@ 0000000000061410     OpensslLib:obj_dat.obj
 0002:0000c700       ??_C@_0N@OOIAHKKO@aria?9192?9ctr@ 0000000000061420     OpensslLib:obj_dat.obj
 0002:0000c710       ??_C@_0N@CFILHMCB@ARIA?9256?9ECB@ 0000000000061430     OpensslLib:obj_dat.obj
 0002:0000c720       ??_C@_0N@EKPOKNFH@aria?9256?9ecb@ 0000000000061440     OpensslLib:obj_dat.obj
 0002:0000c730       ??_C@_0N@BIDJHIIL@ARIA?9256?9CBC@ 0000000000061450     OpensslLib:obj_dat.obj
 0002:0000c740       ??_C@_0N@HHEMKJPN@aria?9256?9cbc@ 0000000000061460     OpensslLib:obj_dat.obj
 0002:0000c750       ??_C@_0N@GCLOBBG@ARIA?9256?9CFB@ 0000000000061470     OpensslLib:obj_dat.obj
 0002:0000c760       ??_C@_0N@GJFODAGA@aria?9256?9cfb@ 0000000000061480     OpensslLib:obj_dat.obj
 0002:0000c770       ??_C@_0N@EMPNFOKO@ARIA?9256?9OFB@ 0000000000061490     OpensslLib:obj_dat.obj
 0002:0000c780       ??_C@_0N@CDIIIPNI@aria?9256?9ofb@ 00000000000614a0     OpensslLib:obj_dat.obj
 0002:0000c790       ??_C@_0N@FDELIEFJ@ARIA?9256?9CTR@ 00000000000614b0     OpensslLib:obj_dat.obj
 0002:0000c7a0       ??_C@_0N@DMDOFFCP@aria?9256?9ctr@ 00000000000614c0     OpensslLib:obj_dat.obj
 0002:0000c7b0       ??_C@_0O@FBPINHID@ARIA?9128?9CFB1@ 00000000000614d0     OpensslLib:obj_dat.obj
 0002:0000c7c0       ??_C@_0O@OIPBHGFL@aria?9128?9cfb1@ 00000000000614e0     OpensslLib:obj_dat.obj
 0002:0000c7d0       ??_C@_0O@KIOCJEJL@ARIA?9192?9CFB1@ 00000000000614f0     OpensslLib:obj_dat.obj
 0002:0000c7e0       ??_C@_0O@BBOLDFED@aria?9192?9cfb1@ 0000000000061500     OpensslLib:obj_dat.obj
 0002:0000c7f0       ??_C@_0O@DCIPJJAC@ARIA?9256?9CFB1@ 0000000000061510     OpensslLib:obj_dat.obj
 0002:0000c800       ??_C@_0O@ILIGDINK@aria?9256?9cfb1@ 0000000000061520     OpensslLib:obj_dat.obj
 0002:0000c810       ??_C@_0O@IADKGMMK@ARIA?9128?9CFB8@ 0000000000061530     OpensslLib:obj_dat.obj
 0002:0000c820       ??_C@_0O@DJDDMNBC@aria?9128?9cfb8@ 0000000000061540     OpensslLib:obj_dat.obj
 0002:0000c830       ??_C@_0O@HJCACPNC@ARIA?9192?9CFB8@ 0000000000061550     OpensslLib:obj_dat.obj
 0002:0000c840       ??_C@_0O@MACJIOAK@aria?9192?9cfb8@ 0000000000061560     OpensslLib:obj_dat.obj
 0002:0000c850       ??_C@_0O@ODENCCEL@ARIA?9256?9CFB8@ 0000000000061570     OpensslLib:obj_dat.obj
 0002:0000c860       ??_C@_0O@FKEEIDJD@aria?9256?9cfb8@ 0000000000061580     OpensslLib:obj_dat.obj
 0002:0000c870       ??_C@_0CB@IFNLAOKJ@id?9smime?9aa?9signingCertificateV@ 0000000000061590     OpensslLib:obj_dat.obj
 0002:0000c898       ??_C@_07IHEPCGKL@ED25519@  00000000000615b8     OpensslLib:obj_dat.obj
 0002:0000c8a0       ??_C@_05PHGPKFEL@ED448@    00000000000615c0     OpensslLib:obj_dat.obj
 0002:0000c8a8       ??_C@_0BH@IMGBFLPH@organizationIdentifier@ 00000000000615c8     OpensslLib:obj_dat.obj
 0002:0000c8c0       ??_C@_02LOEEDGKE@c3@       00000000000615e0     OpensslLib:obj_dat.obj
 0002:0000c8c8       ??_C@_0O@FPCOELAL@countryCode3c@ 00000000000615e8     OpensslLib:obj_dat.obj
 0002:0000c8d8       ??_C@_02LGJMKFPH@n3@       00000000000615f8     OpensslLib:obj_dat.obj
 0002:0000c8e0       ??_C@_0O@OKIADFEG@countryCode3n@ 0000000000061600     OpensslLib:obj_dat.obj
 0002:0000c8f0       ??_C@_07KEJPHHNP@dnsName@  0000000000061610     OpensslLib:obj_dat.obj
 0002:0000c8f8       ??_C@_0BB@NCOFGOBL@x509ExtAdmission@ 0000000000061618     OpensslLib:obj_dat.obj
 0002:0000c910       ??_C@_0DA@NCCMDEGO@Professional?5Information?5or?5bas@ 0000000000061630     OpensslLib:obj_dat.obj
 0002:0000c940       ??_C@_0L@EEJNOJOJ@SHA512?9224@ 0000000000061660     OpensslLib:obj_dat.obj
 0002:0000c950       ??_C@_0L@PKNOHEN@sha512?9224@ 0000000000061670     OpensslLib:obj_dat.obj
 0002:0000c960       ??_C@_0L@HDOEJNOO@SHA512?9256@ 0000000000061680     OpensslLib:obj_dat.obj
 0002:0000c970       ??_C@_0L@DINEJDEK@sha512?9256@ 0000000000061690     OpensslLib:obj_dat.obj
 0002:0000c980       ??_C@_08DHHFFNOC@SHA3?9224@ 00000000000616a0     OpensslLib:obj_dat.obj
 0002:0000c990       ??_C@_08IDEPIEIL@sha3?9224@ 00000000000616b0     OpensslLib:obj_dat.obj
 0002:0000c9a0       ??_C@_08MCJOF@SHA3?9256@   00000000000616c0     OpensslLib:obj_dat.obj
 0002:0000c9b0       ??_C@_08LEDGPAIM@sha3?9256@ 00000000000616d0     OpensslLib:obj_dat.obj
 0002:0000c9c0       ??_C@_08ICFOLPFB@SHA3?9384@ 00000000000616e0     OpensslLib:obj_dat.obj
 0002:0000c9d0       ??_C@_08DGGEGGDI@sha3?9384@ 00000000000616f0     OpensslLib:obj_dat.obj
 0002:0000c9e0       ??_C@_08POLOHMIE@SHA3?9512@ 0000000000061700     OpensslLib:obj_dat.obj
 0002:0000c9f0       ??_C@_08EKIEKFON@sha3?9512@ 0000000000061710     OpensslLib:obj_dat.obj
 0002:0000ca00       ??_C@_08MHEGAOCA@SHAKE128@ 0000000000061720     OpensslLib:obj_dat.obj
 0002:0000ca10       ??_C@_08LFBBPNHL@shake128@ 0000000000061730     OpensslLib:obj_dat.obj
 0002:0000ca20       ??_C@_08EODPJKMF@SHAKE256@ 0000000000061740     OpensslLib:obj_dat.obj
 0002:0000ca30       ??_C@_08DMGIGJJO@shake256@ 0000000000061750     OpensslLib:obj_dat.obj
 0002:0000ca40       ??_C@_0BE@MGFGMONP@id?9hmacWithSHA3?9224@ 0000000000061760     OpensslLib:obj_dat.obj
 0002:0000ca58       ??_C@_0O@ICMEJKOD@hmac?9sha3?9224@ 0000000000061778     OpensslLib:obj_dat.obj
 0002:0000ca68       ??_C@_0BE@PBCPLKNI@id?9hmacWithSHA3?9256@ 0000000000061788     OpensslLib:obj_dat.obj
 0002:0000ca80       ??_C@_0O@LFLNOOOE@hmac?9sha3?9256@ 00000000000617a0     OpensslLib:obj_dat.obj
 0002:0000ca90       ??_C@_0BE@HDHNCMGM@id?9hmacWithSHA3?9384@ 00000000000617b0     OpensslLib:obj_dat.obj
 0002:0000caa8       ??_C@_0O@DHOPHIFA@hmac?9sha3?9384@ 00000000000617c8     OpensslLib:obj_dat.obj
 0002:0000cab8       ??_C@_0BE@PJNOPLJ@id?9hmacWithSHA3?9512@ 00000000000617d8     OpensslLib:obj_dat.obj
 0002:0000cad0       ??_C@_0O@ELAPLLIF@hmac?9sha3?9512@ 00000000000617f0     OpensslLib:obj_dat.obj
 0002:0000cae0       ??_C@_0BD@LAAPDDDN@id?9dsa?9with?9sha384@ 0000000000061800     OpensslLib:obj_dat.obj
 0002:0000caf8       ??_C@_0BA@NOAAHENE@dsa_with_SHA384@ 0000000000061818     OpensslLib:obj_dat.obj
 0002:0000cb08       ??_C@_0BD@MMOPPAOI@id?9dsa?9with?9sha512@ 0000000000061828     OpensslLib:obj_dat.obj
 0002:0000cb20       ??_C@_0BA@KCOALHAB@dsa_with_SHA512@ 0000000000061840     OpensslLib:obj_dat.obj
 0002:0000cb30       ??_C@_0BF@MEJGBMIA@id?9dsa?9with?9sha3?9224@ 0000000000061850     OpensslLib:obj_dat.obj
 0002:0000cb48       ??_C@_0BC@KDJCOOBJ@dsa_with_SHA3?9224@ 0000000000061868     OpensslLib:obj_dat.obj
 0002:0000cb60       ??_C@_0BF@PDOPGIIH@id?9dsa?9with?9sha3?9256@ 0000000000061880     OpensslLib:obj_dat.obj
 0002:0000cb78       ??_C@_0BC@JEOLJKBO@dsa_with_SHA3?9256@ 0000000000061898     OpensslLib:obj_dat.obj
 0002:0000cb90       ??_C@_0BF@HBLNPODD@id?9dsa?9with?9sha3?9384@ 00000000000618b0     OpensslLib:obj_dat.obj
 0002:0000cba8       ??_C@_0BC@BGLJAMKK@dsa_with_SHA3?9384@ 00000000000618c8     OpensslLib:obj_dat.obj
 0002:0000cbc0       ??_C@_0BF@NFNDNOG@id?9dsa?9with?9sha3?9512@ 00000000000618e0     OpensslLib:obj_dat.obj
 0002:0000cbd8       ??_C@_0BC@GKFJMPHP@dsa_with_SHA3?9512@ 00000000000618f8     OpensslLib:obj_dat.obj
 0002:0000cbf0       ??_C@_0BH@CPKNOLKD@id?9ecdsa?9with?9sha3?9224@ 0000000000061910     OpensslLib:obj_dat.obj
 0002:0000cc08       ??_C@_0BE@HAIIGEO@ecdsa_with_SHA3?9224@ 0000000000061928     OpensslLib:obj_dat.obj
 0002:0000cc20       ??_C@_0BH@BINEJPKE@id?9ecdsa?9with?9sha3?9256@ 0000000000061940     OpensslLib:obj_dat.obj
 0002:0000cc38       ??_C@_0BE@DAHBPCEJ@ecdsa_with_SHA3?9256@ 0000000000061958     OpensslLib:obj_dat.obj
 0002:0000cc50       ??_C@_0BH@JKIGAJBA@id?9ecdsa?9with?9sha3?9384@ 0000000000061970     OpensslLib:obj_dat.obj
 0002:0000cc68       ??_C@_0BE@LCCDGEPN@ecdsa_with_SHA3?9384@ 0000000000061988     OpensslLib:obj_dat.obj
 0002:0000cc80       ??_C@_0BH@OGGGMKMF@id?9ecdsa?9with?9sha3?9512@ 00000000000619a0     OpensslLib:obj_dat.obj
 0002:0000cc98       ??_C@_0BE@MOMDKHCI@ecdsa_with_SHA3?9512@ 00000000000619b8     OpensslLib:obj_dat.obj
 0002:0000ccb0       ??_C@_0CD@HOFJHNFO@id?9rsassa?9pkcs1?9v1_5?9with?9sha3?9@ 00000000000619d0     OpensslLib:obj_dat.obj
 0002:0000ccd8       ??_C@_0N@FBFOELEH@RSA?9SHA3?9224@ 00000000000619f8     OpensslLib:obj_dat.obj
 0002:0000cce8       ??_C@_0CD@EJCAAJFJ@id?9rsassa?9pkcs1?9v1_5?9with?9sha3?9@ 0000000000061a08     OpensslLib:obj_dat.obj
 0002:0000cd10       ??_C@_0N@GGCHDPEA@RSA?9SHA3?9256@ 0000000000061a30     OpensslLib:obj_dat.obj
 0002:0000cd20       ??_C@_0CD@MLHCJPON@id?9rsassa?9pkcs1?9v1_5?9with?9sha3?9@ 0000000000061a40     OpensslLib:obj_dat.obj
 0002:0000cd48       ??_C@_0N@OEHFKJPE@RSA?9SHA3?9384@ 0000000000061a68     OpensslLib:obj_dat.obj
 0002:0000cd58       ??_C@_0CD@LHJCFMDI@id?9rsassa?9pkcs1?9v1_5?9with?9sha3?9@ 0000000000061a78     OpensslLib:obj_dat.obj
 0002:0000cd80       ??_C@_0N@JIJFGKCB@RSA?9SHA3?9512@ 0000000000061aa0     OpensslLib:obj_dat.obj
 0002:0000cd90       ??_C@_0N@PGFKGHCP@ARIA?9128?9CCM@ 0000000000061ab0     OpensslLib:obj_dat.obj
 0002:0000cda0       ??_C@_0N@JJCPLGFJ@aria?9128?9ccm@ 0000000000061ac0     OpensslLib:obj_dat.obj
 0002:0000cdb0       ??_C@_0N@FFMGBALD@ARIA?9192?9CCM@ 0000000000061ad0     OpensslLib:obj_dat.obj
 0002:0000cdc0       ??_C@_0N@DKLDMBMF@aria?9192?9ccm@ 0000000000061ae0     OpensslLib:obj_dat.obj
 0002:0000cdd0       ??_C@_0N@IHHIDPDC@ARIA?9256?9CCM@ 0000000000061af0     OpensslLib:obj_dat.obj
 0002:0000cde0       ??_C@_0N@OIANOOEE@aria?9256?9ccm@ 0000000000061b00     OpensslLib:obj_dat.obj
 0002:0000cdf0       ??_C@_0N@HJDIPAHI@ARIA?9128?9GCM@ 0000000000061b10     OpensslLib:obj_dat.obj
 0002:0000ce00       ??_C@_0N@BGENCBAO@aria?9128?9gcm@ 0000000000061b20     OpensslLib:obj_dat.obj
 0002:0000ce10       ??_C@_0N@NKKEIHOE@ARIA?9192?9GCM@ 0000000000061b30     OpensslLib:obj_dat.obj
 0002:0000ce20       ??_C@_0N@LFNBFGJC@aria?9192?9gcm@ 0000000000061b40     OpensslLib:obj_dat.obj
 0002:0000ce30       ??_C@_0N@IBKKIGF@ARIA?9256?9GCM@ 0000000000061b50     OpensslLib:obj_dat.obj
 0002:0000ce40       ??_C@_0N@GHGPHJBD@aria?9256?9gcm@ 0000000000061b60     OpensslLib:obj_dat.obj
 0002:0000ce50       ??_C@_09EEADMLEK@ffdhe2048@ 0000000000061b70     OpensslLib:obj_dat.obj
 0002:0000ce60       ??_C@_09IBMKLECJ@ffdhe3072@ 0000000000061b80     OpensslLib:obj_dat.obj
 0002:0000ce70       ??_C@_09FNBIIADH@ffdhe4096@ 0000000000061b90     OpensslLib:obj_dat.obj
 0002:0000ce80       ??_C@_09KFIKEFOD@ffdhe6144@ 0000000000061ba0     OpensslLib:obj_dat.obj
 0002:0000ce90       ??_C@_09EEDIMPFH@ffdhe8192@ 0000000000061bb0     OpensslLib:obj_dat.obj
 0002:0000ce9c       ??_C@_05BDNCIFGE@cmcCA@    0000000000061bbc     OpensslLib:obj_dat.obj
 0002:0000cea8       ??_C@_0BK@LBDJBFMP@CMC?5Certificate?5Authority@ 0000000000061bc8     OpensslLib:obj_dat.obj
 0002:0000cec4       ??_C@_05ODGEMCD@cmcRA@     0000000000061be4     OpensslLib:obj_dat.obj
 0002:0000ced0       ??_C@_0BL@NBGEGOFM@CMC?5Registration?5Authority@ 0000000000061bf0     OpensslLib:obj_dat.obj
 0002:0000cef0       ??_C@_07NOELNIBF@SM4?9ECB@ 0000000000061c10     OpensslLib:obj_dat.obj
 0002:0000cef8       ??_C@_07OFHLEOKD@sm4?9ecb@ 0000000000061c18     OpensslLib:obj_dat.obj
 0002:0000cf00       ??_C@_07ODPJNMLP@SM4?9CBC@ 0000000000061c20     OpensslLib:obj_dat.obj
 0002:0000cf08       ??_C@_07NIMJEKAJ@sm4?9cbc@ 0000000000061c28     OpensslLib:obj_dat.obj
 0002:0000cf10       ??_C@_07LHDNPKJK@SM4?9OFB@ 0000000000061c30     OpensslLib:obj_dat.obj
 0002:0000cf18       ??_C@_07IMANGMCM@sm4?9ofb@ 0000000000061c38     OpensslLib:obj_dat.obj
 0002:0000cf20       ??_C@_08BDMAKNBD@SM4?9CFB1@ 0000000000061c40     OpensslLib:obj_dat.obj
 0002:0000cf30       ??_C@_08DBPJILDM@sm4?9cfb1@ 0000000000061c50     OpensslLib:obj_dat.obj
 0002:0000cf40       ??_C@_07PNOLEFCC@SM4?9CFB@ 0000000000061c60     OpensslLib:obj_dat.obj
 0002:0000cf48       ??_C@_07MGNLNDJE@sm4?9cfb@ 0000000000061c68     OpensslLib:obj_dat.obj
 0002:0000cf50       ??_C@_08MCACBGFK@SM4?9CFB8@ 0000000000061c70     OpensslLib:obj_dat.obj
 0002:0000cf60       ??_C@_08OADLDAHF@sm4?9cfb8@ 0000000000061c80     OpensslLib:obj_dat.obj
 0002:0000cf70       ??_C@_07KIILCAGN@SM4?9CTR@ 0000000000061c90     OpensslLib:obj_dat.obj
 0002:0000cf78       ??_C@_07JDLLLGNL@sm4?9ctr@ 0000000000061c98     OpensslLib:obj_dat.obj
 0002:0000cf80       ??_C@_06KNMHIDBL@ISO?9CN@  0000000000061ca0     OpensslLib:obj_dat.obj
 0002:0000cf88       ??_C@_0BD@GLPDOOPB@ISO?5CN?5Member?5Body@ 0000000000061ca8     OpensslLib:obj_dat.obj
 0002:0000cf9c       ??_C@_05BGAJAOLO@oscca@    0000000000061cbc     OpensslLib:obj_dat.obj
 0002:0000cfa8       ??_C@_09GAILPDAI@sm?9scheme@ 0000000000061cc8     OpensslLib:obj_dat.obj
 0002:0000cfb4       ??_C@_03ILCKPLAM@SM3@      0000000000061cd4     OpensslLib:obj_dat.obj
 0002:0000cfb8       ??_C@_03BDFFBCNC@sm3@      0000000000061cd8     OpensslLib:obj_dat.obj
 0002:0000cfc0       ??_C@_07DHCHMOJE@RSA?9SM3@ 0000000000061ce0     OpensslLib:obj_dat.obj
 0002:0000cfc8       ??_C@_0BF@LJEMNFBJ@sm3WithRSAEncryption@ 0000000000061ce8     OpensslLib:obj_dat.obj
 0002:0000cfe0       ??_C@_0P@BJPJCBFP@RSA?9SHA512?1224@ 0000000000061d00     OpensslLib:obj_dat.obj
 0002:0000cff0       ??_C@_0BM@OAMEHMHD@sha512?9224WithRSAEncryption@ 0000000000061d10     OpensslLib:obj_dat.obj
 0002:0000d010       ??_C@_0P@COIAFFFI@RSA?9SHA512?1256@ 0000000000061d30     OpensslLib:obj_dat.obj
 0002:0000d020       ??_C@_0BM@HFDENMBB@sha512?9256WithRSAEncryption@ 0000000000061d40     OpensslLib:obj_dat.obj
 0002:0000d040       ??_C@_0CF@ELFGJJJE@id?9tc26?9gost?93410?92012?9256?9cons@ 0000000000061d60     OpensslLib:obj_dat.obj
 0002:0000d068       ??_C@_0CF@FBBBLKKL@id?9tc26?9gost?93410?92012?9256?9para@ 0000000000061d88     OpensslLib:obj_dat.obj
 0002:0000d090       ??_C@_0CH@KHJMDINL@GOST?5R?534?410?92012?5?$CI256?5bit?$CJ?5Par@ 0000000000061db0     OpensslLib:obj_dat.obj
 0002:0000d0b8       ??_C@_0CF@MFFFCDAA@id?9tc26?9gost?93410?92012?9512?9para@ 0000000000061dd8     OpensslLib:obj_dat.obj
 0002:0000d0e0       ??_C@_0CH@JGCOCGCO@GOST?5R?534?410?92012?5?$CI512?5bit?$CJ?5Par@ 0000000000061e00     OpensslLib:obj_dat.obj
 0002:0000d108       ??_C@_06DCPEEABG@ISO?9UA@  0000000000061e28     OpensslLib:obj_dat.obj
 0002:0000d110       ??_C@_06LNLILMPE@ua?9pki@  0000000000061e30     OpensslLib:obj_dat.obj
 0002:0000d118       ??_C@_09LIAMILCI@dstu28147@ 0000000000061e38     OpensslLib:obj_dat.obj
 0002:0000d128       ??_C@_0BF@BOFOAMLJ@DSTU?5Gost?528147?92009@ 0000000000061e48     OpensslLib:obj_dat.obj
 0002:0000d140       ??_C@_0O@KAGMLFFF@dstu28147?9ofb@ 0000000000061e60     OpensslLib:obj_dat.obj
 0002:0000d150       ??_C@_0BO@NJFBFPDF@DSTU?5Gost?528147?92009?5OFB?5mode@ 0000000000061e70     OpensslLib:obj_dat.obj
 0002:0000d170       ??_C@_0O@OKLKAKON@dstu28147?9cfb@ 0000000000061e90     OpensslLib:obj_dat.obj
 0002:0000d180       ??_C@_0BO@DPGFKMCB@DSTU?5Gost?528147?92009?5CFB?5mode@ 0000000000061ea0     OpensslLib:obj_dat.obj
 0002:0000d1a0       ??_C@_0P@LJDDBCOK@dstu28147?9wrap@ 0000000000061ec0     OpensslLib:obj_dat.obj
 0002:0000d1b0       ??_C@_0BO@GCIMDMBJ@DSTU?5Gost?528147?92009?5key?5wrap@ 0000000000061ed0     OpensslLib:obj_dat.obj
 0002:0000d1d0       ??_C@_0BC@NEKEGBFA@hmacWithDstu34311@ 0000000000061ef0     OpensslLib:obj_dat.obj
 0002:0000d1e8       ??_C@_0BI@PPEFMJDF@HMAC?5DSTU?5Gost?534311?995@ 0000000000061f08     OpensslLib:obj_dat.obj
 0002:0000d200       ??_C@_09EMDIBIGK@dstu34311@ 0000000000061f20     OpensslLib:obj_dat.obj
 0002:0000d210       ??_C@_0BD@KEGEMFDO@DSTU?5Gost?534311?995@ 0000000000061f30     OpensslLib:obj_dat.obj
 0002:0000d228       ??_C@_0L@HJONHGCF@dstu4145le@ 0000000000061f48     OpensslLib:obj_dat.obj
 0002:0000d238       ??_C@_0BN@DLDIMCIJ@DSTU?54145?92002?5little?5endian@ 0000000000061f58     OpensslLib:obj_dat.obj
 0002:0000d258       ??_C@_0L@HDHDFLCP@dstu4145be@ 0000000000061f78     OpensslLib:obj_dat.obj
 0002:0000d268       ??_C@_0BK@JAHDELLE@DSTU?54145?92002?5big?5endian@ 0000000000061f88     OpensslLib:obj_dat.obj
 0002:0000d288       ??_C@_08CCOHEDD@uacurve0@  0000000000061fa8     OpensslLib:obj_dat.obj
 0002:0000d298       ??_C@_0N@OIEODNOG@DSTU?5curve?50@ 0000000000061fb8     OpensslLib:obj_dat.obj
 0002:0000d2a8       ??_C@_08BLDFEFHC@uacurve1@ 0000000000061fc8     OpensslLib:obj_dat.obj
 0002:0000d2b8       ??_C@_0N@PBFFAMKH@DSTU?5curve?51@ 0000000000061fd8     OpensslLib:obj_dat.obj
 0002:0000d2c8       ??_C@_08DABIBGLB@uacurve2@ 0000000000061fe8     OpensslLib:obj_dat.obj
 0002:0000d2d8       ??_C@_0N@NKHIFPGE@DSTU?5curve?52@ 0000000000061ff8     OpensslLib:obj_dat.obj
 0002:0000d2e8       ??_C@_08CJADCHPA@uacurve3@ 0000000000062008     OpensslLib:obj_dat.obj
 0002:0000d2f8       ??_C@_0N@MDGDGOCF@DSTU?5curve?53@ 0000000000062018     OpensslLib:obj_dat.obj
 0002:0000d308       ??_C@_08GGECLBDH@uacurve4@ 0000000000062028     OpensslLib:obj_dat.obj
 0002:0000d318       ??_C@_0N@IMCCPIOC@DSTU?5curve?54@ 0000000000062038     OpensslLib:obj_dat.obj
 0002:0000d328       ??_C@_08HPFJIAHG@uacurve5@ 0000000000062048     OpensslLib:obj_dat.obj
 0002:0000d338       ??_C@_0N@JFDJMJKD@DSTU?5curve?55@ 0000000000062058     OpensslLib:obj_dat.obj
 0002:0000d348       ??_C@_08FEHENDLF@uacurve6@ 0000000000062068     OpensslLib:obj_dat.obj
 0002:0000d358       ??_C@_0N@LOBEJKGA@DSTU?5curve?56@ 0000000000062078     OpensslLib:obj_dat.obj
 0002:0000d368       ??_C@_08ENGPOCPE@uacurve7@ 0000000000062088     OpensslLib:obj_dat.obj
 0002:0000d378       ??_C@_0N@KHAPKLCB@DSTU?5curve?57@ 0000000000062098     OpensslLib:obj_dat.obj
 0002:0000d388       ??_C@_08MKPHPODL@uacurve8@ 00000000000620a8     OpensslLib:obj_dat.obj
 0002:0000d398       ??_C@_0N@CAJHLHOO@DSTU?5curve?58@ 00000000000620b8     OpensslLib:obj_dat.obj
 0002:0000d3a8       ??_C@_08NDOMMPHK@uacurve9@ 00000000000620c8     OpensslLib:obj_dat.obj
 0002:0000d3b8       ??_C@_0N@DJIMIGKP@DSTU?5curve?59@ 00000000000620d8     OpensslLib:obj_dat.obj
 0002:0000d3c8       ??_C@_04PHJBIMMG@ieee@     00000000000620e8     OpensslLib:obj_dat.obj
 0002:0000d3d0       ??_C@_0L@LDKGPNGG@ieee?9siswg@ 00000000000620f0     OpensslLib:obj_dat.obj
 0002:0000d3e0       ??_C@_0CH@DHDAMGDO@IEEE?5Security?5in?5Storage?5Workin@ 0000000000062100     OpensslLib:obj_dat.obj
 0002:0000d408       ??_C@_03JCDBMKEN@SM2@      0000000000062128     OpensslLib:obj_dat.obj
 0002:0000d40c       ??_C@_03KEOCDJD@sm2@       000000000006212c     OpensslLib:obj_dat.obj
 0002:0000d410       ??_C@_0CE@MLINIGJF@id?9tc26?9cipher?9gostr3412?92015?9m@ 0000000000062130     OpensslLib:obj_dat.obj
 0002:0000d438       ??_C@_0CN@OJMMMFNF@id?9tc26?9cipher?9gostr3412?92015?9m@ 0000000000062158     OpensslLib:obj_dat.obj
 0002:0000d468       ??_C@_0DC@HJFGIJEF@id?9tc26?9cipher?9gostr3412?92015?9m@ 0000000000062188     OpensslLib:obj_dat.obj
 0002:0000d4a0       ??_C@_0CJ@OIMAFCDH@id?9tc26?9cipher?9gostr3412?92015?9k@ 00000000000621c0     OpensslLib:obj_dat.obj
 0002:0000d4d0       ??_C@_0DC@FCNHEHI@id?9tc26?9cipher?9gostr3412?92015?9k@ 00000000000621f0     OpensslLib:obj_dat.obj
 0002:0000d508       ??_C@_0DH@OMEPNOK@id?9tc26?9cipher?9gostr3412?92015?9k@ 0000000000062228     OpensslLib:obj_dat.obj
 0002:0000d540       ??_C@_0N@NOHKDKEG@id?9tc26?9wrap@ 0000000000062260     OpensslLib:obj_dat.obj
 0002:0000d550       ??_C@_0CC@ICCBFKEK@id?9tc26?9wrap?9gostr3412?92015?9mag@ 0000000000062270     OpensslLib:obj_dat.obj
 0002:0000d578       ??_C@_0CJ@GAGBMOFA@id?9tc26?9wrap?9gostr3412?92015?9mag@ 0000000000062298     OpensslLib:obj_dat.obj
 0002:0000d5a8       ??_C@_0CH@HODOOMNG@id?9tc26?9wrap?9gostr3412?92015?9kuz@ 00000000000622c8     OpensslLib:obj_dat.obj
 0002:0000d5d0       ??_C@_0CO@KKJKILDM@id?9tc26?9wrap?9gostr3412?92015?9kuz@ 00000000000622f0     OpensslLib:obj_dat.obj
 0002:0000d600       ??_C@_0CF@HKDMOJGI@id?9tc26?9gost?93410?92012?9256?9para@ 0000000000062320     OpensslLib:obj_dat.obj
 0002:0000d628       ??_C@_0CH@IMLBGLBI@GOST?5R?534?410?92012?5?$CI256?5bit?$CJ?5Par@ 0000000000062348     OpensslLib:obj_dat.obj
 0002:0000d650       ??_C@_0CF@GDCHNICJ@id?9tc26?9gost?93410?92012?9256?9para@ 0000000000062370     OpensslLib:obj_dat.obj
 0002:0000d678       ??_C@_0CH@JFKKFKFJ@GOST?5R?534?410?92012?5?$CI256?5bit?$CJ?5Par@ 0000000000062398     OpensslLib:obj_dat.obj
 0002:0000d6a0       ??_C@_0CF@CMGGEOOO@id?9tc26?9gost?93410?92012?9256?9para@ 00000000000623c0     OpensslLib:obj_dat.obj
 0002:0000d6c8       ??_C@_0CH@NKOLMMJO@GOST?5R?534?410?92012?5?$CI256?5bit?$CJ?5Par@ 00000000000623e8     OpensslLib:obj_dat.obj
 0002:0000d6f0       ??_C@_09KIGAEFAO@magma?9ecb@ 0000000000062410     OpensslLib:obj_dat.obj
 0002:0000d700       ??_C@_09NOKALNHG@magma?9ctr@ 0000000000062420     OpensslLib:obj_dat.obj
 0002:0000d710       ??_C@_09MBBGGHIB@magma?9ofb@ 0000000000062430     OpensslLib:obj_dat.obj
 0002:0000d720       ??_C@_09JFNCEBKE@magma?9cbc@ 0000000000062440     OpensslLib:obj_dat.obj
 0002:0000d730       ??_C@_09ILMANIDJ@magma?9cfb@ 0000000000062450     OpensslLib:obj_dat.obj
 0002:0000d740       ??_C@_09HHELIIMO@magma?9mac@ 0000000000062460     OpensslLib:obj_dat.obj
 0002:0000d750       ??_C@_0BD@EJFCDPF@hmacWithSHA512?9224@ 0000000000062470     OpensslLib:obj_dat.obj
 0002:0000d768       ??_C@_0BD@DDOMFHPC@hmacWithSHA512?9256@ 0000000000062488     OpensslLib:obj_dat.obj
 0002:0001e678       X509_NAME_it               0000000000073398     OpensslLib:x_name.obj
 0002:0001e6a8       ??_C@_06IEOJBDIK@object@   00000000000733c8     OpensslLib:x_name.obj
 0002:0001e6b0       ??_C@_05MFEJDJP@value@     00000000000733d0     OpensslLib:x_name.obj
 0002:0001e6b8       ??_C@_0BA@KEPIIMOE@X509_NAME_ENTRY@ 00000000000733d8     OpensslLib:x_name.obj
 0002:0001e6c8       ??_C@_04IEOKPFHO@RDNS@     00000000000733e8     OpensslLib:x_name.obj
 0002:0001e6d0       ??_C@_0BC@GJMCELDI@X509_NAME_ENTRIES@ 00000000000733f0     OpensslLib:x_name.obj
 0002:0001e6e4       ??_C@_04FABLJDN@Name@      0000000000073404     OpensslLib:x_name.obj
 0002:0001e6f0       ??_C@_0BD@FDNDONGH@X509_NAME_INTERNAL@ 0000000000073410     OpensslLib:x_name.obj
 0002:0001e708       ??_C@_09KGNJKBNF@X509_NAME@ 0000000000073428     OpensslLib:x_name.obj
 0002:0001e714       ??_C@_02KEGNLNML@?0?5@     0000000000073434     OpensslLib:x_name.obj
 0002:0001e780       X509_NAME_ENTRY_it         00000000000734a0     OpensslLib:x_name.obj
 0002:0001e868       ??_C@_05DFCJAACA@name?$DN@ 0000000000073588     OpensslLib:x509name.obj
 0002:0001e870       ??_C@_01KICIPPFI@?2@       0000000000073590     OpensslLib:a_strex.obj
 0002:0001e874       ??_C@_02HDBGODGB@?2?2@     0000000000073594     OpensslLib:a_strex.obj
 0002:0001e878       ??_C@_01IPJKGB@?$CD@       0000000000073598     OpensslLib:a_strex.obj
 0002:0001e87c       ??_C@_01JLIPDDHJ@?3@       000000000007359c     OpensslLib:a_strex.obj
 0002:0001e880       ??_C@_01BJJEKLCA@?$CC@     00000000000735a0     OpensslLib:a_strex.obj
 0002:0001e884       ??_C@_01EEMJAFIK@?6@       00000000000735a4     OpensslLib:a_strex.obj
 0002:0001e888       ??_C@_03NPBFACHO@?5?$CL?5@ 00000000000735a8     OpensslLib:a_strex.obj
 0002:0001e88c       ??_C@_01IHBHIGKO@?0@       00000000000735ac     OpensslLib:a_strex.obj
 0002:0001e890       ??_C@_01MIFGBAGJ@?$CL@     00000000000735b0     OpensslLib:a_strex.obj
 0002:0001e894       ??_C@_02LNAEAIDO@?$DL?5@   00000000000735b4     OpensslLib:a_strex.obj
 0002:0001e898       ??_C@_03MHLONNLM@?5?$DN?5@ 00000000000735b8     OpensslLib:a_strex.obj
 0002:0001e89c       ??_C@_01NEMOKFLO@?$DN@     00000000000735bc     OpensslLib:a_strex.obj
 0002:0001e9c0       ??_C@_0BB@JGGOGLEG@0123456789ABCDEF@ 00000000000736e0     OpensslLib:f_int.obj
 0002:0001e9d8       RSAPublicKey_it            00000000000736f8     OpensslLib:rsa_asn1.obj
 0002:0001ea08       RSAPrivateKey_it           0000000000073728     OpensslLib:rsa_asn1.obj
 0002:0001ea38       ??_C@_01KDCPPGHE@r@        0000000000073758     OpensslLib:rsa_asn1.obj
 0002:0001ea3c       ??_C@_01LPLHEDKD@d@        000000000007375c     OpensslLib:rsa_asn1.obj
 0002:0001ea40       ??_C@_01PFHFFBPC@t@        0000000000073760     OpensslLib:rsa_asn1.obj
 0002:0001ea48       ??_C@_0P@LIGOHEON@RSA_PRIME_INFO@ 0000000000073768     OpensslLib:rsa_asn1.obj
 0002:0001ea58       ??_C@_01EFFIKLCJ@n@        0000000000073778     OpensslLib:rsa_asn1.obj
 0002:0001ea5c       ??_C@_01KGKMHCOC@e@        000000000007377c     OpensslLib:rsa_asn1.obj
 0002:0001ea60       ??_C@_01JBBJJEPG@p@        0000000000073780     OpensslLib:rsa_asn1.obj
 0002:0001ea64       ??_C@_01IIACKFLH@q@        0000000000073784     OpensslLib:rsa_asn1.obj
 0002:0001ea68       ??_C@_04OIPJJFD@dmp1@      0000000000073788     OpensslLib:rsa_asn1.obj
 0002:0001ea70       ??_C@_04PENPDGE@dmq1@      0000000000073790     OpensslLib:rsa_asn1.obj
 0002:0001ea78       ??_C@_04BBEMPLKC@iqmp@     0000000000073798     OpensslLib:rsa_asn1.obj
 0002:0001ea80       ??_C@_0M@JLELLENH@prime_infos@ 00000000000737a0     OpensslLib:rsa_asn1.obj
 0002:0001ea90       ??_C@_0O@PHAOOKLC@RSAPrivateKey@ 00000000000737b0     OpensslLib:rsa_asn1.obj
 0002:0001eaa0       ??_C@_0N@BFBLLDFG@RSAPublicKey@ 00000000000737c0     OpensslLib:rsa_asn1.obj
 0002:0001eab0       ??_C@_0O@DHJLLKEK@hashAlgorithm@ 00000000000737d0     OpensslLib:rsa_asn1.obj
 0002:0001eac0       ??_C@_0BB@KKPGFJED@maskGenAlgorithm@ 00000000000737e0     OpensslLib:rsa_asn1.obj
 0002:0001ead8       ??_C@_0L@PKGNFOCE@saltLength@ 00000000000737f8     OpensslLib:rsa_asn1.obj
 0002:0001eae8       ??_C@_0N@KGDDKMLA@trailerField@ 0000000000073808     OpensslLib:rsa_asn1.obj
 0002:0001eaf8       ??_C@_0P@PJJHDFJB@RSA_PSS_PARAMS@ 0000000000073818     OpensslLib:rsa_asn1.obj
 0002:0001ece8       RSA_PRIME_INFO_it          0000000000073a08     OpensslLib:rsa_asn1.obj
 0002:0001edc0       RSA_PSS_PARAMS_it          0000000000073ae0     OpensslLib:rsa_asn1.obj
 0002:0001ef50       ASN1_OBJECT_it             0000000000073c70     OpensslLib:tasn_typ.obj
 0002:0001ef80       ASN1_OCTET_STRING_it       0000000000073ca0     OpensslLib:tasn_typ.obj
 0002:0001efb0       ASN1_GENERALIZEDTIME_it    0000000000073cd0     OpensslLib:tasn_typ.obj
 0002:0001efe0       ASN1_FBOOLEAN_it           0000000000073d00     OpensslLib:tasn_typ.obj
 0002:0001f010       ASN1_INTEGER_it            0000000000073d30     OpensslLib:tasn_typ.obj
 0002:0001f040       ASN1_BIT_STRING_it         0000000000073d60     OpensslLib:tasn_typ.obj
 0002:0001f070       ASN1_OCTET_STRING_NDEF_it  0000000000073d90     OpensslLib:tasn_typ.obj
 0002:0001f0a0       ASN1_ANY_it                0000000000073dc0     OpensslLib:tasn_typ.obj
 0002:0001f0d0       ASN1_PRINTABLE_it          0000000000073df0     OpensslLib:tasn_typ.obj
 0002:0001f100       ??_C@_0BC@PEBEKNCO@ASN1_OCTET_STRING@ 0000000000073e20     OpensslLib:tasn_typ.obj
 0002:0001f118       ??_C@_0N@KIGEHGKE@ASN1_INTEGER@ 0000000000073e38     OpensslLib:tasn_typ.obj
 0002:0001f128       ??_C@_0BA@CLGIIAJD@ASN1_ENUMERATED@ 0000000000073e48     OpensslLib:tasn_typ.obj
 0002:0001f138       ??_C@_0BA@LJHGDIKH@ASN1_BIT_STRING@ 0000000000073e58     OpensslLib:tasn_typ.obj
 0002:0001f148       ??_C@_0BA@LEPDCAOC@ASN1_UTF8STRING@ 0000000000073e68     OpensslLib:tasn_typ.obj
 0002:0001f158       ??_C@_0BF@CPDMNKCA@ASN1_PRINTABLESTRING@ 0000000000073e78     OpensslLib:tasn_typ.obj
 0002:0001f170       ??_C@_0P@KBFNFBLB@ASN1_IA5STRING@ 0000000000073e90     OpensslLib:tasn_typ.obj
 0002:0001f180       ??_C@_0BF@MPJFOIHC@ASN1_GENERALIZEDTIME@ 0000000000073ea0     OpensslLib:tasn_typ.obj
 0002:0001f198       ??_C@_09NHFFCPKK@ASN1_NULL@ 0000000000073eb8     OpensslLib:tasn_typ.obj
 0002:0001f1a8       ??_C@_0M@BJNOJGBL@ASN1_OBJECT@ 0000000000073ec8     OpensslLib:tasn_typ.obj
 0002:0001f1b8       ??_C@_08FIDCPDIJ@ASN1_ANY@ 0000000000073ed8     OpensslLib:tasn_typ.obj
 0002:0001f1c8       ??_C@_0O@NJFCFMGE@ASN1_SEQUENCE@ 0000000000073ee8     OpensslLib:tasn_typ.obj
 0002:0001f1d8       ??_C@_0P@NDKOCAEJ@ASN1_PRINTABLE@ 0000000000073ef8     OpensslLib:tasn_typ.obj
 0002:0001f1e8       ??_C@_0M@FANFDIEE@DISPLAYTEXT@ 0000000000073f08     OpensslLib:tasn_typ.obj
 0002:0001f1f8       ??_C@_0BA@CBHCBCAE@DIRECTORYSTRING@ 0000000000073f18     OpensslLib:tasn_typ.obj
 0002:0001f208       ??_C@_0N@HMAPMMGF@ASN1_BOOLEAN@ 0000000000073f28     OpensslLib:tasn_typ.obj
 0002:0001f218       ??_C@_0O@JKANHMPI@ASN1_FBOOLEAN@ 0000000000073f38     OpensslLib:tasn_typ.obj
 0002:0001f228       ??_C@_0BH@HEBAELGA@ASN1_OCTET_STRING_NDEF@ 0000000000073f48     OpensslLib:tasn_typ.obj
 0002:0001f240       ??_C@_0BC@COPGMDLD@ASN1_SEQUENCE_ANY@ 0000000000073f60     OpensslLib:tasn_typ.obj
 0002:0001f258       ??_C@_0N@KHICOJGI@ASN1_SET_ANY@ 0000000000073f78     OpensslLib:tasn_typ.obj
 0002:0001f268       ASN1_NULL_it               0000000000073f88     OpensslLib:tasn_typ.obj
 0002:0001f298       ASN1_SEQUENCE_ANY_it       0000000000073fb8     OpensslLib:tasn_typ.obj
 0002:0001f2c8       ASN1_ENUMERATED_it         0000000000073fe8     OpensslLib:tasn_typ.obj
 0002:0001f318       ASN1_BOOLEAN_it            0000000000074038     OpensslLib:tasn_typ.obj
 0002:0001f348       ASN1_UTF8STRING_it         0000000000074068     OpensslLib:tasn_typ.obj
 0002:0001f378       ASN1_SET_ANY_it            0000000000074098     OpensslLib:tasn_typ.obj
 0002:0001f3c8       ASN1_PRINTABLESTRING_it    00000000000740e8     OpensslLib:tasn_typ.obj
 0002:0001f3f8       ASN1_IA5STRING_it          0000000000074118     OpensslLib:tasn_typ.obj
 0002:0001f428       DIRECTORYSTRING_it         0000000000074148     OpensslLib:tasn_typ.obj
 0002:0001f458       ASN1_SEQUENCE_it           0000000000074178     OpensslLib:tasn_typ.obj
 0002:0001f488       DISPLAYTEXT_it             00000000000741a8     OpensslLib:tasn_typ.obj
 0002:0001f4b8       ??_C@_07NHKPEHKF@?0?5Type?$DN@ 00000000000741d8     OpensslLib:tasn_dec.obj
 0002:0001f4c0       ??_C@_06GPKHKFJE@Field?$DN@ 00000000000741e0     OpensslLib:tasn_dec.obj
 0002:0001f4c8       ??_C@_05GCCLHHOK@Type?$DN@ 00000000000741e8     OpensslLib:tasn_dec.obj
 0002:0001f550       X509_ALGOR_it              0000000000074270     OpensslLib:x_algor.obj
 0002:0001f580       ??_C@_09DAGAJHIH@parameter@ 00000000000742a0     OpensslLib:x_algor.obj
 0002:0001f590       ??_C@_0L@BFHONDPK@X509_ALGOR@ 00000000000742b0     OpensslLib:x_algor.obj
 0002:0001f5e0       X509_EXTENSION_it          0000000000074300     OpensslLib:x_exten.obj
 0002:0001f610       ??_C@_08CBBMEOFB@critical@ 0000000000074330     OpensslLib:x_exten.obj
 0002:0001f620       ??_C@_0P@OMHBNPIC@X509_EXTENSION@ 0000000000074340     OpensslLib:x_exten.obj
 0002:0001f690       GENERAL_NAME_it            00000000000743b0     OpensslLib:v3_genn.obj
 0002:0001f6c0       ??_C@_07EEDOJOAA@type_id@  00000000000743e0     OpensslLib:v3_genn.obj
 0002:0001f6c8       ??_C@_09MAFAINAH@OTHERNAME@ 00000000000743e8     OpensslLib:v3_genn.obj
 0002:0001f6d8       ??_C@_0N@KBFEHHDO@nameAssigner@ 00000000000743f8     OpensslLib:v3_genn.obj
 0002:0001f6e8       ??_C@_09EHIHAIPF@partyName@ 0000000000074408     OpensslLib:v3_genn.obj
 0002:0001f6f8       ??_C@_0N@GEILLNKP@EDIPARTYNAME@ 0000000000074418     OpensslLib:v3_genn.obj
 0002:0001f708       ??_C@_0M@FGIBMCEL@d?4otherName@ 0000000000074428     OpensslLib:v3_genn.obj
 0002:0001f718       ??_C@_0N@MMCCMIPN@d?4rfc822Name@ 0000000000074438     OpensslLib:v3_genn.obj
 0002:0001f728       ??_C@_09HIBJABFB@d?4dNSName@ 0000000000074448     OpensslLib:v3_genn.obj
 0002:0001f738       ??_C@_0O@NKHOODFK@d?4x400Address@ 0000000000074458     OpensslLib:v3_genn.obj
 0002:0001f748       ??_C@_0BA@JLDFBFLN@d?4directoryName@ 0000000000074468     OpensslLib:v3_genn.obj
 0002:0001f758       ??_C@_0P@OBCPPLOL@d?4ediPartyName@ 0000000000074478     OpensslLib:v3_genn.obj
 0002:0001f768       ??_C@_0BM@CMCMADCA@d?4uniformResourceIdentifier@ 0000000000074488     OpensslLib:v3_genn.obj
 0002:0001f788       ??_C@_0M@PANAALJB@d?4iPAddress@ 00000000000744a8     OpensslLib:v3_genn.obj
 0002:0001f798       ??_C@_0P@KIENIEMD@d?4registeredID@ 00000000000744b8     OpensslLib:v3_genn.obj
 0002:0001f7a8       ??_C@_0N@JCNPGCGM@GENERAL_NAME@ 00000000000744c8     OpensslLib:v3_genn.obj
 0002:0001f7b8       ??_C@_0N@CJKIBDLK@GeneralNames@ 00000000000744d8     OpensslLib:v3_genn.obj
 0002:0001f7c8       ??_C@_0O@NFAAPMIG@GENERAL_NAMES@ 00000000000744e8     OpensslLib:v3_genn.obj
 0002:0001f7d8       OTHERNAME_it               00000000000744f8     OpensslLib:v3_genn.obj
 0002:0001f8b0       GENERAL_NAMES_it           00000000000745d0     OpensslLib:v3_genn.obj
 0002:0001f8e0       EDIPARTYNAME_it            0000000000074600     OpensslLib:v3_genn.obj
 0002:0001fa30       ??_C@_06CBHGEMFM@?$DMNULL?$DO@ 0000000000074750     OpensslLib:err.obj
 0002:0001fa38       ??_C@_0L@IMDPAGCM@ssl_client@ 0000000000074758     OpensslLib:x509_vpm.obj
 0002:0001fa48       ??_C@_0L@MDHNNNKP@ssl_server@ 0000000000074768     OpensslLib:x509_vpm.obj
 0002:0001fc68       X509_CRL_it                0000000000074988     OpensslLib:x_crl.obj
 0002:0001fc98       X509_CRL_INFO_it           00000000000749b8     OpensslLib:x_crl.obj
 0002:0001fcc8       ??_C@_0P@HBDMPDNI@revocationDate@ 00000000000749e8     OpensslLib:x_crl.obj
 0002:0001fcd8       ??_C@_0N@JBPKOADN@X509_REVOKED@ 00000000000749f8     OpensslLib:x_crl.obj
 0002:0001fce8       ??_C@_0L@MPDCJAIM@lastUpdate@ 0000000000074a08     OpensslLib:x_crl.obj
 0002:0001fcf8       ??_C@_0L@BMOABHOK@nextUpdate@ 0000000000074a18     OpensslLib:x_crl.obj
 0002:0001fd08       ??_C@_07MIJFAMBD@revoked@  0000000000074a28     OpensslLib:x_crl.obj
 0002:0001fd10       ??_C@_0O@IMOAEKCP@X509_CRL_INFO@ 0000000000074a30     OpensslLib:x_crl.obj
 0002:0001fd20       ??_C@_08JGFBPDAP@X509_CRL@ 0000000000074a40     OpensslLib:x_crl.obj
 0002:0001fd30       X509_REVOKED_it            0000000000074a50     OpensslLib:x_crl.obj
 0002:0001ff50       ??_C@_0L@LCHPILLE@SSL?5client@ 0000000000074c70     OpensslLib:v3_purp.obj
 0002:0001ff60       ??_C@_09BLMJDCHK@sslclient@ 0000000000074c80     OpensslLib:v3_purp.obj
 0002:0001ff70       ??_C@_0L@PNDNFADH@SSL?5server@ 0000000000074c90     OpensslLib:v3_purp.obj
 0002:0001ff80       ??_C@_09FEILOJPJ@sslserver@ 0000000000074ca0     OpensslLib:v3_purp.obj
 0002:0001ff90       ??_C@_0BE@BPEJPGJG@Netscape?5SSL?5server@ 0000000000074cb0     OpensslLib:v3_purp.obj
 0002:0001ffa8       ??_C@_0M@GKHHMMAE@nssslserver@ 0000000000074cc8     OpensslLib:v3_purp.obj
 0002:0001ffb8       ??_C@_0P@LNDEBCCO@S?1MIME?5signing@ 0000000000074cd8     OpensslLib:v3_purp.obj
 0002:0001ffc8       ??_C@_09JPGBHOKH@smimesign@ 0000000000074ce8     OpensslLib:v3_purp.obj
 0002:0001ffd8       ??_C@_0BC@DOGNOPGC@S?1MIME?5encryption@ 0000000000074cf8     OpensslLib:v3_purp.obj
 0002:0001fff0       ??_C@_0N@BPFJELMP@smimeencrypt@ 0000000000074d10     OpensslLib:v3_purp.obj
 0002:00020000       ??_C@_0M@MEKLJHLA@CRL?5signing@ 0000000000074d20     OpensslLib:v3_purp.obj
 0002:00020010       ??_C@_07IOMCDAPH@crlsign@  0000000000074d30     OpensslLib:v3_purp.obj
 0002:00020018       ??_C@_0M@NMNFLNDB@Any?5Purpose@ 0000000000074d38     OpensslLib:v3_purp.obj
 0002:00020024       ??_C@_03OBJFJEBA@any@      0000000000074d44     OpensslLib:v3_purp.obj
 0002:00020028       ??_C@_0M@NEPIMEJA@OCSP?5helper@ 0000000000074d48     OpensslLib:v3_purp.obj
 0002:00020038       ??_C@_0L@IMHCEJBK@ocsphelper@ 0000000000074d58     OpensslLib:v3_purp.obj
 0002:00020048       ??_C@_0BD@HLGKGIIB@Time?5Stamp?5signing@ 0000000000074d68     OpensslLib:v3_purp.obj
 0002:00020060       ??_C@_0O@MABGKINF@timestampsign@ 0000000000074d80     OpensslLib:v3_purp.obj
 0002:000200a0       ??_C@_0N@MJCHLFGM@NO?5X509_NAME@ 0000000000074dc0     OpensslLib:x509_obj.obj
 0002:000200b0       X509_PUBKEY_it             0000000000074dd0     OpensslLib:x_pubkey.obj
 0002:000200e0       ??_C@_05CJCEEADM@algor@    0000000000074e00     OpensslLib:x_pubkey.obj
 0002:000200e8       ??_C@_0L@PJCANJEE@public_key@ 0000000000074e08     OpensslLib:x_pubkey.obj
 0002:000200f8       ??_C@_0M@INJPOKDH@X509_PUBKEY@ 0000000000074e18     OpensslLib:x_pubkey.obj
 0002:00020170       ASN1_TIME_it               0000000000074e90     OpensslLib:a_time.obj
 0002:000201a0       ??_C@_09DHMKJJNA@ASN1_TIME@ 0000000000074ec0     OpensslLib:a_time.obj
 0002:000201b0       ??_C@_0BK@EMDNDBLP@?$CF04d?$CF02d?$CF02d?$CF02d?$CF02d?$CF02dZ@ 0000000000074ed0     OpensslLib:a_time.obj
 0002:000201d0       ??_C@_0BK@PMAAGDOP@?$CF02d?$CF02d?$CF02d?$CF02d?$CF02d?$CF02dZ@ 0000000000074ef0     OpensslLib:a_time.obj
 0002:000201ec       ??_C@_04FIEKMBKB@?5GMT@    0000000000074f0c     OpensslLib:a_time.obj
 0002:000201f8       ??_C@_0BP@OGIOIJMK@?$CFs?5?$CF2d?5?$CF02d?3?$CF02d?3?$CF02d?$CF?4?$CKs?5?$CFd?$CFs@ 0000000000074f18     OpensslLib:a_time.obj
 0002:00020218       ??_C@_0BL@NKCHLFNC@?$CFs?5?$CF2d?5?$CF02d?3?$CF02d?3?$CF02d?5?$CFd?$CFs@ 0000000000074f38     OpensslLib:a_time.obj
 0002:00020238       ??_C@_0P@FGACABCD@Bad?5time?5value@ 0000000000074f58     OpensslLib:a_time.obj
 0002:00020340       ??_C@_04HCDDPBNL@TRUE@     0000000000075060     OpensslLib:v3_utl.obj
 0002:00020348       ??_C@_05MAJJAKPI@FALSE@    0000000000075068     OpensslLib:v3_utl.obj
 0002:00020350       ??_C@_03EPGOEBGO@?90x@     0000000000075070     OpensslLib:v3_utl.obj
 0002:00020354       ??_C@_02MDDDDAID@0x@       0000000000075074     OpensslLib:v3_utl.obj
 0002:00020358       ??_C@_04LOAJBDKD@true@     0000000000075078     OpensslLib:v3_utl.obj
 0002:00020360       ??_C@_01NFFPALBN@Y@        0000000000075080     OpensslLib:v3_utl.obj
 0002:00020364       ??_C@_01EANLCPLP@y@        0000000000075084     OpensslLib:v3_utl.obj
 0002:00020368       ??_C@_03IPHJCBHH@YES@      0000000000075088     OpensslLib:v3_utl.obj
 0002:0002036c       ??_C@_03ICICOMAL@yes@      000000000007508c     OpensslLib:v3_utl.obj
 0002:00020370       ??_C@_05LAPONLG@false@     0000000000075090     OpensslLib:v3_utl.obj
 0002:00020378       ??_C@_01NANMIPIL@N@        0000000000075098     OpensslLib:v3_utl.obj
 0002:0002037c       ??_C@_02NFLNFON@NO@        000000000007509c     OpensslLib:v3_utl.obj
 0002:00020380       ??_C@_02KAJCLHKP@no@       00000000000750a0     OpensslLib:v3_utl.obj
 0002:00020388       ??_C@_07BDICHDDB@?0value?3@ 00000000000750a8     OpensslLib:v3_utl.obj
 0002:00020390       ??_C@_06FONLLLNC@?0name?3@ 00000000000750b0     OpensslLib:v3_utl.obj
 0002:00020398       ??_C@_08PCLJGJAL@section?3@ 00000000000750b8     OpensslLib:v3_utl.obj
 0002:000203a4       ??_C@_04DLDJKMIA@xn?9?9@   00000000000750c4     OpensslLib:v3_utl.obj
 0002:000203b0       ??_C@_0M@PCENNPGA@?$CFd?4?$CFd?4?$CFd?4?$CFd@ 00000000000750d0     OpensslLib:v3_utl.obj
 0002:000203c0       ??_C@_0L@JNOGJJCA@compatible@ 00000000000750e0     OpensslLib:x509_trs.obj
 0002:000203d0       ??_C@_0L@HNMCLCCI@SSL?5Client@ 00000000000750f0     OpensslLib:x509_trs.obj
 0002:000203e0       ??_C@_0L@DCIAGJKL@SSL?5Server@ 0000000000075100     OpensslLib:x509_trs.obj
 0002:000203f0       ??_C@_0N@OEEPKGPL@S?1MIME?5email@ 0000000000075110     OpensslLib:x509_trs.obj
 0002:00020400       ??_C@_0O@EEPBMPKP@Object?5Signer@ 0000000000075120     OpensslLib:x509_trs.obj
 0002:00020410       ??_C@_0P@JHCOMJOI@OCSP?5responder@ 0000000000075130     OpensslLib:x509_trs.obj
 0002:00020420       ??_C@_0N@CAJJAOJD@OCSP?5request@ 0000000000075140     OpensslLib:x509_trs.obj
 0002:00020430       ??_C@_0L@CFEJKCOD@TSA?5server@ 0000000000075150     OpensslLib:x509_trs.obj
 0002:0002043c       ??_C@_04BHIIPFEC@base@     000000000007515c     OpensslLib:v3_ncons.obj
 0002:00020448       ??_C@_07CCOEHHFD@minimum@  0000000000075168     OpensslLib:v3_ncons.obj
 0002:00020450       ??_C@_07MEIENILC@maximum@  0000000000075170     OpensslLib:v3_ncons.obj
 0002:00020458       ??_C@_0BA@ECMIFHDE@GENERAL_SUBTREE@ 0000000000075178     OpensslLib:v3_ncons.obj
 0002:00020468       ??_C@_0BC@FACFJLFB@permittedSubtrees@ 0000000000075188     OpensslLib:v3_ncons.obj
 0002:00020480       ??_C@_0BB@HLFEMJKE@excludedSubtrees@ 00000000000751a0     OpensslLib:v3_ncons.obj
 0002:00020498       ??_C@_0BB@MLLJAFMN@NAME_CONSTRAINTS@ 00000000000751b8     OpensslLib:v3_ncons.obj
 0002:000204b0       ??_C@_09HAKFOFAM@permitted@ 00000000000751d0     OpensslLib:v3_ncons.obj
 0002:000204c0       ??_C@_08HPCEJEEF@excluded@ 00000000000751e0     OpensslLib:v3_ncons.obj
 0002:000204d0       ??_C@_09DPPIOGNM@Permitted@ 00000000000751f0     OpensslLib:v3_ncons.obj
 0002:000204e0       ??_C@_08PNNFBGOG@Excluded@ 0000000000075200     OpensslLib:v3_ncons.obj
 0002:000204f0       ??_C@_07GOIIHCND@?$CF?$CKs?$CFs?3?6@ 0000000000075210     OpensslLib:v3_ncons.obj
 0002:000204f8       ??_C@_03HIJPJGOM@?$CF?$CKs@ 0000000000075218     OpensslLib:v3_ncons.obj
 0002:000204fc       ??_C@_03HBLCMHJN@IP?3@     000000000007521c     OpensslLib:v3_ncons.obj
 0002:00020500       ??_C@_01KMDKNFGN@?1@       0000000000075220     OpensslLib:v3_ncons.obj
 0002:00020550       v3_name_constraints        0000000000075270     OpensslLib:v3_ncons.obj
 0002:000205b8       NAME_CONSTRAINTS_it        00000000000752d8     OpensslLib:v3_ncons.obj
 0002:00020650       GENERAL_SUBTREE_it         0000000000075370     OpensslLib:v3_ncons.obj
 0002:00020780       ??_C@_08BMACPLOA@fullname@ 00000000000754a0     OpensslLib:v3_crld.obj
 0002:00020790       ??_C@_0N@LGEOMMHB@relativename@ 00000000000754b0     OpensslLib:v3_crld.obj
 0002:000207a0       ??_C@_06CGLFEPBO@Unused@   00000000000754c0     OpensslLib:v3_crld.obj
 0002:000207a8       ??_C@_06OJAIHGIC@unused@   00000000000754c8     OpensslLib:v3_crld.obj
 0002:000207b0       ??_C@_0P@JENDIECI@Key?5Compromise@ 00000000000754d0     OpensslLib:v3_crld.obj
 0002:000207c0       ??_C@_0O@MCEAAJLH@keyCompromise@ 00000000000754e0     OpensslLib:v3_crld.obj
 0002:000207d0       ??_C@_0O@OOGICOKH@CA?5Compromise@ 00000000000754f0     OpensslLib:v3_crld.obj
 0002:000207e0       ??_C@_0N@NONEFGOE@CACompromise@ 0000000000075500     OpensslLib:v3_crld.obj
 0002:000207f0       ??_C@_0BE@EECEIFAP@Affiliation?5Changed@ 0000000000075510     OpensslLib:v3_crld.obj
 0002:00020808       ??_C@_0BD@BNOFAJLL@affiliationChanged@ 0000000000075528     OpensslLib:v3_crld.obj
 0002:00020820       ??_C@_0L@FBLGFHIM@Superseded@ 0000000000075540     OpensslLib:v3_crld.obj
 0002:00020830       ??_C@_0L@NHCKNIFL@superseded@ 0000000000075550     OpensslLib:v3_crld.obj
 0002:00020840       ??_C@_0BH@OLCOAMGF@Cessation?5Of?5Operation@ 0000000000075560     OpensslLib:v3_crld.obj
 0002:00020858       ??_C@_0BF@IGJCOPF@cessationOfOperation@ 0000000000075578     OpensslLib:v3_crld.obj
 0002:00020870       ??_C@_0BB@IPDHDNJD@Certificate?5Hold@ 0000000000075590     OpensslLib:v3_crld.obj
 0002:00020888       ??_C@_0BA@FBHLCNLK@certificateHold@ 00000000000755a8     OpensslLib:v3_crld.obj
 0002:00020898       ??_C@_0BE@FJCCMGMM@Privilege?5Withdrawn@ 00000000000755b8     OpensslLib:v3_crld.obj
 0002:000208b0       ??_C@_0BD@PBLGJKCE@privilegeWithdrawn@ 00000000000755d0     OpensslLib:v3_crld.obj
 0002:000208c8       ??_C@_0O@PAGOKAK@AA?5Compromise@ 00000000000755e8     OpensslLib:v3_crld.obj
 0002:000208d8       ??_C@_0N@LOIIODKP@AACompromise@ 00000000000755f8     OpensslLib:v3_crld.obj
 0002:000208e8       ??_C@_08DGFAABGD@?$DMEMPTY?$DO?6@ 0000000000075608     OpensslLib:v3_crld.obj
 0002:000208f8       ??_C@_07PFOCLIJD@reasons@  0000000000075618     OpensslLib:v3_crld.obj
 0002:00020900       ??_C@_09GJHADLCP@CRLissuer@ 0000000000075620     OpensslLib:v3_crld.obj
 0002:00020910       ??_C@_0O@HJHJCLAE@name?4fullname@ 0000000000075630     OpensslLib:v3_crld.obj
 0002:00020920       ??_C@_0BC@JDMJBKME@name?4relativename@ 0000000000075640     OpensslLib:v3_crld.obj
 0002:00020938       ??_C@_0BA@MLHIPLLG@DIST_POINT_NAME@ 0000000000075658     OpensslLib:v3_crld.obj
 0002:00020948       ??_C@_09FBDFGJDL@distpoint@ 0000000000075668     OpensslLib:v3_crld.obj
 0002:00020958       ??_C@_0L@ELIKPJIH@DIST_POINT@ 0000000000075678     OpensslLib:v3_crld.obj
 0002:00020968       ??_C@_0BG@CHNNADAE@CRLDistributionPoints@ 0000000000075688     OpensslLib:v3_crld.obj
 0002:00020980       ??_C@_0BA@BBHAIMOE@CRL_DIST_POINTS@ 00000000000756a0     OpensslLib:v3_crld.obj
 0002:00020990       ??_C@_08CENLBPEH@onlyuser@ 00000000000756b0     OpensslLib:v3_crld.obj
 0002:0002099c       ??_C@_06PMNIEKCA@onlyCA@   00000000000756bc     OpensslLib:v3_crld.obj
 0002:000209a8       ??_C@_0BA@FNMBIJDN@onlysomereasons@ 00000000000756c8     OpensslLib:v3_crld.obj
 0002:000209b8       ??_C@_0M@BECDICJC@indirectCRL@ 00000000000756d8     OpensslLib:v3_crld.obj
 0002:000209c8       ??_C@_08DBIINPPL@onlyattr@ 00000000000756e8     OpensslLib:v3_crld.obj
 0002:000209d8       ??_C@_0BD@ENBCPHJ@ISSUING_DIST_POINT@ 00000000000756f8     OpensslLib:v3_crld.obj
 0002:000209ec       ??_C@_06PPFMJOEO@onlyAA@   000000000007570c     OpensslLib:v3_crld.obj
 0002:00020ae0       DIST_POINT_it              0000000000075800     OpensslLib:v3_crld.obj
 0002:00020b10       v3_crld                    0000000000075830     OpensslLib:v3_crld.obj
 0002:00020b78       DIST_POINT_NAME_it         0000000000075898     OpensslLib:v3_crld.obj
 0002:00020ca0       ISSUING_DIST_POINT_it      00000000000759c0     OpensslLib:v3_crld.obj
 0002:00020cd0       v3_freshest_crl            00000000000759f0     OpensslLib:v3_crld.obj
 0002:00020d80       v3_idp                     0000000000075aa0     OpensslLib:v3_crld.obj
 0002:00020e50       CRL_DIST_POINTS_it         0000000000075b70     OpensslLib:v3_crld.obj
 0002:00020ea8       ??_C@_05BMJJJIHB@trust@    0000000000075bc8     OpensslLib:x_x509a.obj
 0002:00020eb0       ??_C@_06JPOFNODM@reject@   0000000000075bd0     OpensslLib:x_x509a.obj
 0002:00020eb8       ??_C@_05NKHOCLEE@alias@    0000000000075bd8     OpensslLib:x_x509a.obj
 0002:00020ec0       ??_C@_05CNHMOIOC@keyid@    0000000000075be0     OpensslLib:x_x509a.obj
 0002:00020ec8       ??_C@_05BGEKGIIP@other@    0000000000075be8     OpensslLib:x_x509a.obj
 0002:00020ed0       ??_C@_0O@LJIIOIG@X509_CERT_AUX@ 0000000000075bf0     OpensslLib:x_x509a.obj
 0002:00020f80       X509_CERT_AUX_it           0000000000075ca0     OpensslLib:x_x509a.obj
 0002:00020fb0       ??_C@_0BA@OPHCNPAP@AUTHORITY_KEYID@ 0000000000075cd0     OpensslLib:v3_akeya.obj
 0002:00020fc0       AUTHORITY_KEYID_it         0000000000075ce0     OpensslLib:v3_akeya.obj
 0002:00021050       ??_C@_09MJPOMOII@notBefore@ 0000000000075d70     OpensslLib:x_val.obj
 0002:00021060       ??_C@_08PJIFIJBI@notAfter@ 0000000000075d80     OpensslLib:x_val.obj
 0002:00021070       ??_C@_08OPPGEJIL@X509_VAL@ 0000000000075d90     OpensslLib:x_val.obj
 0002:000210c0       X509_VAL_it                0000000000075de0     OpensslLib:x_val.obj
 0002:000210f0       ??_C@_02MFDMBIJM@ok@       0000000000075e10     OpensslLib:x509_txt.obj
 0002:000210f8       ??_C@_0CL@ICDMHEOH@unspecified?5certificate?5verific@ 0000000000075e18     OpensslLib:x509_txt.obj
 0002:00021128       ??_C@_0CB@KFJODNFN@unable?5to?5get?5issuer?5certificat@ 0000000000075e48     OpensslLib:x509_txt.obj
 0002:00021150       ??_C@_0BO@CIOBDJGN@unable?5to?5get?5certificate?5CRL@ 0000000000075e70     OpensslLib:x509_txt.obj
 0002:00021170       ??_C@_0CK@LBDBBNHI@unable?5to?5decrypt?5certificate?8s@ 0000000000075e90     OpensslLib:x509_txt.obj
 0002:000211a0       ??_C@_0CC@KFEPDDPF@unable?5to?5decrypt?5CRL?8s?5signatu@ 0000000000075ec0     OpensslLib:x509_txt.obj
 0002:000211c8       ??_C@_0CD@KOEKDJOF@unable?5to?5decode?5issuer?5public?5@ 0000000000075ee8     OpensslLib:x509_txt.obj
 0002:000211f0       ??_C@_0BO@FPBBKLNG@certificate?5signature?5failure@ 0000000000075f10     OpensslLib:x509_txt.obj
 0002:00021210       ??_C@_0BG@PKEGLGEB@CRL?5signature?5failure@ 0000000000075f30     OpensslLib:x509_txt.obj
 0002:00021228       ??_C@_0BN@JFLHFAGA@certificate?5is?5not?5yet?5valid@ 0000000000075f48     OpensslLib:x509_txt.obj
 0002:00021248       ??_C@_0BI@HHICNLNC@certificate?5has?5expired@ 0000000000075f68     OpensslLib:x509_txt.obj
 0002:00021260       ??_C@_0BF@MIBPKMEH@CRL?5is?5not?5yet?5valid@ 0000000000075f80     OpensslLib:x509_txt.obj
 0002:00021278       ??_C@_0BA@JMGDIGAP@CRL?5has?5expired@ 0000000000075f98     OpensslLib:x509_txt.obj
 0002:00021288       ??_C@_0CO@BGGBNHHG@format?5error?5in?5certificate?8s?5n@ 0000000000075fa8     OpensslLib:x509_txt.obj
 0002:000212b8       ??_C@_0CN@NPHCNDGF@format?5error?5in?5certificate?8s?5n@ 0000000000075fd8     OpensslLib:x509_txt.obj
 0002:000212e8       ??_C@_0CH@OEGANADM@format?5error?5in?5CRL?8s?5lastUpdat@ 0000000000076008     OpensslLib:x509_txt.obj
 0002:00021310       ??_C@_0CH@DKJJKKIC@format?5error?5in?5CRL?8s?5nextUpdat@ 0000000000076030     OpensslLib:x509_txt.obj
 0002:00021338       ??_C@_0O@BNNCBLEN@out?5of?5memory@ 0000000000076058     OpensslLib:x509_txt.obj
 0002:00021348       ??_C@_0BI@PBDHIKFI@self?5signed?5certificate@ 0000000000076068     OpensslLib:x509_txt.obj
 0002:00021360       ??_C@_0CN@GCPAFAGL@self?5signed?5certificate?5in?5cert@ 0000000000076080     OpensslLib:x509_txt.obj
 0002:00021390       ??_C@_0CH@NBHLNPJC@unable?5to?5get?5local?5issuer?5cert@ 00000000000760b0     OpensslLib:x509_txt.obj
 0002:000213b8       ??_C@_0CH@PCOLJJF@unable?5to?5verify?5the?5first?5cert@ 00000000000760d8     OpensslLib:x509_txt.obj
 0002:000213e0       ??_C@_0BL@JGHJBAMD@certificate?5chain?5too?5long@ 0000000000076100     OpensslLib:x509_txt.obj
 0002:00021400       ??_C@_0BE@PBLGGMOB@certificate?5revoked@ 0000000000076120     OpensslLib:x509_txt.obj
 0002:00021418       ??_C@_0BH@EKEBOKH@invalid?5CA?5certificate@ 0000000000076138     OpensslLib:x509_txt.obj
 0002:00021430       ??_C@_0CA@LLGONKGK@path?5length?5constraint?5exceeded@ 0000000000076150     OpensslLib:x509_txt.obj
 0002:00021450       ??_C@_0CA@LPAJAMFA@unsupported?5certificate?5purpose@ 0000000000076170     OpensslLib:x509_txt.obj
 0002:00021470       ??_C@_0BI@GDICGBPK@certificate?5not?5trusted@ 0000000000076190     OpensslLib:x509_txt.obj
 0002:00021488       ??_C@_0BF@OJPAOPB@certificate?5rejected@ 00000000000761a8     OpensslLib:x509_txt.obj
 0002:000214a0       ??_C@_0BI@OHGOAFON@subject?5issuer?5mismatch@ 00000000000761c0     OpensslLib:x509_txt.obj
 0002:000214b8       ??_C@_0CO@HGJKNPBG@authority?5and?5subject?5key?5ident@ 00000000000761d8     OpensslLib:x509_txt.obj
 0002:000214e8       ??_C@_0CM@GGIKLLEP@authority?5and?5issuer?5serial?5num@ 0000000000076208     OpensslLib:x509_txt.obj
 0002:00021518       ??_C@_0CP@EEPOGHPG@key?5usage?5does?5not?5include?5cert@ 0000000000076238     OpensslLib:x509_txt.obj
 0002:00021548       ??_C@_0CF@OOPBMEA@unable?5to?5get?5CRL?5issuer?5certif@ 0000000000076268     OpensslLib:x509_txt.obj
 0002:00021570       ??_C@_0BN@DHGAFJG@unhandled?5critical?5extension@ 0000000000076290     OpensslLib:x509_txt.obj
 0002:00021590       ??_C@_0CH@JKPBLJBP@key?5usage?5does?5not?5include?5CRL?5@ 00000000000762b0     OpensslLib:x509_txt.obj
 0002:000215b8       ??_C@_0CB@OODOOIP@unhandled?5critical?5CRL?5extensio@ 00000000000762d8     OpensslLib:x509_txt.obj
 0002:000215e0       ??_C@_0CN@GNFODAID@invalid?5non?9CA?5certificate?5?$CIhas@ 0000000000076300     OpensslLib:x509_txt.obj
 0002:00021610       ??_C@_0CG@BIOFEFIK@proxy?5path?5length?5constraint?5ex@ 0000000000076330     OpensslLib:x509_txt.obj
 0002:00021638       ??_C@_0CN@HJJGOKEM@key?5usage?5does?5not?5include?5digi@ 0000000000076358     OpensslLib:x509_txt.obj
 0002:00021670       ??_C@_0EA@EILBDOFP@proxy?5certificates?5not?5allowed?0@ 0000000000076390     OpensslLib:x509_txt.obj
 0002:000216b0       ??_C@_0CO@BIBMOLPK@invalid?5or?5inconsistent?5certifi@ 00000000000763d0     OpensslLib:x509_txt.obj
 0002:000216e0       ??_C@_0DF@JOCKIEDN@invalid?5or?5inconsistent?5certifi@ 0000000000076400     OpensslLib:x509_txt.obj
 0002:00021718       ??_C@_0BD@KPLGPDJA@no?5explicit?5policy@ 0000000000076438     OpensslLib:x509_txt.obj
 0002:00021730       ??_C@_0BE@FHFDNMCN@Different?5CRL?5scope@ 0000000000076450     OpensslLib:x509_txt.obj
 0002:00021748       ??_C@_0BO@CHPDNLHA@Unsupported?5extension?5feature@ 0000000000076468     OpensslLib:x509_txt.obj
 0002:00021768       ??_C@_0DD@IBFFGHC@RFC?53779?5resource?5not?5subset?5of@ 0000000000076488     OpensslLib:x509_txt.obj
 0002:000217a0       ??_C@_0BM@OAJDKGDI@permitted?5subtree?5violation@ 00000000000764c0     OpensslLib:x509_txt.obj
 0002:000217c0       ??_C@_0BL@OHBCHEHN@excluded?5subtree?5violation@ 00000000000764e0     OpensslLib:x509_txt.obj
 0002:000217e0       ??_C@_0DD@KOHKHENH@name?5constraints?5minimum?5and?5ma@ 0000000000076500     OpensslLib:x509_txt.obj
 0002:00021818       ??_C@_0CB@HLIFGCCB@application?5verification?5failur@ 0000000000076538     OpensslLib:x509_txt.obj
 0002:00021840       ??_C@_0CB@NJIFBAAK@unsupported?5name?5constraint?5typ@ 0000000000076560     OpensslLib:x509_txt.obj
 0002:00021868       ??_C@_0CO@MKOFKAHI@unsupported?5or?5invalid?5name?5con@ 0000000000076588     OpensslLib:x509_txt.obj
 0002:00021898       ??_C@_0CD@FOPJHCDH@unsupported?5or?5invalid?5name?5syn@ 00000000000765b8     OpensslLib:x509_txt.obj
 0002:000218c0       ??_C@_0BK@IBKFOKDF@CRL?5path?5validation?5error@ 00000000000765e0     OpensslLib:x509_txt.obj
 0002:000218e0       ??_C@_09OLGELLAO@Path?5Loop@ 0000000000076600     OpensslLib:x509_txt.obj
 0002:000218f0       ??_C@_0CF@FOANFLBA@Suite?5B?3?5certificate?5version?5in@ 0000000000076610     OpensslLib:x509_txt.obj
 0002:00021918       ??_C@_0CG@BICIPKHE@Suite?5B?3?5invalid?5public?5key?5alg@ 0000000000076638     OpensslLib:x509_txt.obj
 0002:00021940       ??_C@_0BL@FMOLHBNA@Suite?5B?3?5invalid?5ECC?5curve@ 0000000000076660     OpensslLib:x509_txt.obj
 0002:00021960       ??_C@_0CF@HDBBCDPB@Suite?5B?3?5invalid?5signature?5algo@ 0000000000076680     OpensslLib:x509_txt.obj
 0002:00021988       ??_C@_0CI@KACFGKAG@Suite?5B?3?5curve?5not?5allowed?5for?5@ 00000000000766a8     OpensslLib:x509_txt.obj
 0002:000219b0       ??_C@_0CG@KNKODCDA@Suite?5B?3?5cannot?5sign?5P?9384?5with@ 00000000000766d0     OpensslLib:x509_txt.obj
 0002:000219d8       ??_C@_0BC@BKAJEJKO@Hostname?5mismatch@ 00000000000766f8     OpensslLib:x509_txt.obj
 0002:000219f0       ??_C@_0BH@EANENMMC@Email?5address?5mismatch@ 0000000000076710     OpensslLib:x509_txt.obj
 0002:00021a08       ??_C@_0BE@CAFPLHHN@IP?5address?5mismatch@ 0000000000076728     OpensslLib:x509_txt.obj
 0002:00021a20       ??_C@_0BO@OPFDPPAC@No?5matching?5DANE?5TLSA?5records@ 0000000000076740     OpensslLib:x509_txt.obj
 0002:00021a40       ??_C@_0BM@CJPGEEIN@EE?5certificate?5key?5too?5weak@ 0000000000076760     OpensslLib:x509_txt.obj
 0002:00021a60       ??_C@_0BM@ENALCBIG@CA?5certificate?5key?5too?5weak@ 0000000000076780     OpensslLib:x509_txt.obj
 0002:00021a80       ??_C@_0CH@LKAOFJGJ@CA?5signature?5digest?5algorithm?5t@ 00000000000767a0     OpensslLib:x509_txt.obj
 0002:00021aa8       ??_C@_0CJ@LGEOKENH@Invalid?5certificate?5verificatio@ 00000000000767c8     OpensslLib:x509_txt.obj
 0002:00021ad8       ??_C@_0CA@IHGNDGJI@Issuer?5certificate?5lookup?5error@ 00000000000767f8     OpensslLib:x509_txt.obj
 0002:00021af8       ??_C@_0DL@IEHGPPOE@Certificate?5Transparency?5requir@ 0000000000076818     OpensslLib:x509_txt.obj
 0002:00021b38       ??_C@_0BN@MGIIDFLE@proxy?5subject?5name?5violation@ 0000000000076858     OpensslLib:x509_txt.obj
 0002:00021b58       ??_C@_0BJ@GCKALNFK@OCSP?5verification?5needed@ 0000000000076878     OpensslLib:x509_txt.obj
 0002:00021b78       ??_C@_0BJ@MKJKHEMF@OCSP?5verification?5failed@ 0000000000076898     OpensslLib:x509_txt.obj
 0002:00021b98       ??_C@_0BC@JFODIBJK@OCSP?5unknown?5cert@ 00000000000768b8     OpensslLib:x509_txt.obj
 0002:00021bb0       ??_C@_0CH@MPONIKPM@unknown?5certificate?5verificatio@ 00000000000768d0     OpensslLib:x509_txt.obj
 0002:00021e20       ??_C@_03KCHOJKKI@set@      0000000000076b40     OpensslLib:x_attrib.obj
 0002:00021e28       ??_C@_0P@IBKNNFL@X509_ATTRIBUTE@ 0000000000076b48     OpensslLib:x_attrib.obj
 0002:00021e80       X509_ATTRIBUTE_it          0000000000076ba0     OpensslLib:x_attrib.obj
 0002:00021eb0       ??_C@_03KPIFFHNE@SET@      0000000000076bd0     OpensslLib:tasn_prn.obj
 0002:00021eb8       ??_C@_08POLPFBMC@SEQUENCE@ 0000000000076bd8     OpensslLib:tasn_prn.obj
 0002:00021ec8       ??_C@_08DFMPDBMK@X509_SIG@ 0000000000076be8     OpensslLib:x_sig.obj
 0002:00021ed8       X509_SIG_it                0000000000076bf8     OpensslLib:x_sig.obj
 0002:00021f50       ??_C@_01GBGANLPD@0@        0000000000076c70     OpensslLib:bn_print.obj
 0002:00021f54       ??_C@_04FCIJFPNK@?$CFllu@  0000000000076c74     OpensslLib:bn_print.obj
 0002:00021f60       ??_C@_07ICEKBAEF@?$CF019llu@ 0000000000076c80     OpensslLib:bn_print.obj
 0002:00021f68       ??_C@_01JOAMLHOP@?9@       0000000000076c88     OpensslLib:bn_print.obj
 0002:00021fa8       ??_C@_09OJNEAJGG@?$DMINVALID?$DO@ 0000000000076cc8     OpensslLib:a_object.obj
 0002:000221fc       ??_C@_02PLJDPFIO@00@       0000000000076f1c     OpensslLib:asn1_par.obj
 0002:00022200       ??_C@_03NCODFONH@EOC@      0000000000076f20     OpensslLib:asn1_par.obj
 0002:00022208       ??_C@_07JDEDMABE@BOOLEAN@  0000000000076f28     OpensslLib:asn1_par.obj
 0002:00022210       ??_C@_07EHCIHKNF@INTEGER@  0000000000076f30     OpensslLib:asn1_par.obj
 0002:00022218       ??_C@_0L@EKOKPLKE@BIT?5STRING@ 0000000000076f38     OpensslLib:asn1_par.obj
 0002:00022228       ??_C@_0N@KPGGMDFC@OCTET?5STRING@ 0000000000076f48     OpensslLib:asn1_par.obj
 0002:00022238       ??_C@_06IAMCMNFI@OBJECT@   0000000000076f58     OpensslLib:asn1_par.obj
 0002:00022240       ??_C@_0BC@HDOCNDIH@OBJECT?5DESCRIPTOR@ 0000000000076f60     OpensslLib:asn1_par.obj
 0002:00022258       ??_C@_08JHLDEHEK@EXTERNAL@ 0000000000076f78     OpensslLib:asn1_par.obj
 0002:00022264       ??_C@_04PKFANLLI@REAL@     0000000000076f84     OpensslLib:asn1_par.obj
 0002:00022270       ??_C@_0L@KNIEMAKM@ENUMERATED@ 0000000000076f90     OpensslLib:asn1_par.obj
 0002:00022280       ??_C@_09EKNCOIGI@?$DMASN1?511?$DO@ 0000000000076fa0     OpensslLib:asn1_par.obj
 0002:00022290       ??_C@_0L@DCBPGANN@UTF8STRING@ 0000000000076fb0     OpensslLib:asn1_par.obj
 0002:000222a0       ??_C@_09EJFGDMAG@?$DMASN1?513?$DO@ 0000000000076fc0     OpensslLib:asn1_par.obj
 0002:000222b0       ??_C@_09EMBJCKID@?$DMASN1?514?$DO@ 0000000000076fd0     OpensslLib:asn1_par.obj
 0002:000222c0       ??_C@_09ENNLEALE@?$DMASN1?515?$DO@ 0000000000076fe0     OpensslLib:asn1_par.obj
 0002:000222d0       ??_C@_0O@DFADMOGA@NUMERICSTRING@ 0000000000076ff0     OpensslLib:asn1_par.obj
 0002:000222e0       ??_C@_0BA@FKHILLED@PRINTABLESTRING@ 0000000000077000     OpensslLib:asn1_par.obj
 0002:000222f0       ??_C@_09FMBHBANP@T61STRING@ 0000000000077010     OpensslLib:asn1_par.obj
 0002:00022300       ??_C@_0P@LNAMNBEL@VIDEOTEXSTRING@ 0000000000077020     OpensslLib:asn1_par.obj
 0002:00022310       ??_C@_09JOMPLKGB@IA5STRING@ 0000000000077030     OpensslLib:asn1_par.obj
 0002:00022320       ??_C@_07HIOLDDN@UTCTIME@   0000000000077040     OpensslLib:asn1_par.obj
 0002:00022328       ??_C@_0BA@LKNBIJBB@GENERALIZEDTIME@ 0000000000077048     OpensslLib:asn1_par.obj
 0002:00022338       ??_C@_0O@MABADFB@GRAPHICSTRING@ 0000000000077058     OpensslLib:asn1_par.obj
 0002:00022348       ??_C@_0O@KDAJCBO@VISIBLESTRING@ 0000000000077068     OpensslLib:asn1_par.obj
 0002:00022358       ??_C@_0O@DKDEPFLO@GENERALSTRING@ 0000000000077078     OpensslLib:asn1_par.obj
 0002:00022368       ??_C@_0BA@EJHHDALK@UNIVERSALSTRING@ 0000000000077088     OpensslLib:asn1_par.obj
 0002:00022378       ??_C@_09FGHEBGDO@?$DMASN1?529?$DO@ 0000000000077098     OpensslLib:asn1_par.obj
 0002:00022388       ??_C@_09BIBABMFN@BMPSTRING@ 00000000000770a8     OpensslLib:asn1_par.obj
 0002:00022398       ??_C@_09GPGAJHPD@?$CIunknown?$CJ@ 00000000000770b8     OpensslLib:asn1_par.obj
 0002:000224a8       ??_C@_08JJBFGKFE@minsize?$DN@ 00000000000771c8     OpensslLib:a_mbstr.obj
 0002:000224b8       ??_C@_08EOPONIBF@maxsize?$DN@ 00000000000771d8     OpensslLib:a_mbstr.obj
 0002:000224c4       ??_C@_06CHOIGJDB@BIGNUM@   00000000000771e4     OpensslLib:x_bignum.obj
 0002:000224d0       ??_C@_07HILEKMCI@CBIGNUM@  00000000000771f0     OpensslLib:x_bignum.obj
 0002:000224d8       BIGNUM_it                  00000000000771f8     OpensslLib:x_bignum.obj
 0002:00022508       CBIGNUM_it                 0000000000077228     OpensslLib:x_bignum.obj
 0002:00022538       ??_C@_03PMGGPEJJ@?$CFd?6@  0000000000077258     OpensslLib:x_int64.obj
 0002:0002253c       ??_C@_03OBICDNNO@?$CFu?6@  000000000007725c     OpensslLib:x_int64.obj
 0002:00022540       ??_C@_05OJLHEJN@INT32@     0000000000077260     OpensslLib:x_int64.obj
 0002:00022548       ??_C@_06KFJALMLJ@ZINT32@   0000000000077268     OpensslLib:x_int64.obj
 0002:00022550       ZINT32_it                  0000000000077270     OpensslLib:x_int64.obj
 0002:00022580       INT32_it                   00000000000772a0     OpensslLib:x_int64.obj
 0002:000225b0       ??_C@_0P@BLMEJDMO@policyLanguage@ 00000000000772d0     OpensslLib:v3_pcia.obj
 0002:000225c0       ??_C@_06NJNJNICG@policy@   00000000000772e0     OpensslLib:v3_pcia.obj
 0002:000225c8       ??_C@_0N@CLKEFBDI@PROXY_POLICY@ 00000000000772e8     OpensslLib:v3_pcia.obj
 0002:000225d8       ??_C@_0BH@JBGKCLHC@pcPathLengthConstraint@ 00000000000772f8     OpensslLib:v3_pcia.obj
 0002:000225f0       ??_C@_0M@KKFBCGOG@proxyPolicy@ 0000000000077310     OpensslLib:v3_pcia.obj
 0002:00022600       ??_C@_0BK@PILNOGHK@PROXY_CERT_INFO_EXTENSION@ 0000000000077320     OpensslLib:v3_pcia.obj
 0002:00022660       PROXY_CERT_INFO_EXTENSION_it 0000000000077380     OpensslLib:v3_pcia.obj
 0002:000226d0       PROXY_POLICY_it            00000000000773f0     OpensslLib:v3_pcia.obj
 0002:00022700       ??_C@_02DGMJAJHC@ca@       0000000000077420     OpensslLib:v3_bcons.obj
 0002:00022708       ??_C@_07OGCPICFF@pathlen@  0000000000077428     OpensslLib:v3_bcons.obj
 0002:00022710       ??_C@_0BC@PKPCGCD@BASIC_CONSTRAINTS@ 0000000000077430     OpensslLib:v3_bcons.obj
 0002:00022724       ??_C@_02JLAAGLDA@CA@       0000000000077444     OpensslLib:v3_bcons.obj
 0002:00022770       v3_bcons                   0000000000077490     OpensslLib:v3_bcons.obj
 0002:000227d8       BASIC_CONSTRAINTS_it       00000000000774f8     OpensslLib:v3_bcons.obj
 0002:00022808       ??_C@_06GABBCIBA@method@   0000000000077528     OpensslLib:v3_info.obj
 0002:00022810       ??_C@_08CBBFJFMD@location@ 0000000000077530     OpensslLib:v3_info.obj
 0002:00022820       ??_C@_0BD@IKHCEBLA@ACCESS_DESCRIPTION@ 0000000000077540     OpensslLib:v3_info.obj
 0002:00022838       ??_C@_0BG@PFEKCAHJ@AUTHORITY_INFO_ACCESS@ 0000000000077558     OpensslLib:v3_info.obj
 0002:00022850       ??_C@_07FCJAGJJB@?$CFs?5?9?5?$CFs@ 0000000000077570     OpensslLib:v3_info.obj
 0002:00022858       ??_C@_06KFEJCPI@value?$DN@ 0000000000077578     OpensslLib:v3_info.obj
 0002:00022860       AUTHORITY_INFO_ACCESS_it   0000000000077580     OpensslLib:v3_info.obj
 0002:00022890       ACCESS_DESCRIPTION_it      00000000000775b0     OpensslLib:v3_info.obj
 0002:00022900       v3_sinfo                   0000000000077620     OpensslLib:v3_info.obj
 0002:00022970       v3_info                    0000000000077690     OpensslLib:v3_info.obj
 0002:000229f8       ??_C@_08OMICEKMJ@?0?5value?$DN@ 0000000000077718     OpensslLib:conf_mod.obj
 0002:00022a10       v3_alt                     0000000000077730     OpensslLib:v3_alt.obj
 0002:00022b48       ??_C@_0O@NHCJKCDC@?$DMunsupported?$DO@ 0000000000077868     OpensslLib:v3_alt.obj
 0002:00022b58       ??_C@_09PAKBLAPA@othername@ 0000000000077878     OpensslLib:v3_alt.obj
 0002:00022b68       ??_C@_08EBDOEGJI@X400Name@ 0000000000077888     OpensslLib:v3_alt.obj
 0002:00022b78       ??_C@_0N@EEELPIKD@EdiPartyName@ 0000000000077898     OpensslLib:v3_alt.obj
 0002:00022b88       ??_C@_05HKHCDHCL@email@    00000000000778a8     OpensslLib:v3_alt.obj
 0002:00022b90       ??_C@_03CBFPEBNE@DNS@      00000000000778b0     OpensslLib:v3_alt.obj
 0002:00022b94       ??_C@_03GMOLNBOB@URI@      00000000000778b4     OpensslLib:v3_alt.obj
 0002:00022b98       ??_C@_07FDBCPIKC@DirName@  00000000000778b8     OpensslLib:v3_alt.obj
 0002:00022ba0       ??_C@_09DPMBDOD@?$DMinvalid?$DO@ 00000000000778c0     OpensslLib:v3_alt.obj
 0002:00022bb0       ??_C@_0L@NGHMMCPJ@IP?5Address@ 00000000000778d0     OpensslLib:v3_alt.obj
 0002:00022bc0       ??_C@_0O@KAIENCPE@Registered?5ID@ 00000000000778e0     OpensslLib:v3_alt.obj
 0002:00022bd0       ??_C@_04COAGEIMF@copy@     00000000000778f0     OpensslLib:v3_alt.obj
 0002:00022bd8       ??_C@_04HDMMNHEL@move@     00000000000778f8     OpensslLib:v3_alt.obj
 0002:00022be0       ??_C@_03FEOBNLIE@RID@      0000000000077900     OpensslLib:v3_alt.obj
 0002:00022be4       ??_C@_02MFEOMNPG@IP@       0000000000077904     OpensslLib:v3_alt.obj
 0002:00022be8       ??_C@_07KKGEJKPE@dirName@  0000000000077908     OpensslLib:v3_alt.obj
 0002:00022bf0       ??_C@_09DBGAJPPE@otherName@ 0000000000077910     OpensslLib:v3_alt.obj
 0002:00022c00       ??_C@_08LNPIPPMM@section?$DN@ 0000000000077920     OpensslLib:v3_alt.obj
 0002:00022c10       v3_policy_constraints      0000000000077930     OpensslLib:v3_pcons.obj
 0002:00022c78       ??_C@_0BG@HGJBEKFE@requireExplicitPolicy@ 0000000000077998     OpensslLib:v3_pcons.obj
 0002:00022c90       ??_C@_0BF@MOMLJGAL@inhibitPolicyMapping@ 00000000000779b0     OpensslLib:v3_pcons.obj
 0002:00022ca8       ??_C@_0BD@MMPNIEIJ@POLICY_CONSTRAINTS@ 00000000000779c8     OpensslLib:v3_pcons.obj
 0002:00022cc0       ??_C@_0BI@HNCHDEDI@Require?5Explicit?5Policy@ 00000000000779e0     OpensslLib:v3_pcons.obj
 0002:00022cd8       ??_C@_0BH@HMKHOMED@Inhibit?5Policy?5Mapping@ 00000000000779f8     OpensslLib:v3_pcons.obj
 0002:00022cf0       POLICY_CONSTRAINTS_it      0000000000077a10     OpensslLib:v3_pcons.obj
 0002:00022d60       v3_cpols                   0000000000077a80     OpensslLib:v3_cpols.obj
 0002:00022dc8       ??_C@_0BE@GJBJOOCP@CERTIFICATEPOLICIES@ 0000000000077ae8     OpensslLib:v3_cpols.obj
 0002:00022de0       ??_C@_08NEBFOBH@policyid@  0000000000077b00     OpensslLib:v3_cpols.obj
 0002:00022df0       ??_C@_0L@HMNGMMJI@qualifiers@ 0000000000077b10     OpensslLib:v3_cpols.obj
 0002:00022e00       ??_C@_0L@POLPGHJK@POLICYINFO@ 0000000000077b20     OpensslLib:v3_cpols.obj
 0002:00022e10       ??_C@_08EECALGEF@d?4cpsuri@ 0000000000077b30     OpensslLib:v3_cpols.obj
 0002:00022e20       ??_C@_0N@JPAHANFF@d?4usernotice@ 0000000000077b40     OpensslLib:v3_cpols.obj
 0002:00022e30       ??_C@_07LEEILOKB@pqualid@  0000000000077b50     OpensslLib:v3_cpols.obj
 0002:00022e38       ??_C@_0P@POBJIHLD@POLICYQUALINFO@ 0000000000077b58     OpensslLib:v3_cpols.obj
 0002:00022e48       ??_C@_09FIKFDFH@noticeref@ 0000000000077b68     OpensslLib:v3_cpols.obj
 0002:00022e58       ??_C@_07MHGINJOA@exptext@  0000000000077b78     OpensslLib:v3_cpols.obj
 0002:00022e60       ??_C@_0L@HCNDPADF@USERNOTICE@ 0000000000077b80     OpensslLib:v3_cpols.obj
 0002:00022e70       ??_C@_0N@HEIPMDAG@organization@ 0000000000077b90     OpensslLib:v3_cpols.obj
 0002:00022e80       ??_C@_09CFGHNILC@noticenos@ 0000000000077ba0     OpensslLib:v3_cpols.obj
 0002:00022e90       ??_C@_09DFHLGOKA@NOTICEREF@ 0000000000077bb0     OpensslLib:v3_cpols.obj
 0002:00022e9c       ??_C@_06MIFIGELF@ia5org@   0000000000077bbc     OpensslLib:v3_cpols.obj
 0002:00022ea8       ??_C@_0BB@FIJMMMGE@policyIdentifier@ 0000000000077bc8     OpensslLib:v3_cpols.obj
 0002:00022ebc       ??_C@_03KKDAPHBH@CPS@      0000000000077bdc     OpensslLib:v3_cpols.obj
 0002:00022ec0       ??_C@_0L@LADHLIJ@userNotice@ 0000000000077be0     OpensslLib:v3_cpols.obj
 0002:00022ecc       ??_C@_04OOMJJNCF@UTF8@     0000000000077bec     OpensslLib:v3_cpols.obj
 0002:00022ed8       ??_C@_0L@PJIJIHJD@UTF8String@ 0000000000077bf8     OpensslLib:v3_cpols.obj
 0002:00022ee4       ??_C@_03CNFPPDJC@BMP@      0000000000077c04     OpensslLib:v3_cpols.obj
 0002:00022ee8       ??_C@_07MCGNPFEO@VISIBLE@  0000000000077c08     OpensslLib:v3_cpols.obj
 0002:00022ef0       ??_C@_0N@EALKMFB@explicitText@ 0000000000077c10     OpensslLib:v3_cpols.obj
 0002:00022f00       ??_C@_0O@OKDALMJE@noticeNumbers@ 0000000000077c20     OpensslLib:v3_cpols.obj
 0002:00022f10       ??_C@_0M@ICGFCJNO@?$CF?$CKsCPS?3?5?$CFs?6@ 0000000000077c30     OpensslLib:v3_cpols.obj
 0002:00022f20       ??_C@_0BF@OCNFPJOG@?$CF?$CKsOrganization?3?5?$CFs?6@ 0000000000077c40     OpensslLib:v3_cpols.obj
 0002:00022f38       ??_C@_01LKDEMHDF@s@        0000000000077c58     OpensslLib:v3_cpols.obj
 0002:00022f40       ??_C@_0O@EFHNHHDA@?$CF?$CKsNumber?$CFs?3?5@ 0000000000077c60     OpensslLib:v3_cpols.obj
 0002:00022f50       ??_C@_06OJHGLDPL@?$CInull?$CJ@ 0000000000077c70     OpensslLib:v3_cpols.obj
 0002:00022f58       ??_C@_0BG@IHHCDAMH@?$CF?$CKsExplicit?5Text?3?5?$CFs?6@ 0000000000077c78     OpensslLib:v3_cpols.obj
 0002:00022f70       NOTICEREF_it               0000000000077c90     OpensslLib:v3_cpols.obj
 0002:00023020       USERNOTICE_it              0000000000077d40     OpensslLib:v3_cpols.obj
 0002:00023150       POLICYQUALINFO_it          0000000000077e70     OpensslLib:v3_cpols.obj
 0002:000231c0       POLICYINFO_it              0000000000077ee0     OpensslLib:v3_cpols.obj
 0002:000231f0       CERTIFICATEPOLICIES_it     0000000000077f10     OpensslLib:v3_cpols.obj
 0002:00023220       ??_C@_06KDGDAFPH@cipher@   0000000000077f40     OpensslLib:bio_enc.obj
 0002:00023290       ??_C@_0P@ONGHGJEC@message?5digest@ 0000000000077fb0     OpensslLib:bio_md.obj
 0002:00023360       ??_C@_03MEGLGNML@SM4@      0000000000078080     OpensslLib:c_allc.obj
 0002:00023364       ??_C@_03FMBEIEBF@sm4@      0000000000078084     OpensslLib:c_allc.obj
 0002:00023368       ??_C@_0M@DJNCOMHD@aes128?9wrap@ 0000000000078088     OpensslLib:c_allc.obj
 0002:00023374       ??_C@_06NICOGCEJ@AES128@   0000000000078094     OpensslLib:c_allc.obj
 0002:0002337c       ??_C@_06NBPOHBOH@aes128@   000000000007809c     OpensslLib:c_allc.obj
 0002:00023388       ??_C@_0M@MAMIKPGL@aes192?9wrap@ 00000000000780a8     OpensslLib:c_allc.obj
 0002:00023394       ??_C@_06COJEGFCC@AES192@   00000000000780b4     OpensslLib:c_allc.obj
 0002:0002339c       ??_C@_06CHEEHGIM@aes192@   00000000000780bc     OpensslLib:c_allc.obj
 0002:000233a8       ??_C@_0M@FKKFKCPC@aes256?9wrap@ 00000000000780c8     OpensslLib:c_allc.obj
 0002:000233b4       ??_C@_06FBFHPGKM@AES256@   00000000000780d4     OpensslLib:c_allc.obj
 0002:000233bc       ??_C@_06FIIHOFAC@aes256@   00000000000780dc     OpensslLib:c_allc.obj
 0002:000233c8       ??_C@_07POIDCCOH@ARIA128@  00000000000780e8     OpensslLib:c_allc.obj
 0002:000233d0       ??_C@_07OCFFDBP@aria128@   00000000000780f0     OpensslLib:c_allc.obj
 0002:000233d8       ??_C@_07IDJCFIM@ARIA192@   00000000000780f8     OpensslLib:c_allc.obj
 0002:000233e0       ??_C@_07PIJPFEHE@aria192@  0000000000078100     OpensslLib:c_allc.obj
 0002:000233e8       ??_C@_07HHPKLGAC@ARIA256@  0000000000078108     OpensslLib:c_allc.obj
 0002:000233f0       ??_C@_07IHFMMHPK@aria256@  0000000000078110     OpensslLib:c_allc.obj
 0002:00023418       ??_C@_08CBANLEIB@ssl3?9md5@ 0000000000078138     OpensslLib:c_alld.obj
 0002:00023428       ??_C@_09KCHAKJIH@ssl3?9sha1@ 0000000000078148     OpensslLib:c_alld.obj
 0002:00023440       dhx_pkey_meth              0000000000078160     OpensslLib:dh_pmeth.obj
 0002:00023540       dh_pkey_meth               0000000000078260     OpensslLib:dh_pmeth.obj
 0002:00023640       ??_C@_0BG@LEMCDPBI@dh_paramgen_prime_len@ 0000000000078360     OpensslLib:dh_pmeth.obj
 0002:00023658       ??_C@_0L@CMAICHCO@dh_rfc5114@ 0000000000078378     OpensslLib:dh_pmeth.obj
 0002:00023668       ??_C@_08DJOKJGHP@dh_param@ 0000000000078388     OpensslLib:dh_pmeth.obj
 0002:00023678       ??_C@_0BG@POLEFOHA@dh_paramgen_generator@ 0000000000078398     OpensslLib:dh_pmeth.obj
 0002:00023690       ??_C@_0BJ@HCAFJLBI@dh_paramgen_subprime_len@ 00000000000783b0     OpensslLib:dh_pmeth.obj
 0002:000236b0       ??_C@_0BB@DCMALDKK@dh_paramgen_type@ 00000000000783d0     OpensslLib:dh_pmeth.obj
 0002:000236c4       ??_C@_06GADFDCHC@dh_pad@   00000000000783e4     OpensslLib:dh_pmeth.obj
 0002:000236d0       cmac_pkey_meth             00000000000783f0     OpensslLib:cm_pmeth.obj
 0002:000237d0       ??_C@_06BHJHKMJC@hexkey@   00000000000784f0     OpensslLib:cm_pmeth.obj
 0002:000237e0       rsa_pkey_meth              0000000000078500     OpensslLib:rsa_pmeth.obj
 0002:000238e0       rsa_pss_pkey_meth          0000000000078600     OpensslLib:rsa_pmeth.obj
 0002:000239e0       ??_C@_0BB@BILFEOKG@rsa_padding_mode@ 0000000000078700     OpensslLib:rsa_pmeth.obj
 0002:000239f4       ??_C@_06PDLHKEJK@sslv23@   0000000000078714     OpensslLib:rsa_pmeth.obj
 0002:000239fc       ??_C@_04CGFJFPFD@none@     000000000007871c     OpensslLib:rsa_pmeth.obj
 0002:00023a04       ??_C@_04EIGNDHKO@oeap@     0000000000078724     OpensslLib:rsa_pmeth.obj
 0002:00023a0c       ??_C@_04MAAGAICF@oaep@     000000000007872c     OpensslLib:rsa_pmeth.obj
 0002:00023a14       ??_C@_04JNCMEILM@x931@     0000000000078734     OpensslLib:rsa_pmeth.obj
 0002:00023a20       ??_C@_0BA@CIHMEEHB@rsa_pss_saltlen@ 0000000000078740     OpensslLib:rsa_pmeth.obj
 0002:00023a30       ??_C@_03LJAEFNNE@max@      0000000000078750     OpensslLib:rsa_pmeth.obj
 0002:00023a34       ??_C@_04HAPDLBFF@auto@     0000000000078754     OpensslLib:rsa_pmeth.obj
 0002:00023a40       ??_C@_0BA@GFPKPLAF@rsa_keygen_bits@ 0000000000078760     OpensslLib:rsa_pmeth.obj
 0002:00023a50       ??_C@_0BC@DMECNPFD@rsa_keygen_pubexp@ 0000000000078770     OpensslLib:rsa_pmeth.obj
 0002:00023a68       ??_C@_0BC@KMPAJFPF@rsa_keygen_primes@ 0000000000078788     OpensslLib:rsa_pmeth.obj
 0002:00023a80       ??_C@_0M@CNLGKALE@rsa_mgf1_md@ 00000000000787a0     OpensslLib:rsa_pmeth.obj
 0002:00023a90       ??_C@_0BH@OIJPKNFL@rsa_pss_keygen_mgf1_md@ 00000000000787b0     OpensslLib:rsa_pmeth.obj
 0002:00023aa8       ??_C@_0BC@BFLLMFID@rsa_pss_keygen_md@ 00000000000787c8     OpensslLib:rsa_pmeth.obj
 0002:00023ac0       ??_C@_0BH@MFJEKBFK@rsa_pss_keygen_saltlen@ 00000000000787e0     OpensslLib:rsa_pmeth.obj
 0002:00023ad8       ??_C@_0M@OPEEJBKE@rsa_oaep_md@ 00000000000787f8     OpensslLib:rsa_pmeth.obj
 0002:00023ae8       ??_C@_0P@NCFNIFLM@rsa_oaep_label@ 0000000000078808     OpensslLib:rsa_pmeth.obj
 0002:00023b00       tls1_prf_pkey_meth         0000000000078820     OpensslLib:tls1_prf.obj
 0002:00023c00       ??_C@_06PNMBKEGN@secret@   0000000000078920     OpensslLib:tls1_prf.obj
 0002:00023c08       ??_C@_09CIFGBJCP@hexsecret@ 0000000000078928     OpensslLib:tls1_prf.obj
 0002:00023c14       ??_C@_04MENKDCKE@seed@     0000000000078934     OpensslLib:tls1_prf.obj
 0002:00023c20       ??_C@_07FKCLENDA@hexseed@  0000000000078940     OpensslLib:tls1_prf.obj
 0002:00023c30       hkdf_pkey_meth             0000000000078950     OpensslLib:hkdf.obj
 0002:00023d30       ??_C@_04GMGOKAFF@mode@     0000000000078a50     OpensslLib:hkdf.obj
 0002:00023d38       ??_C@_0BD@PBGBEBFD@EXTRACT_AND_EXPAND@ 0000000000078a58     OpensslLib:hkdf.obj
 0002:00023d50       ??_C@_0N@OIPAJIAH@EXTRACT_ONLY@ 0000000000078a70     OpensslLib:hkdf.obj
 0002:00023d60       ??_C@_0M@FMHABNKF@EXPAND_ONLY@ 0000000000078a80     OpensslLib:hkdf.obj
 0002:00023d6c       ??_C@_04OKLIMCN@salt@      0000000000078a8c     OpensslLib:hkdf.obj
 0002:00023d78       ??_C@_07JAFKPDLJ@hexsalt@  0000000000078a98     OpensslLib:hkdf.obj
 0002:00023d80       ??_C@_07EGMICCIA@hexinfo@  0000000000078aa0     OpensslLib:hkdf.obj
 0002:00023d90       siphash_pkey_meth          0000000000078ab0     OpensslLib:siphash_pmeth.obj
 0002:00023e90       ??_C@_0L@NANBDDC@digestsize@ 0000000000078bb0     OpensslLib:siphash_pmeth.obj
 0002:00023ea0       hmac_pkey_meth             0000000000078bc0     OpensslLib:hm_pmeth.obj
 0002:00023fa0       ??_C@_0L@LIHNHIHF@?$CF?$CKs?$CF04x?5?9?5@ 0000000000078cc0     OpensslLib:b_dump.obj
 0002:00023fac       ??_C@_03NDEAONJP@?5?5?5@   0000000000078ccc     OpensslLib:b_dump.obj
 0002:00023fb0       ??_C@_02KNHHEEKP@?5?5@     0000000000078cd0     OpensslLib:b_dump.obj
 0002:00023fb4       ??_C@_06KAALCHHK@crlUrl@   0000000000078cd4     OpensslLib:ocsp_asn.obj
 0002:00023fbc       ??_C@_06DLEHNACA@crlNum@   0000000000078cdc     OpensslLib:ocsp_asn.obj
 0002:00023fc8       ??_C@_07BDEAJPPO@crlTime@  0000000000078ce8     OpensslLib:ocsp_asn.obj
 0002:00023fd0       ??_C@_0L@JOKCDHBA@OCSP_CRLID@ 0000000000078cf0     OpensslLib:ocsp_asn.obj
 0002:00023fe0       ??_C@_07PAIKCKMF@locator@  0000000000078d00     OpensslLib:ocsp_asn.obj
 0002:00023fe8       ??_C@_0BA@JLGHGCLL@OCSP_SERVICELOC@ 0000000000078d08     OpensslLib:ocsp_asn.obj
 0002:000240a0       OCSP_SERVICELOC_it         0000000000078dc0     OpensslLib:ocsp_asn.obj
 0002:000240d0       OCSP_CRLID_it              0000000000078df0     OpensslLib:ocsp_asn.obj
 0002:00024100       ??_C@_0BD@LDHEJACI@OpenSSL?5PKCS?$CD1?5RSA@ 0000000000078e20     OpensslLib:rsa_ossl.obj
 0002:00024118       ??_C@_0BC@MGHKLCAP@OpenSSL?5DH?5Method@ 0000000000078e38     OpensslLib:dh_key.obj
 0002:00024130       cmac_asn1_meth             0000000000078e50     OpensslLib:cm_ameth.obj
 0002:00024248       ??_C@_0BE@GBIGMENL@OpenSSL?5CMAC?5method@ 0000000000078f68     OpensslLib:cm_ameth.obj
 0002:00024260       siphash_asn1_meth          0000000000078f80     OpensslLib:siphash_ameth.obj
 0002:00024378       ??_C@_07IBBIJFNK@SIPHASH@  0000000000079098     OpensslLib:siphash_ameth.obj
 0002:00024380       ??_C@_0BH@FCFCAEA@OpenSSL?5SIPHASH?5method@ 00000000000790a0     OpensslLib:siphash_ameth.obj
 0002:000243a0       hmac_asn1_meth             00000000000790c0     OpensslLib:hm_ameth.obj
 0002:000244b8       ??_C@_0BE@BABEGANF@OpenSSL?5HMAC?5method@ 00000000000791d8     OpensslLib:hm_ameth.obj
 0002:000244d0       rsa_pss_asn1_meth          00000000000791f0     OpensslLib:rsa_ameth.obj
 0002:000245f0       rsa_asn1_meths             0000000000079310     OpensslLib:rsa_ameth.obj
 0002:00024820       ??_C@_0BP@CGCIOPAF@No?5PSS?5parameter?5restrictions?6@ 0000000000079540     OpensslLib:rsa_ameth.obj
 0002:00024840       ??_C@_0BM@OMMNCLDM@PSS?5parameter?5restrictions?3@ 0000000000079560     OpensslLib:rsa_ameth.obj
 0002:00024860       ??_C@_0BK@KFGFELEH@?$CIINVALID?5PSS?5PARAMETERS?$CJ?6@ 0000000000079580     OpensslLib:rsa_ameth.obj
 0002:00024880       ??_C@_0BB@PMMDHLKH@Hash?5Algorithm?3?5@ 00000000000795a0     OpensslLib:rsa_ameth.obj
 0002:00024898       ??_C@_0P@ODEAMLKF@sha1?5?$CIdefault?$CJ@ 00000000000795b8     OpensslLib:rsa_ameth.obj
 0002:000248a8       ??_C@_0BB@HEAMLCPA@Mask?5Algorithm?3?5@ 00000000000795c8     OpensslLib:rsa_ameth.obj
 0002:000248bc       ??_C@_06BIDGLIKJ@?5with?5@ 00000000000795dc     OpensslLib:rsa_ameth.obj
 0002:000248c8       ??_C@_07DNODLGKM@INVALID@  00000000000795e8     OpensslLib:rsa_ameth.obj
 0002:000248d0       ??_C@_0BJ@NNFOENLD@mgf1?5with?5sha1?5?$CIdefault?$CJ@ 00000000000795f0     OpensslLib:rsa_ameth.obj
 0002:000248f0       ??_C@_07NLJCBFAF@Minimum@  0000000000079610     OpensslLib:rsa_ameth.obj
 0002:000248f8       ??_C@_0BD@DPAJFAGN@?$CFs?5Salt?5Length?3?50x@ 0000000000079618     OpensslLib:rsa_ameth.obj
 0002:00024910       ??_C@_0N@CGLOPGL@14?5?$CIdefault?$CJ@ 0000000000079630     OpensslLib:rsa_ameth.obj
 0002:00024920       ??_C@_0BC@EDKEKAHK@Trailer?5Field?3?50x@ 0000000000079640     OpensslLib:rsa_ameth.obj
 0002:00024938       ??_C@_0N@FFIHJHFK@BC?5?$CIdefault?$CJ@ 0000000000079658     OpensslLib:rsa_ameth.obj
 0002:00024948       ??_C@_07FGNHIEKH@RSA?9PSS@ 0000000000079668     OpensslLib:rsa_ameth.obj
 0002:00024950       ??_C@_03IKGEINEE@?$CFs?5@  0000000000079670     OpensslLib:rsa_ameth.obj
 0002:00024958       ??_C@_0CC@BJIIEMBB@Private?9Key?3?5?$CI?$CFd?5bit?0?5?$CFd?5primes@ 0000000000079678     OpensslLib:rsa_ameth.obj
 0002:00024980       ??_C@_08OKDKAJKD@modulus?3@ 00000000000796a0     OpensslLib:rsa_ameth.obj
 0002:00024990       ??_C@_0BA@FAAMOFHC@publicExponent?3@ 00000000000796b0     OpensslLib:rsa_ameth.obj
 0002:000249a0       ??_C@_0BG@HAJOCCOP@Public?9Key?3?5?$CI?$CFd?5bit?$CJ?6@ 00000000000796c0     OpensslLib:rsa_ameth.obj
 0002:000249b8       ??_C@_08GIMLILAA@Modulus?3@ 00000000000796d8     OpensslLib:rsa_ameth.obj
 0002:000249c8       ??_C@_09DALHJPOO@Exponent?3@ 00000000000796e8     OpensslLib:rsa_ameth.obj
 0002:000249d8       ??_C@_0BB@NFOLHHHJ@privateExponent?3@ 00000000000796f8     OpensslLib:rsa_ameth.obj
 0002:000249f0       ??_C@_07PNLMLIF@prime1?3@  0000000000079710     OpensslLib:rsa_ameth.obj
 0002:000249f8       ??_C@_07NJNHFNM@prime2?3@  0000000000079718     OpensslLib:rsa_ameth.obj
 0002:00024a00       ??_C@_0L@OIOCMGKP@exponent1?3@ 0000000000079720     OpensslLib:rsa_ameth.obj
 0002:00024a10       ??_C@_0L@OKKEHIPG@exponent2?3@ 0000000000079730     OpensslLib:rsa_ameth.obj
 0002:00024a20       ??_C@_0N@GNAMJPHF@coefficient?3@ 0000000000079740     OpensslLib:rsa_ameth.obj
 0002:00024a30       ??_C@_08BCNLBGP@prime?$CFd?3@ 0000000000079750     OpensslLib:rsa_ameth.obj
 0002:00024a40       ??_C@_0M@NKHBEBLE@exponent?$CFd?3@ 0000000000079760     OpensslLib:rsa_ameth.obj
 0002:00024a50       ??_C@_0P@FAPFJECG@coefficient?$CFd?3@ 0000000000079770     OpensslLib:rsa_ameth.obj
 0002:00024a60       ??_C@_0BD@MHOEKPBI@OpenSSL?5RSA?5method@ 0000000000079780     OpensslLib:rsa_ameth.obj
 0002:00024a78       ??_C@_0BH@JANGLOLP@OpenSSL?5RSA?9PSS?5method@ 0000000000079798     OpensslLib:rsa_ameth.obj
 0002:00024a90       dh_asn1_meth               00000000000797b0     OpensslLib:dh_ameth.obj
 0002:00024bb0       dhx_asn1_meth              00000000000798d0     OpensslLib:dh_ameth.obj
 0002:00024cc8       ??_C@_0P@ELBFBOG@DH?5Private?9Key@ 00000000000799e8     OpensslLib:dh_ameth.obj
 0002:00024cd8       ??_C@_0O@EBAKGDPN@DH?5Public?9Key@ 00000000000799f8     OpensslLib:dh_ameth.obj
 0002:00024ce8       ??_C@_0O@OMPEPKAJ@DH?5Parameters@ 0000000000079a08     OpensslLib:dh_ameth.obj
 0002:00024cf8       ??_C@_0O@OPPPNLCD@?$CFs?3?5?$CI?$CFd?5bit?$CJ?6@ 0000000000079a18     OpensslLib:dh_ameth.obj
 0002:00024d08       ??_C@_0N@MPONDEBM@private?9key?3@ 0000000000079a28     OpensslLib:dh_ameth.obj
 0002:00024d18       ??_C@_0M@BCALNHOD@public?9key?3@ 0000000000079a38     OpensslLib:dh_ameth.obj
 0002:00024d24       ??_C@_06POMKLBDA@prime?3@  0000000000079a44     OpensslLib:dh_ameth.obj
 0002:00024d30       ??_C@_0L@HDGHCIJF@generator?3@ 0000000000079a50     OpensslLib:dh_ameth.obj
 0002:00024d40       ??_C@_0BA@PFGIPGBD@subgroup?5order?3@ 0000000000079a60     OpensslLib:dh_ameth.obj
 0002:00024d50       ??_C@_0BB@HEOELHJJ@subgroup?5factor?3@ 0000000000079a70     OpensslLib:dh_ameth.obj
 0002:00024d64       ??_C@_05PENGGDLK@seed?3@   0000000000079a84     OpensslLib:dh_ameth.obj
 0002:00024d6c       ??_C@_06LEJCPMLM@?$CF02x?$CFs@ 0000000000079a8c     OpensslLib:dh_ameth.obj
 0002:00024d78       ??_C@_08ILALFGPI@counter?3@ 0000000000079a98     OpensslLib:dh_ameth.obj
 0002:00024d88       ??_C@_0CF@KKPEILHE@recommended?9private?9length?3?5?$CFd?5@ 0000000000079aa8     OpensslLib:dh_ameth.obj
 0002:00024db0       ??_C@_02EPINMGPM@DH@       0000000000079ad0     OpensslLib:dh_ameth.obj
 0002:00024db8       ??_C@_0BJ@OPGBMMOB@OpenSSL?5PKCS?$CD3?5DH?5method@ 0000000000079ad8     OpensslLib:dh_ameth.obj
 0002:00024dd8       ??_C@_0BI@JOIJFJMC@OpenSSL?5X9?442?5DH?5method@ 0000000000079af8     OpensslLib:dh_ameth.obj
 0002:00024df0       v3_ocsp_accresp            0000000000079b10     OpensslLib:v3_extku.obj
 0002:00024e60       v3_ext_ku                  0000000000079b80     OpensslLib:v3_extku.obj
 0002:00024ec8       ??_C@_0BD@CKAGEBEF@EXTENDED_KEY_USAGE@ 0000000000079be8     OpensslLib:v3_extku.obj
 0002:00024f00       EXTENDED_KEY_USAGE_it      0000000000079c20     OpensslLib:v3_extku.obj
 0002:00024f30       v3_key_usage               0000000000079c50     OpensslLib:v3_bitst.obj
 0002:00024fa0       v3_nscert                  0000000000079cc0     OpensslLib:v3_bitst.obj
 0002:00025008       ??_C@_06DGDLPBAN@client@   0000000000079d28     OpensslLib:v3_bitst.obj
 0002:00025010       ??_C@_06HJHJCKIO@server@   0000000000079d30     OpensslLib:v3_bitst.obj
 0002:00025018       ??_C@_0P@DDHLFHHK@Object?5Signing@ 0000000000079d38     OpensslLib:v3_bitst.obj
 0002:00025028       ??_C@_07GIOKFKGL@objsign@  0000000000079d48     OpensslLib:v3_bitst.obj
 0002:00025030       ??_C@_08FINKBBAF@reserved@ 0000000000079d50     OpensslLib:v3_bitst.obj
 0002:0002503c       ??_C@_06FMDLPOFJ@SSL?5CA@  0000000000079d5c     OpensslLib:v3_bitst.obj
 0002:00025044       ??_C@_05JHLHLOEK@sslCA@    0000000000079d64     OpensslLib:v3_bitst.obj
 0002:00025050       ??_C@_09GIEMCMEO@S?1MIME?5CA@ 0000000000079d70     OpensslLib:v3_bitst.obj
 0002:00025060       ??_C@_07FFHDGPMJ@emailCA@  0000000000079d80     OpensslLib:v3_bitst.obj
 0002:00025068       ??_C@_0BC@FAMHGMHB@Object?5Signing?5CA@ 0000000000079d88     OpensslLib:v3_bitst.obj
 0002:0002507c       ??_C@_05JLEIJNEE@objCA@    0000000000079d9c     OpensslLib:v3_bitst.obj
 0002:00025088       ??_C@_0BC@DPKEIPIO@Digital?5Signature@ 0000000000079da8     OpensslLib:v3_bitst.obj
 0002:000250a0       ??_C@_0BB@MFKHIIOM@digitalSignature@ 0000000000079dc0     OpensslLib:v3_bitst.obj
 0002:000250b8       ??_C@_0BA@DJCGBBAI@Non?5Repudiation@ 0000000000079dd8     OpensslLib:v3_bitst.obj
 0002:000250c8       ??_C@_0P@GPCNPOGO@nonRepudiation@ 0000000000079de8     OpensslLib:v3_bitst.obj
 0002:000250d8       ??_C@_0BB@KNACIBEN@Key?5Encipherment@ 0000000000079df8     OpensslLib:v3_bitst.obj
 0002:000250f0       ??_C@_0BA@MINCLOJG@keyEncipherment@ 0000000000079e10     OpensslLib:v3_bitst.obj
 0002:00025100       ??_C@_0BC@GNPIAJLP@Data?5Encipherment@ 0000000000079e20     OpensslLib:v3_bitst.obj
 0002:00025118       ??_C@_0BB@LBKKKIGO@dataEncipherment@ 0000000000079e38     OpensslLib:v3_bitst.obj
 0002:00025130       ??_C@_0O@EOJOBCHL@Key?5Agreement@ 0000000000079e50     OpensslLib:v3_bitst.obj
 0002:00025140       ??_C@_0N@GONHKOEO@keyAgreement@ 0000000000079e60     OpensslLib:v3_bitst.obj
 0002:00025150       ??_C@_0BB@ELNGMDLH@Certificate?5Sign@ 0000000000079e70     OpensslLib:v3_bitst.obj
 0002:00025168       ??_C@_0M@ONBOOMGI@keyCertSign@ 0000000000079e88     OpensslLib:v3_bitst.obj
 0002:00025178       ??_C@_08OCJGKMAN@CRL?5Sign@ 0000000000079e98     OpensslLib:v3_bitst.obj
 0002:00025188       ??_C@_07IHBCCDFJ@cRLSign@  0000000000079ea8     OpensslLib:v3_bitst.obj
 0002:00025190       ??_C@_0O@CANGKMJD@Encipher?5Only@ 0000000000079eb0     OpensslLib:v3_bitst.obj
 0002:000251a0       ??_C@_0N@BEFDLIKF@encipherOnly@ 0000000000079ec0     OpensslLib:v3_bitst.obj
 0002:000251b0       ??_C@_0O@FKBAPCEG@Decipher?5Only@ 0000000000079ed0     OpensslLib:v3_bitst.obj
 0002:000251c0       ??_C@_0N@LIFHMFCO@decipherOnly@ 0000000000079ee0     OpensslLib:v3_bitst.obj
 0002:000251d0       v3_ocsp_crlid              0000000000079ef0     OpensslLib:v3_ocsp.obj
 0002:00025240       v3_crl_hold                0000000000079f60     OpensslLib:v3_ocsp.obj
 0002:000252b0       v3_ocsp_nocheck            0000000000079fd0     OpensslLib:v3_ocsp.obj
 0002:00025320       v3_ocsp_acutoff            000000000007a040     OpensslLib:v3_ocsp.obj
 0002:00025390       v3_ocsp_nonce              000000000007a0b0     OpensslLib:v3_ocsp.obj
 0002:00025400       v3_crl_invdate             000000000007a120     OpensslLib:v3_ocsp.obj
 0002:00025470       v3_ocsp_serviceloc         000000000007a190     OpensslLib:v3_ocsp.obj
 0002:000254d8       ??_C@_0M@KIKBFHBJ@?$CF?$CKscrlUrl?3?5@ 000000000007a1f8     OpensslLib:v3_ocsp.obj
 0002:000254e8       ??_C@_0M@MLCMBODE@?$CF?$CKscrlNum?3?5@ 000000000007a208     OpensslLib:v3_ocsp.obj
 0002:000254f8       ??_C@_0N@IBJOMEDL@?$CF?$CKscrlTime?3?5@ 000000000007a218     OpensslLib:v3_ocsp.obj
 0002:00025508       ??_C@_0M@IHOINNJF@?$CF?$CKsIssuer?3?5@ 000000000007a228     OpensslLib:v3_ocsp.obj
 0002:00025514       ??_C@_04NFEJKGEM@?6?$CF?$CKs@ 000000000007a234     OpensslLib:v3_ocsp.obj
 0002:0002551c       ??_C@_03NLJIHOMM@?5?9?5@   000000000007a23c     OpensslLib:v3_ocsp.obj
 0002:00025520       v3_akey_id                 000000000007a240     OpensslLib:v3_akey.obj
 0002:00025588       ??_C@_06KHDOHNKC@always@   000000000007a2a8     OpensslLib:v3_akey.obj
 0002:00025590       v3_ns_ia5_list             000000000007a2b0     OpensslLib:v3_ia5.obj
 0002:000258d0       v3_delta_crl               000000000007a5f0     OpensslLib:v3_int.obj
 0002:00025940       v3_inhibit_anyp            000000000007a660     OpensslLib:v3_int.obj
 0002:000259b0       v3_crl_num                 000000000007a6d0     OpensslLib:v3_int.obj
 0002:00025a20       v3_ext_admission           000000000007a740     OpensslLib:v3_admis.obj
 0002:00025a88       ??_C@_0BC@KHBCHCNJ@namingAuthorityId@ 000000000007a7a8     OpensslLib:v3_admis.obj
 0002:00025aa0       ??_C@_0BD@DEIEGLEM@namingAuthorityUrl@ 000000000007a7c0     OpensslLib:v3_admis.obj
 0002:00025ab8       ??_C@_0BE@NPIMHIBI@namingAuthorityText@ 000000000007a7d8     OpensslLib:v3_admis.obj
 0002:00025ad0       ??_C@_0BB@COJAOCFM@NAMING_AUTHORITY@ 000000000007a7f0     OpensslLib:v3_admis.obj
 0002:00025ae8       ??_C@_0BA@DBBLIBJC@namingAuthority@ 000000000007a808     OpensslLib:v3_admis.obj
 0002:00025af8       ??_C@_0BA@JCIKJJCP@professionItems@ 000000000007a818     OpensslLib:v3_admis.obj
 0002:00025b08       ??_C@_0P@PBNEFCJO@professionOIDs@ 000000000007a828     OpensslLib:v3_admis.obj
 0002:00025b18       ??_C@_0BD@NJLNALHF@registrationNumber@ 000000000007a838     OpensslLib:v3_admis.obj
 0002:00025b30       ??_C@_0BC@EDMGMCCO@addProfessionInfo@ 000000000007a850     OpensslLib:v3_admis.obj
 0002:00025b48       ??_C@_0BA@KKEGAEAH@PROFESSION_INFO@ 000000000007a868     OpensslLib:v3_admis.obj
 0002:00025b58       ??_C@_0BD@GKCCDPCL@admissionAuthority@ 000000000007a878     OpensslLib:v3_admis.obj
 0002:00025b70       ??_C@_0BA@KJOLGNIM@professionInfos@ 000000000007a890     OpensslLib:v3_admis.obj
 0002:00025b80       ??_C@_0L@OIMBEHAN@ADMISSIONS@ 000000000007a8a0     OpensslLib:v3_admis.obj
 0002:00025b90       ??_C@_0BF@FNBKMPAG@contentsOfAdmissions@ 000000000007a8b0     OpensslLib:v3_admis.obj
 0002:00025ba8       ??_C@_0BB@PBMIGONA@ADMISSION_SYNTAX@ 000000000007a8c8     OpensslLib:v3_admis.obj
 0002:00025bc0       ??_C@_0BF@MPDFFBEA@?$CF?$CKsnamingAuthority?3?5@ 000000000007a8e0     OpensslLib:v3_admis.obj
 0002:00025bd8       ??_C@_0BM@DCICMEAO@?$CF?$CKs?5?5admissionAuthorityId?3?5@ 000000000007a8f8     OpensslLib:v3_admis.obj
 0002:00025bf4       ??_C@_01PKGAHCOL@?$CJ@     000000000007a914     OpensslLib:v3_admis.obj
 0002:00025bf8       ??_C@_02GFKOMOKH@?5?$CI@   000000000007a918     OpensslLib:v3_admis.obj
 0002:00025c00       ??_C@_09MCJOGJJM@?$CFs?$CFs?$CFs?$CFs?6@ 000000000007a920     OpensslLib:v3_admis.obj
 0002:00025c10       ??_C@_0BL@DELGFPFK@?$CF?$CKs?5?5namingAuthorityText?3?5@ 000000000007a930     OpensslLib:v3_admis.obj
 0002:00025c30       ??_C@_0BK@OPCGIEEP@?$CF?$CKs?5?5namingAuthorityUrl?3?5@ 000000000007a950     OpensslLib:v3_admis.obj
 0002:00025c50       ??_C@_0BI@NKKBPCEB@?$CF?$CKsadmissionAuthority?3?6@ 000000000007a970     OpensslLib:v3_admis.obj
 0002:00025c68       ??_C@_05EGGOJAEM@?$CF?$CKs?5?5@ 000000000007a988     OpensslLib:v3_admis.obj
 0002:00025c70       ??_C@_0P@ONCDAKNH@?$CF?$CKsEntry?5?$CF0d?3?6@ 000000000007a990     OpensslLib:v3_admis.obj
 0002:00025c80       ??_C@_0BK@MGPHHOEM@?$CF?$CKs?5?5admissionAuthority?3?6@ 000000000007a9a0     OpensslLib:v3_admis.obj
 0002:00025ca0       ??_C@_07BAKLHGB@?$CF?$CKs?5?5?5?5@ 000000000007a9c0     OpensslLib:v3_admis.obj
 0002:00025ca8       ??_C@_0CB@JOPMCDOG@?$CF?$CKs?5?5Profession?5Info?5Entry?5?$CF0d?3@ 000000000007a9c8     OpensslLib:v3_admis.obj
 0002:00025cd0       ??_C@_0BM@PNLACIIE@?$CF?$CKs?5?5?5?5registrationNumber?3?5@ 000000000007a9f0     OpensslLib:v3_admis.obj
 0002:00025cf0       ??_C@_0BG@COHLBKD@?$CF?$CKs?5?5?5?5Info?5Entries?3?6@ 000000000007aa10     OpensslLib:v3_admis.obj
 0002:00025d08       ??_C@_09IECKBPIB@?$CF?$CKs?5?5?5?5?5?5@ 000000000007aa28     OpensslLib:v3_admis.obj
 0002:00025d18       ??_C@_0BJ@KFOBDAG@?$CF?$CKs?5?5?5?5Profession?5OIDs?3?6@ 000000000007aa38     OpensslLib:v3_admis.obj
 0002:00025d38       ??_C@_0BD@OELCPJIC@?$CF?$CKs?5?5?5?5?5?5?$CFs?$CFs?$CFs?$CFs?6@ 000000000007aa58     OpensslLib:v3_admis.obj
 0002:00025d50       PROFESSION_INFO_it         000000000007aa70     OpensslLib:v3_admis.obj
 0002:00025de0       ADMISSION_SYNTAX_it        000000000007ab00     OpensslLib:v3_admis.obj
 0002:00025e10       ADMISSIONS_it              000000000007ab30     OpensslLib:v3_admis.obj
 0002:00025f80       NAMING_AUTHORITY_it        000000000007aca0     OpensslLib:v3_admis.obj
 0002:00025fb0       v3_skey_id                 000000000007acd0     OpensslLib:v3_skey.obj
 0002:00026018       ??_C@_04OIJGJDKO@hash@     000000000007ad38     OpensslLib:v3_skey.obj
 0002:00026020       v3_crl_reason              000000000007ad40     OpensslLib:v3_enum.obj
 0002:00026088       ??_C@_0M@NNPCGPMF@Unspecified@ 000000000007ada8     OpensslLib:v3_enum.obj
 0002:00026098       ??_C@_0M@MFMDLEDN@unspecified@ 000000000007adb8     OpensslLib:v3_enum.obj
 0002:000260a8       ??_C@_0BA@GLPEKBIK@Remove?5From?5CRL@ 000000000007adc8     OpensslLib:v3_enum.obj
 0002:000260b8       ??_C@_0O@BILLKPKO@removeFromCRL@ 000000000007add8     OpensslLib:v3_enum.obj
 0002:000260d0       v3_pkey_usage_period       000000000007adf0     OpensslLib:v3_pku.obj
 0002:00026138       ??_C@_0BC@CCOKACDM@PKEY_USAGE_PERIOD@ 000000000007ae58     OpensslLib:v3_pku.obj
 0002:00026150       ??_C@_0N@KGLJEEMK@Not?5Before?3?5@ 000000000007ae70     OpensslLib:v3_pku.obj
 0002:00026160       ??_C@_0M@FCHJLIHE@Not?5After?3?5@ 000000000007ae80     OpensslLib:v3_pku.obj
 0002:000261b0       PKEY_USAGE_PERIOD_it       000000000007aed0     OpensslLib:v3_pku.obj
 0002:000261e0       v3_policy_mappings         000000000007af00     OpensslLib:v3_pmaps.obj
 0002:00026248       ??_C@_0BD@JILOPHFL@issuerDomainPolicy@ 000000000007af68     OpensslLib:v3_pmaps.obj
 0002:00026260       ??_C@_0BE@FFIKMOKF@subjectDomainPolicy@ 000000000007af80     OpensslLib:v3_pmaps.obj
 0002:00026278       ??_C@_0P@NLHMKCKF@POLICY_MAPPING@ 000000000007af98     OpensslLib:v3_pmaps.obj
 0002:00026288       ??_C@_0BA@DHPBCFFC@POLICY_MAPPINGS@ 000000000007afa8     OpensslLib:v3_pmaps.obj
 0002:000262e0       POLICY_MAPPINGS_it         000000000007b000     OpensslLib:v3_pmaps.obj
 0002:00026310       POLICY_MAPPING_it          000000000007b030     OpensslLib:v3_pmaps.obj
 0002:00026360       v3_sxnet                   000000000007b080     OpensslLib:v3_sxnet.obj
 0002:000263c8       ??_C@_04LDDJGOBB@zone@     000000000007b0e8     OpensslLib:v3_sxnet.obj
 0002:000263d0       ??_C@_04CCHAHKJA@user@     000000000007b0f0     OpensslLib:v3_sxnet.obj
 0002:000263d8       ??_C@_07FLDOGLPN@SXNETID@  000000000007b0f8     OpensslLib:v3_sxnet.obj
 0002:000263e0       ??_C@_03NDFJNBKD@ids@      000000000007b100     OpensslLib:v3_sxnet.obj
 0002:000263e4       ??_C@_05BPAJFIHK@SXNET@    000000000007b104     OpensslLib:v3_sxnet.obj
 0002:000263f0       ??_C@_0BF@NMLBNADB@?6?$CF?$CKsZone?3?5?$CFs?0?5User?3?5@ 000000000007b110     OpensslLib:v3_sxnet.obj
 0002:00026450       SXNETID_it                 000000000007b170     OpensslLib:v3_sxnet.obj
 0002:000264c0       SXNET_it                   000000000007b1e0     OpensslLib:v3_sxnet.obj
 0002:000264f0       v3_pci                     000000000007b210     OpensslLib:v3_pci.obj
 0002:00026558       ??_C@_0BE@HDJEDONA@?$CF?$CKsPolicy?5Text?3?5?$CFs?6@ 000000000007b278     OpensslLib:v3_pci.obj
 0002:00026570       ??_C@_08JGCCIMAA@language@ 000000000007b290     OpensslLib:v3_pci.obj
 0002:0002657c       ??_C@_04ODCMNEMO@hex?3@    000000000007b29c     OpensslLib:v3_pci.obj
 0002:00026584       ??_C@_05BOPHDICO@file?3@   000000000007b2a4     OpensslLib:v3_pci.obj
 0002:0002658c       ??_C@_05FHIGHPDA@text?3@   000000000007b2ac     OpensslLib:v3_pci.obj
 0002:000265a0       v3_tls_feature             000000000007b2c0     OpensslLib:v3_tlsf.obj
 0002:00026608       ??_C@_0M@HGHOPPFP@TLS_FEATURE@ 000000000007b328     OpensslLib:v3_tlsf.obj
 0002:00026618       ??_C@_0P@NAKMKOPA@status_request@ 000000000007b338     OpensslLib:v3_tlsf.obj
 0002:00026628       ??_C@_0BC@HEECFCMD@status_request_v2@ 000000000007b348     OpensslLib:v3_tlsf.obj
 0002:00026690       ??_C@_04JBGFELJA@tag?$DN@  000000000007b3b0     OpensslLib:asn1_gen.obj
 0002:00026698       ??_C@_05CCNLIHFO@ASCII@    000000000007b3b8     OpensslLib:asn1_gen.obj
 0002:000266a0       ??_C@_03IECIMIEG@HEX@      000000000007b3c0     OpensslLib:asn1_gen.obj
 0002:000266a8       ??_C@_07HMNLDFAL@BITLIST@  000000000007b3c8     OpensslLib:asn1_gen.obj
 0002:000266b0       ??_C@_05NALEHOPE@Char?$DN@ 000000000007b3d0     OpensslLib:asn1_gen.obj
 0002:000266b8       ??_C@_04PPJDIBFE@BOOL@     000000000007b3d8     OpensslLib:asn1_gen.obj
 0002:000266c0       ??_C@_03JMHEAPMO@INT@      000000000007b3e0     OpensslLib:asn1_gen.obj
 0002:000266c4       ??_C@_04PNKFCNMG@ENUM@     000000000007b3e4     OpensslLib:asn1_gen.obj
 0002:000266cc       ??_C@_03PGJCFEMG@OID@      000000000007b3ec     OpensslLib:asn1_gen.obj
 0002:000266d0       ??_C@_03JCIJEFNJ@UTC@      000000000007b3f0     OpensslLib:asn1_gen.obj
 0002:000266d8       ??_C@_07EECHABMP@GENTIME@  000000000007b3f8     OpensslLib:asn1_gen.obj
 0002:000266e0       ??_C@_03LBMHMDEB@OCT@      000000000007b400     OpensslLib:asn1_gen.obj
 0002:000266e8       ??_C@_0M@JIDALIGG@OCTETSTRING@ 000000000007b408     OpensslLib:asn1_gen.obj
 0002:000266f4       ??_C@_06GOEDGPII@BITSTR@   000000000007b414     OpensslLib:asn1_gen.obj
 0002:00026700       ??_C@_09MBLGEDKL@BITSTRING@ 000000000007b420     OpensslLib:asn1_gen.obj
 0002:0002670c       ??_C@_04CBEPCLMK@UNIV@     000000000007b42c     OpensslLib:asn1_gen.obj
 0002:00026714       ??_C@_03OLMOBCBF@IA5@      000000000007b434     OpensslLib:asn1_gen.obj
 0002:00026718       ??_C@_09OMDMMLJJ@PRINTABLE@ 000000000007b438     OpensslLib:asn1_gen.obj
 0002:00026724       ??_C@_03HMGPCGIG@T61@      000000000007b444     OpensslLib:asn1_gen.obj
 0002:00026728       ??_C@_0O@GENPGMAM@TELETEXSTRING@ 000000000007b448     OpensslLib:asn1_gen.obj
 0002:00026738       ??_C@_0O@OIKLOOAP@GeneralString@ 000000000007b458     OpensslLib:asn1_gen.obj
 0002:00026748       ??_C@_06GBOJAPHH@GENSTR@   000000000007b468     OpensslLib:asn1_gen.obj
 0002:00026750       ??_C@_07DBOJJFHC@NUMERIC@  000000000007b470     OpensslLib:asn1_gen.obj
 0002:00026758       ??_C@_03NCPCKDJB@SEQ@      000000000007b478     OpensslLib:asn1_gen.obj
 0002:0002675c       ??_C@_03KKGFKKLA@EXP@      000000000007b47c     OpensslLib:asn1_gen.obj
 0002:00026760       ??_C@_08CNKBIFDO@EXPLICIT@ 000000000007b480     OpensslLib:asn1_gen.obj
 0002:0002676c       ??_C@_03PKFOHEJD@IMP@      000000000007b48c     OpensslLib:asn1_gen.obj
 0002:00026770       ??_C@_08PPMOEJGF@IMPLICIT@ 000000000007b490     OpensslLib:asn1_gen.obj
 0002:00026780       ??_C@_07KIEILLID@OCTWRAP@  000000000007b4a0     OpensslLib:asn1_gen.obj
 0002:00026788       ??_C@_07LAEBDLGO@SEQWRAP@  000000000007b4a8     OpensslLib:asn1_gen.obj
 0002:00026790       ??_C@_07OAIMKKNN@SETWRAP@  000000000007b4b0     OpensslLib:asn1_gen.obj
 0002:00026798       ??_C@_07JHDNPBBM@BITWRAP@  000000000007b4b8     OpensslLib:asn1_gen.obj
 0002:000267a0       ??_C@_04HPGCGPG@FORM@      000000000007b4c0     OpensslLib:asn1_gen.obj
 0002:000267a8       ??_C@_06DPGELLJH@FORMAT@   000000000007b4c8     OpensslLib:asn1_gen.obj
 0002:000267b0       ??_C@_07IOGEOOAA@string?$DN@ 000000000007b4d0     OpensslLib:asn1_gen.obj
 0002:000267b8       ??_C@_03DNALGGBA@DIR@      000000000007b4d8     OpensslLib:asn1_gen.obj
 0002:000286a0       ??_C@_0M@IBLDKCHK@?5?$CINegative?$CJ@ 000000000007d3c0     OpensslLib:t_x509.obj
 0002:000286ac       ??_C@_05NJJIPCOC@?$CFs?50?6@ 000000000007d3cc     OpensslLib:t_pkey.obj
 0002:000286b8       ??_C@_0BE@KHLFKPFC@?$CFs?5?$CFs?$CFlu?5?$CI?$CFs0x?$CFlx?$CJ?6@ 000000000007d3d8     OpensslLib:t_pkey.obj
 0002:000286cc       ??_C@_05JMJKDBEJ@?$CFs?$CFs?6@ 000000000007d3ec     OpensslLib:t_pkey.obj
 0002:000286d4       ??_C@_02JPPHBJLD@?2?6@     000000000007d3f4     OpensslLib:f_int.obj
 0002:000286d8       ??_C@_01JEJKBAGA@g@        000000000007d3f8     OpensslLib:dh_asn1.obj
 0002:000286dc       ??_C@_06IJDLPEM@length@    000000000007d3fc     OpensslLib:dh_asn1.obj
 0002:000286e8       ??_C@_08LKFDNFJ@DHparams@  000000000007d408     OpensslLib:dh_asn1.obj
 0002:000286f8       ??_C@_07HDOCMLOI@counter@  000000000007d418     OpensslLib:dh_asn1.obj
 0002:00028700       ??_C@_0O@KANPBCM@int_dhvparams@ 000000000007d420     OpensslLib:dh_asn1.obj
 0002:00028710       ??_C@_01CBDEGOCN@j@        000000000007d430     OpensslLib:dh_asn1.obj
 0002:00028718       ??_C@_07JLLHOFNK@vparams@  000000000007d438     OpensslLib:dh_asn1.obj
 0002:00028720       ??_C@_0O@HMLHGNDO@int_dhx942_dh@ 000000000007d440     OpensslLib:dh_asn1.obj
 0002:00028800       DHparams_it                000000000007d520     OpensslLib:dh_asn1.obj
 0002:0002b3a0       ??_C@_09OJPHJNPC@fips_mode@ 00000000000800c0     OpensslLib:evp_cnf.obj
 0002:0002b3b0       ??_C@_0M@HEHLDANB@alg_section@ 00000000000800d0     OpensslLib:evp_cnf.obj
 0002:0002b3c0       ??_C@_0N@DJMJOKGL@stbl_section@ 00000000000800e0     OpensslLib:asn_mstbl.obj
 0002:0002b3d0       ??_C@_03KLIPLJLL@min@      00000000000800f0     OpensslLib:asn_mstbl.obj
 0002:0002b3d4       ??_C@_04LFLEPBN@mask@      00000000000800f4     OpensslLib:asn_mstbl.obj
 0002:0002b3dc       ??_C@_05GECEPKB@flags@     00000000000800fc     OpensslLib:asn_mstbl.obj
 0002:0002b3e4       ??_C@_06HCDOONEJ@nomask@   0000000000080104     OpensslLib:asn_mstbl.obj
 0002:0002b3ec       ??_C@_06KABKJMAI@field?$DN@ 000000000008010c     OpensslLib:asn_mstbl.obj
 0002:0002b3f8       ??_C@_08IPPANOEC@ssl_conf@ 0000000000080118     OpensslLib:conf_ssl.obj
 0002:0002b408       ??_C@_0M@HCKPEIO@oid_section@ 0000000000080128     OpensslLib:asn_moid.obj
 0002:0002b4e0       _bignum_dh2048_224_q       0000000000080200     OpensslLib:bn_dh.obj
 0002:0002b4f8       _bignum_dh2048_256_g       0000000000080218     OpensslLib:bn_dh.obj
 0002:0002b510       _bignum_dh1024_160_g       0000000000080230     OpensslLib:bn_dh.obj
 0002:0002b528       _bignum_dh2048_224_p       0000000000080248     OpensslLib:bn_dh.obj
 0002:0002b540       _bignum_dh2048_256_p       0000000000080260     OpensslLib:bn_dh.obj
 0002:0002b558       _bignum_dh2048_224_g       0000000000080278     OpensslLib:bn_dh.obj
 0002:0002b570       _bignum_dh1024_160_p       0000000000080290     OpensslLib:bn_dh.obj
 0002:0002b588       _bignum_dh2048_256_q       00000000000802a8     OpensslLib:bn_dh.obj
 0002:0002b5a0       _bignum_dh1024_160_q       00000000000802c0     OpensslLib:bn_dh.obj
 0002:0002b5b8       _bignum_ffdhe4096_p        00000000000802d8     OpensslLib:bn_dh.obj
 0002:0002b5d0       _bignum_ffdhe8192_p        00000000000802f0     OpensslLib:bn_dh.obj
 0002:0002b5e8       _bignum_ffdhe2048_p        0000000000080308     OpensslLib:bn_dh.obj
 0002:0002b600       _bignum_const_2            0000000000080320     OpensslLib:bn_dh.obj
 0002:0002b618       _bignum_ffdhe6144_p        0000000000080338     OpensslLib:bn_dh.obj
 0002:0002b630       _bignum_ffdhe3072_p        0000000000080350     OpensslLib:bn_dh.obj
 0002:0002d730       CumulativeDays             0000000000082450     BaseCryptLib:TimerWrapper.obj
 0002:0002d810       ??_C@_0BN@FHPHCJAL@BufferToSort?5?$CB?$DN?5?$CI?$CIvoid?5?$CK?$CJ?50?$CJ@ 0000000000082530     BaseCryptLib:CrtWrapper.obj
 0002:0002d830       ??_C@_0GD@DFFFCGHP@e?3?2code?2adl_n100_code?2uefipldpl@ 0000000000082550     BaseCryptLib:CrtWrapper.obj
 0002:0002d898       ??_C@_0CA@DJEMEKLN@CompareFunction?5?$CB?$DN?5?$CI?$CIvoid?5?$CK?$CJ?50?$CJ@ 00000000000825b8     BaseCryptLib:CrtWrapper.obj
 0002:0002d8b8       ??_C@_0BD@IPPNMEE@s1?5?$CB?$DN?5?$CI?$CIvoid?5?$CK?$CJ?50?$CJ@ 00000000000825d8     BaseCryptLib:CrtWrapper.obj
 0002:0002d8d0       ??_C@_0BD@OCHJABCG@s2?5?$CB?$DN?5?$CI?$CIvoid?5?$CK?$CJ?50?$CJ@ 00000000000825f0     BaseCryptLib:CrtWrapper.obj
 0002:0002d8e8       ??_C@_0BF@MBPLIJNB@base?5?$CB?$DN?5?$CI?$CIvoid?5?$CK?$CJ?50?$CJ@ 0000000000082608     BaseCryptLib:CrtWrapper.obj
 0002:0002d900       ??_C@_0BI@BKNMBGLA@compare?5?$CB?$DN?5?$CI?$CIvoid?5?$CK?$CJ?50?$CJ@ 0000000000082620     BaseCryptLib:CrtWrapper.obj
 0002:0002d920       ??_C@_0FE@EJOAIEGJ@e?3?2code?2adl_n100_code?2uefipldpl@ 0000000000082640     DxePcdLib:DxePcdLib.obj
 0002:0002d978       ??_C@_0BF@OOKDELHM@mPcd?5?$CB?$DN?5?$CI?$CIvoid?5?$CK?$CJ?50?$CJ@ 0000000000082698     DxePcdLib:DxePcdLib.obj
 0002:0002d990       ??_C@_0GE@KPKKBHPJ@e?3?2code?2adl_n100_code?2uefipldpl@ 00000000000826b0     BaseMemoryLibRepStr:ScanMem8Wrapper.obj
 0002:0002d9f8       __real@4020000000000000    0000000000082718     OpensslLib:drbg_lib.obj
 0002:0002da00       __real@43e0000000000000    0000000000082720     OpensslLib:drbg_lib.obj
 0002:0002da10       __xmm@36363636363636363636363636363636 0000000000082730     OpensslLib:hmac.obj
 0002:0002da20       __xmm@5c5c5c5c5c5c5c5c5c5c5c5c5c5c5c5c 0000000000082740     OpensslLib:hmac.obj
 0002:0002da84       __volatile_metadata        00000000000827a4     <linker-defined>
 0003:00000000       _fltused                   0000000000083280     BaseIntrinsicLib:MemoryIntrinsics.obj
 0003:00000008       gEfiGlobalVariableGuid     0000000000083288     SecurityStubDxe:AutoGen.obj
 0003:00000018       gEfiVirtualCdGuid          0000000000083298     SecurityStubDxe:AutoGen.obj
 0003:00000028       gEfiStatusCodeRuntimeProtocolGuid 00000000000832a8     SecurityStubDxe:AutoGen.obj
 0003:00000038       gEfiSecurityArchProtocolGuid 00000000000832b8     SecurityStubDxe:AutoGen.obj
 0003:00000048       gEfiFirmwareVolumeBlockProtocolGuid 00000000000832c8     SecurityStubDxe:AutoGen.obj
 0003:00000058       gEfiEventReadyToBootGuid   00000000000832d8     SecurityStubDxe:AutoGen.obj
 0003:00000068       gUefiSerialPortInfoGuid    00000000000832e8     SecurityStubDxe:AutoGen.obj
 0003:00000078       gEfiPersistentVirtualDiskGuid 00000000000832f8     SecurityStubDxe:AutoGen.obj
 0003:00000088       gEfiImageSecurityDatabaseGuid 0000000000083308     SecurityStubDxe:AutoGen.obj
 0003:00000098       gPcdProtocolGuid           0000000000083318     SecurityStubDxe:AutoGen.obj
 0003:000000a8       _gPcd_BinaryPatch_PcdPciSerialParameters 0000000000083328     SecurityStubDxe:AutoGen.obj
 0003:000000c8       gEfiDxeSmmReadyToLockProtocolGuid 0000000000083348     SecurityStubDxe:AutoGen.obj
 0003:000000d8       _gPcd_BinaryPatch_PcdReportStatusCodePropertyMask 0000000000083358     SecurityStubDxe:AutoGen.obj
 0003:000000e0       gEfiVTUTF8Guid             0000000000083360     SecurityStubDxe:AutoGen.obj
 0003:000000f0       gEfiLoadFileProtocolGuid   0000000000083370     SecurityStubDxe:AutoGen.obj
 0003:00000100       gEfiDeferredImageLoadProtocolGuid 0000000000083380     SecurityStubDxe:AutoGen.obj
 0003:00000110       gEfiCertPkcs7Guid          0000000000083390     SecurityStubDxe:AutoGen.obj
 0003:00000120       gEfiCertX509Sha384Guid     00000000000833a0     SecurityStubDxe:AutoGen.obj
 0003:00000130       gEfiDiskIoProtocolGuid     00000000000833b0     SecurityStubDxe:AutoGen.obj
 0003:00000140       gEfiFileInfoGuid           00000000000833c0     SecurityStubDxe:AutoGen.obj
 0003:00000150       gEfiUartDevicePathGuid     00000000000833d0     SecurityStubDxe:AutoGen.obj
 0003:00000160       gEfiCertX509Sha256Guid     00000000000833e0     SecurityStubDxe:AutoGen.obj
 0003:00000170       gEfiVT100Guid              00000000000833f0     SecurityStubDxe:AutoGen.obj
 0003:00000180       gEfiDevicePathProtocolGuid 0000000000083400     SecurityStubDxe:AutoGen.obj
 0003:00000190       gUefiAcpiBoardInfoGuid     0000000000083410     SecurityStubDxe:AutoGen.obj
 0003:000001a0       gEfiFirmwareVolume2ProtocolGuid 0000000000083420     SecurityStubDxe:AutoGen.obj
 0003:000001b0       gEfiCertX509Sha512Guid     0000000000083430     SecurityStubDxe:AutoGen.obj
 0003:000001c0       _gPcd_BinaryPatch_PcdSerialLineControl 0000000000083440     SecurityStubDxe:AutoGen.obj
 0003:000001c8       gEfiCertX509Guid           0000000000083448     SecurityStubDxe:AutoGen.obj
 0003:000001d8       _gPcd_BinaryPatch_PcdSerialUseMmio 0000000000083458     SecurityStubDxe:AutoGen.obj
 0003:000001e0       gEfiSimpleFileSystemProtocolGuid 0000000000083460     SecurityStubDxe:AutoGen.obj
 0003:000001f0       _gPcd_BinaryPatch_PcdDebugPrintErrorLevel 0000000000083470     SecurityStubDxe:AutoGen.obj
 0003:000001f8       gEfiTcg2ProtocolGuid       0000000000083478     SecurityStubDxe:AutoGen.obj
 0003:00000208       gEfiVT100PlusGuid          0000000000083488     SecurityStubDxe:AutoGen.obj
 0003:00000218       _gPcd_BinaryPatch_PcdDebugPropertyMask 0000000000083498     SecurityStubDxe:AutoGen.obj
 0003:00000220       gEfiHobListGuid            00000000000834a0     SecurityStubDxe:AutoGen.obj
 0003:00000230       gEfiDebugPortProtocolGuid  00000000000834b0     SecurityStubDxe:AutoGen.obj
 0003:00000240       gEfiTcgProtocolGuid        00000000000834c0     SecurityStubDxe:AutoGen.obj
 0003:00000250       gEfiSecurity2ArchProtocolGuid 00000000000834d0     SecurityStubDxe:AutoGen.obj
 0003:00000260       gEfiVirtualDiskGuid        00000000000834e0     SecurityStubDxe:AutoGen.obj
 0003:00000270       gEfiEndOfDxeEventGroupGuid 00000000000834f0     SecurityStubDxe:AutoGen.obj
 0003:00000280       _gPcd_BinaryPatch_PcdSerialFifoControl 0000000000083500     SecurityStubDxe:AutoGen.obj
 0003:00000288       gEfiBlockIoProtocolGuid    0000000000083508     SecurityStubDxe:AutoGen.obj
 0003:00000298       gEfiSasDevicePathGuid      0000000000083518     SecurityStubDxe:AutoGen.obj
 0003:000002a8       gMeasuredFvHobGuid         0000000000083528     SecurityStubDxe:AutoGen.obj
 0003:000002b8       gEfiPersistentVirtualCdGuid 0000000000083538     SecurityStubDxe:AutoGen.obj
 0003:000002c8       gEfiCallerIdGuid           0000000000083548     SecurityStubDxe:AutoGen.obj
 0003:000002d8       gEfiPcAnsiGuid             0000000000083558     SecurityStubDxe:AutoGen.obj
 0003:000002e8       _gPcd_BinaryPatch_PcdSerialExtendedTxFifoSize 0000000000083568     SecurityStubDxe:AutoGen.obj
 0003:000002f0       gEfiLoadFile2ProtocolGuid  0000000000083570     SecurityStubDxe:AutoGen.obj
 0003:00000300       mSecurityStub              0000000000083580     SecurityStubDxe:SecurityStub.obj
 0003:00000308       mSecurity2Stub             0000000000083588     SecurityStubDxe:SecurityStub.obj
 0003:00000310       mDeferredImageLoad         0000000000083590     SecurityStubDxe:Defer3rdPartyImageLoad.obj
 0003:00000318       mHashOidValue              0000000000083598     DxeImageVerificationLib:DxeImageVerificationLib.obj
 0003:00000350       mHash                      00000000000835d0     DxeImageVerificationLib:DxeImageVerificationLib.obj
 0003:00000490       mVariableType              0000000000083710     DxeImageVerificationLib:Measurement.obj
 0003:000004a0       mOidValue                  0000000000083720     BaseCryptLib:CryptPkcs7VerifyCommon.obj
 0003:000004b0       mSpcIndirectOidValue       0000000000083730     BaseCryptLib:CryptAuthenticode.obj
 0003:000004c0       mSpcRFC3161OidValue        0000000000083740     BaseCryptLib:CryptTs.obj
 0003:00000ab0       rand_meth                  0000000000083d30     OpensslLib:drbg_lib.obj
 0003:00000ee0       _gPcd_BinaryPatch_PcdSerialRegisterBase 0000000000084160     SecurityStubDxe:AutoGen.obj
 0003:00000ee8       _gPcd_BinaryPatch_PcdSerialRegisterStride 0000000000084168     SecurityStubDxe:AutoGen.obj
 0003:00000eec       _gPcd_BinaryPatch_PcdSerialDetectCable 000000000008416c     SecurityStubDxe:AutoGen.obj
 0003:00000eed       _gPcd_BinaryPatch_PcdSerialUseHardwareFlowControl 000000000008416d     SecurityStubDxe:AutoGen.obj
 0003:00000ef0       _gPcd_BinaryPatch_PcdUartDefaultBaudRate 0000000000084170     SecurityStubDxe:AutoGen.obj
 0003:00000ef8       _gPcd_BinaryPatch_PcdSerialClockRate 0000000000084178     SecurityStubDxe:AutoGen.obj
 0003:00000efc       _gPcd_BinaryPatch_PcdSerialBaudRate 000000000008417c     SecurityStubDxe:AutoGen.obj
 0003:00000f00       mSecurityArchProtocolHandle 0000000000084180     SecurityStubDxe:SecurityStub.obj
 0003:00000f08       mEndOfDxe                  0000000000084188     SecurityStubDxe:Defer3rdPartyImageLoad.obj
 0003:00000f09       mImageLoadedAfterEndOfDxe  0000000000084189     SecurityStubDxe:Defer3rdPartyImageLoad.obj
 0003:00000f10       mDeferred3rdPartyImage     0000000000084190     SecurityStubDxe:Defer3rdPartyImageLoad.obj
 0003:00000f20       gST                        00000000000841a0     UefiBootServicesTableLib:UefiBootServicesTableLib.obj
 0003:00000f28       gBS                        00000000000841a8     UefiBootServicesTableLib:UefiBootServicesTableLib.obj
 0003:00000f30       gImageHandle               00000000000841b0     UefiBootServicesTableLib:UefiBootServicesTableLib.obj
 0003:00000f38       gRT                        00000000000841b8     UefiRuntimeServicesTableLib:UefiRuntimeServicesTableLib.obj
 0003:00000f40       mHobList                   00000000000841c0     DxeHobLib:HobLib.obj
 0003:00000f48       mPmTimerReg                00000000000841c8     AcpiTimerLib:AcpiTimerLib.obj
 0003:00000f50       mNumberOfSecurity2Handler  00000000000841d0     DxeSecurityManagementLib:DxeSecurityManagementLib.obj
 0003:00000f58       mSecurityTable             00000000000841d8     DxeSecurityManagementLib:DxeSecurityManagementLib.obj
 0003:00000f60       mNumberOfSecurityHandler   00000000000841e0     DxeSecurityManagementLib:DxeSecurityManagementLib.obj
 0003:00000f68       mSecurity2Table            00000000000841e8     DxeSecurityManagementLib:DxeSecurityManagementLib.obj
 0003:00000f70       mMaxNumberOfSecurity2Handler 00000000000841f0     DxeSecurityManagementLib:DxeSecurityManagementLib.obj
 0003:00000f74       mCurrentAuthOperation2     00000000000841f4     DxeSecurityManagementLib:DxeSecurityManagementLib.obj
 0003:00000f78       mReportStatusCodeLibStatusCodeProtocol 00000000000841f8     DxeReportStatusCodeLib:ReportStatusCodeLib.obj
 0003:00000f80       mImageBase                 0000000000084200     DxeImageVerificationLib:DxeImageVerificationLib.obj
 0003:00000f88       mMeasuredAuthorityList     0000000000084208     DxeImageVerificationLib:Measurement.obj
 0003:00000f90       mMeasuredAuthorityCountMax 0000000000084210     DxeImageVerificationLib:Measurement.obj
 0003:00000f98       mMeasuredAuthorityCount    0000000000084218     DxeImageVerificationLib:Measurement.obj
 0003:00000fa0       mTcg2MeasuredHobData       0000000000084220     DxeTpm2MeasureBootLib:DxeTpm2MeasureBootLib.obj
 0003:00000fa8       mTcg2MeasureGptCount       0000000000084228     DxeTpm2MeasureBootLib:DxeTpm2MeasureBootLib.obj
 0003:00000fb0       mTcg2CacheMeasuredHandle   0000000000084230     DxeTpm2MeasureBootLib:DxeTpm2MeasureBootLib.obj
 0003:00000fb8       mTcg2MeasureGptTableFlag   0000000000084238     DxeTpm2MeasureBootLib:DxeTpm2MeasureBootLib.obj
 0003:000010c8       errno                      0000000000084348     BaseCryptLib:CrtWrapper.obj
 0003:000010d0       mPcd                       0000000000084350     DxePcdLib:DxePcdLib.obj
 0003:00001a30       mTcg2ImageSize             0000000000084cb0     <common>
 0003:00001a38       mHashTypeStr               0000000000084cb8     <common>
 0003:00001a40       mNtHeader                  0000000000084cc0     <common>
 0003:00001a48       mPeCoffHeaderOffset        0000000000084cc8     <common>
 0003:00001a60       mImageDigest               0000000000084ce0     <common>
 0003:00001aa0       mImageSize                 0000000000084d20     <common>
 0003:00001ab0       mCertType                  0000000000084d30     <common>
 0003:00001ac0       mImageDigestSize           0000000000084d40     <common>

 entry point at        0001:00000158

 Static symbols

 0001:0000001a       InternalMemCopyMem.0       00000000000002da     BaseMemoryLibRepStr:CopyMem.obj
 0001:0000002a       @CopyBackward              00000000000002ea     BaseMemoryLibRepStr:CopyMem.obj
 0001:00000033       @CopyBytes                 00000000000002f3     BaseMemoryLibRepStr:CopyMem.obj
 0001:0000b04c       sha1_block_data_order      000000000000b30c f   OpensslLib:sha1dgst.obj
 0001:0000b884       sha512_block_data_order    000000000000bb44 f   OpensslLib:sha512.obj
 0001:0000bcec       x509_object_cmp            000000000000bfac f   OpensslLib:x509_lu.obj
 0001:0000c110       x509_store_add             000000000000c3d0 f   OpensslLib:x509_lu.obj
 0001:0000c228       x509_object_idx_cnt        000000000000c4e8 f   OpensslLib:x509_lu.obj
 0001:0000cc08       null_callback              000000000000cec8 f   OpensslLib:x509_vfy.obj
 0001:0000cc0c       cert_self_signed           000000000000cecc f   OpensslLib:x509_vfy.obj
 0001:0000cc3c       check_auth_level           000000000000cefc f   OpensslLib:x509_vfy.obj
 0001:0000cda8       verify_chain               000000000000d068 f   OpensslLib:x509_vfy.obj
 0001:0000cfa0       find_issuer                000000000000d260 f   OpensslLib:x509_vfy.obj
 0001:0000d048       check_issued               000000000000d308 f   OpensslLib:x509_vfy.obj
 0001:0000d124       check_chain_extensions     000000000000d3e4 f   OpensslLib:x509_vfy.obj
 0001:0000d454       check_name_constraints     000000000000d714 f   OpensslLib:x509_vfy.obj
 0001:0000d750       check_id_error             000000000000da10 f   OpensslLib:x509_vfy.obj
 0001:0000d79c       check_hosts                000000000000da5c f   OpensslLib:x509_vfy.obj
 0001:0000d898       check_id                   000000000000db58 f   OpensslLib:x509_vfy.obj
 0001:0000d9e0       check_trust                000000000000dca0 f   OpensslLib:x509_vfy.obj
 0001:0000dc54       check_revocation           000000000000df14 f   OpensslLib:x509_vfy.obj
 0001:0000dcd0       check_cert                 000000000000df90 f   OpensslLib:x509_vfy.obj
 0001:0000df24       check_crl_time             000000000000e1e4 f   OpensslLib:x509_vfy.obj
 0001:0000e01c       get_crl_sk                 000000000000e2dc f   OpensslLib:x509_vfy.obj
 0001:0000e384       crl_extension_match        000000000000e644 f   OpensslLib:x509_vfy.obj
 0001:0000e484       crl_akid_check             000000000000e744 f   OpensslLib:x509_vfy.obj
 0001:0000e610       check_crl_path             000000000000e8d0 f   OpensslLib:x509_vfy.obj
 0001:0000e718       idp_check_dp               000000000000e9d8 f   OpensslLib:x509_vfy.obj
 0001:0000e984       crl_crldp_check            000000000000ec44 f   OpensslLib:x509_vfy.obj
 0001:0000eae4       check_crl                  000000000000eda4 f   OpensslLib:x509_vfy.obj
 0001:0000ecd0       cert_crl                   000000000000ef90 f   OpensslLib:x509_vfy.obj
 0001:0000ed7c       check_policy               000000000000f03c f   OpensslLib:x509_vfy.obj
 0001:0000f01c       internal_verify            000000000000f2dc f   OpensslLib:x509_vfy.obj
 0001:0000f7bc       dane_match                 000000000000fa7c f   OpensslLib:x509_vfy.obj
 0001:0000fb18       check_dane_issuer          000000000000fdd8 f   OpensslLib:x509_vfy.obj
 0001:0000fb94       check_dane_pkeys           000000000000fe54 f   OpensslLib:x509_vfy.obj
 0001:0000fce8       dane_verify                000000000000ffa8 f   OpensslLib:x509_vfy.obj
 0001:0000fdfc       build_chain                00000000000100bc f   OpensslLib:x509_vfy.obj
 0001:000107c0       check_key_level            0000000000010a80 f   OpensslLib:x509_vfy.obj
 0001:00010840       x509_cb                    0000000000010b00 f   OpensslLib:x_x509.obj
 0001:00010b60       init                       0000000000010e20 f   OpensslLib:m_sha1.obj
 0001:00010b6c       update                     0000000000010e2c f   OpensslLib:m_sha1.obj
 0001:00010b78       final                      0000000000010e38 f   OpensslLib:m_sha1.obj
 0001:00010b88       ctrl                       0000000000010e48 f   OpensslLib:m_sha1.obj
 0001:00010c9c       init224                    0000000000010f5c f   OpensslLib:m_sha1.obj
 0001:00010ca8       update224                  0000000000010f68 f   OpensslLib:m_sha1.obj
 0001:00010ca8       update256                  0000000000010f68 f   OpensslLib:m_sha1.obj
 0001:00010cb4       final224                   0000000000010f74 f   OpensslLib:m_sha1.obj
 0001:00010cb4       final256                   0000000000010f74 f   OpensslLib:m_sha1.obj
 0001:00010cc4       init256                    0000000000010f84 f   OpensslLib:m_sha1.obj
 0001:00010cd0       init512_224                0000000000010f90 f   OpensslLib:m_sha1.obj
 0001:00010d64       init512_256                0000000000011024 f   OpensslLib:m_sha1.obj
 0001:00010df8       init384                    00000000000110b8 f   OpensslLib:m_sha1.obj
 0001:00010e04       update384                  00000000000110c4 f   OpensslLib:m_sha1.obj
 0001:00010e04       update512                  00000000000110c4 f   OpensslLib:m_sha1.obj
 0001:00010e10       final384                   00000000000110d0 f   OpensslLib:m_sha1.obj
 0001:00010e10       final512                   00000000000110d0 f   OpensslLib:m_sha1.obj
 0001:00010e20       init512                    00000000000110e0 f   OpensslLib:m_sha1.obj
 0001:00011084       sk_reserve                 0000000000011344 f   OpensslLib:stack.obj
 0001:00011264       internal_delete            0000000000011524 f   OpensslLib:stack.obj
 0001:000112b8       internal_find              0000000000011578 f   OpensslLib:stack.obj
 0001:00011418       bio_call_callback          00000000000116d8 f   OpensslLib:bio_lib.obj
 0001:0001169c       bio_read_intern            000000000001195c f   OpensslLib:bio_lib.obj
 0001:000117c8       bio_write_intern           0000000000011a88 f   OpensslLib:bio_lib.obj
 0001:00012574       pk7_cb                     0000000000012834 f   OpensslLib:pk7_asn1.obj
 0001:00012604       si_cb                      00000000000128c4 f   OpensslLib:pk7_asn1.obj
 0001:00012624       ri_cb                      00000000000128e4 f   OpensslLib:pk7_asn1.obj
 0001:00012644       o_names_init_ossl_         0000000000012904 f   OpensslLib:o_names.obj
 0001:0001269c       obj_name_cmp               000000000001295c f   OpensslLib:o_names.obj
 0001:000126ec       obj_name_hash              00000000000129ac f   OpensslLib:o_names.obj
 0001:00012980       mem_init                   0000000000012c40 f   OpensslLib:bss_mem.obj
 0001:00012a14       mem_new                    0000000000012cd4 f   OpensslLib:bss_mem.obj
 0001:00012a1c       mem_free                   0000000000012cdc f   OpensslLib:bss_mem.obj
 0001:00012a54       mem_buf_free               0000000000012d14 f   OpensslLib:bss_mem.obj
 0001:00012b0c       mem_buf_sync               0000000000012dcc f   OpensslLib:bss_mem.obj
 0001:00012b68       mem_read                   0000000000012e28 f   OpensslLib:bss_mem.obj
 0001:00012bf8       mem_write                  0000000000012eb8 f   OpensslLib:bss_mem.obj
 0001:00012cc0       mem_ctrl                   0000000000012f80 f   OpensslLib:bss_mem.obj
 0001:00012e34       mem_gets                   00000000000130f4 f   OpensslLib:bss_mem.obj
 0001:00012eb0       mem_puts                   0000000000013170 f   OpensslLib:bss_mem.obj
 0001:00012f6c       init                       000000000001322c f   OpensslLib:m_md5.obj
 0001:00012fac       update                     000000000001326c f   OpensslLib:m_md5.obj
 0001:00012fb8       final                      0000000000013278 f   OpensslLib:m_md5.obj
 0001:00012fc8       sn_cmp_BSEARCH_CMP_FN      0000000000013288 f   OpensslLib:obj_dat.obj
 0001:00012fe4       ln_cmp_BSEARCH_CMP_FN      00000000000132a4 f   OpensslLib:obj_dat.obj
 0001:00013004       added_obj_hash             00000000000132c4 f   OpensslLib:obj_dat.obj
 0001:000130c8       added_obj_cmp              0000000000013388 f   OpensslLib:obj_dat.obj
 0001:00013488       obj_cmp_BSEARCH_CMP_FN     0000000000013748 f   OpensslLib:obj_dat.obj
 0001:00013dd8       pkey_set_type              0000000000014098 f   OpensslLib:p_lib.obj
 0001:00013f7c       x509_name_ex_new           000000000001423c f   OpensslLib:x_name.obj
 0001:00014010       x509_name_ex_free          00000000000142d0 f   OpensslLib:x_name.obj
 0001:00014064       local_sk_X509_NAME_ENTRY_free 0000000000014324 f   OpensslLib:x_name.obj
 0001:00014088       local_sk_X509_NAME_ENTRY_pop_free 0000000000014348 f   OpensslLib:x_name.obj
 0001:00014094       x509_name_ex_d2i           0000000000014354 f   OpensslLib:x_name.obj
 0001:0001438c       x509_name_ex_i2d           000000000001464c f   OpensslLib:x_name.obj
 0001:000143f0       x509_name_encode           00000000000146b0 f   OpensslLib:x_name.obj
 0001:0001457c       x509_name_ex_print         000000000001483c f   OpensslLib:x_name.obj
 0001:000145c4       x509_name_canon            0000000000014884 f   OpensslLib:x_name.obj
 0001:000147b4       asn1_string_canon          0000000000014a74 f   OpensslLib:x_name.obj
 0001:000148ec       i2d_name_canon             0000000000014bac f   OpensslLib:x_name.obj
 0001:00015478       send_bio_chars             0000000000015738 f   OpensslLib:a_strex.obj
 0001:000154b4       do_esc_char                0000000000015774 f   OpensslLib:a_strex.obj
 0001:00015634       do_buf                     00000000000158f4 f   OpensslLib:a_strex.obj
 0001:00015860       do_hex_dump                0000000000015b20 f   OpensslLib:a_strex.obj
 0001:000158ec       do_dump                    0000000000015bac f   OpensslLib:a_strex.obj
 0001:00015a10       do_print_ex                0000000000015cd0 f   OpensslLib:a_strex.obj
 0001:00015c10       do_indent                  0000000000015ed0 f   OpensslLib:a_strex.obj
 0001:00015c7c       do_name_ex                 0000000000015f3c f   OpensslLib:a_strex.obj
 0001:000160b8       rsa_cb                     0000000000016378 f   OpensslLib:rsa_asn1.obj
 0001:0001612c       rsa_pss_cb                 00000000000163ec f   OpensslLib:rsa_asn1.obj
 0001:000164e0       sha256_block_data_order    00000000000167a0 f   OpensslLib:sha256.obj
 0001:000167f8       ocsp_nonce_free            0000000000016ab8 f   OpensslLib:v3_ocsp.obj
 0001:000168e0       asn1_item_embed_d2i        0000000000016ba0 f   OpensslLib:tasn_dec.obj
 0001:0001700c       asn1_template_ex_d2i       00000000000172cc f   OpensslLib:tasn_dec.obj
 0001:00017180       asn1_template_noexp_d2i    0000000000017440 f   OpensslLib:tasn_dec.obj
 0001:00017410       asn1_d2i_ex_primitive      00000000000176d0 f   OpensslLib:tasn_dec.obj
 0001:00017708       asn1_ex_c2i                00000000000179c8 f   OpensslLib:tasn_dec.obj
 0001:000179b0       asn1_find_end              0000000000017c70 f   OpensslLib:tasn_dec.obj
 0001:00017af0       asn1_collect               0000000000017db0 f   OpensslLib:tasn_dec.obj
 0001:00017ca0       asn1_check_tlen            0000000000017f60 f   OpensslLib:tasn_dec.obj
 0001:00018080       asn1_item_embed_new        0000000000018340 f   OpensslLib:tasn_new.obj
 0001:000182c8       asn1_template_new          0000000000018588 f   OpensslLib:tasn_new.obj
 0001:00018360       asn1_template_clear        0000000000018620 f   OpensslLib:tasn_new.obj
 0001:000183dc       asn1_primitive_new         000000000001869c f   OpensslLib:tasn_new.obj
 0001:00018908       i2c_ibuf                   0000000000018bc8 f   OpensslLib:a_int.obj
 0001:000189dc       c2i_ibuf                   0000000000018c9c f   OpensslLib:a_int.obj
 0001:00018af8       asn1_get_uint64            0000000000018db8 f   OpensslLib:a_int.obj
 0001:00018c24       asn1_string_get_int64      0000000000018ee4 f   OpensslLib:a_int.obj
 0001:00018cf8       asn1_string_set_int64      0000000000018fb8 f   OpensslLib:a_int.obj
 0001:00018d58       bn_to_asn1_string          0000000000019018 f   OpensslLib:a_int.obj
 0001:00018e24       asn1_string_to_bn          00000000000190e4 f   OpensslLib:a_int.obj
 0001:00019744       asn1_item_flags_i2d        0000000000019a04 f   OpensslLib:tasn_enc.obj
 0001:00019b5c       asn1_template_ex_i2d       0000000000019e1c f   OpensslLib:tasn_enc.obj
 0001:00019e40       der_cmp                    000000000001a100 f   OpensslLib:tasn_enc.obj
 0001:00019e80       asn1_set_seq_out           000000000001a140 f   OpensslLib:tasn_enc.obj
 0001:0001a14c       asn1_i2d_ex_primitive      000000000001a40c f   OpensslLib:tasn_enc.obj
 0001:0001a240       asn1_ex_i2c                000000000001a500 f   OpensslLib:tasn_enc.obj
 0001:0001a40c       ERR_STATE_free             000000000001a6cc f   OpensslLib:err.obj
 0001:0001a614       get_error_values           000000000001a8d4 f   OpensslLib:err.obj
 0001:0001a794       err_do_init_ossl_          000000000001aa54 f   OpensslLib:err.obj
 0001:0001a8c4       err_set_error_data_int     000000000001ab84 f   OpensslLib:err.obj
 0001:0001aba0       str_free                   000000000001ae60 f   OpensslLib:x509_vpm.obj
 0001:0001ade4       int_x509_param_set1        000000000001b0a4 f   OpensslLib:x509_vpm.obj
 0001:0001afc0       table_cmp_BSEARCH_CMP_FN   000000000001b280 f   OpensslLib:x509_vpm.obj
 0001:0001b04c       crl_inf_cb                 000000000001b30c f   OpensslLib:x_crl.obj
 0001:0001b080       crl_cb                     000000000001b340 f   OpensslLib:x_crl.obj
 0001:0001b6bc       setup_idp                  000000000001b97c f   OpensslLib:x_crl.obj
 0001:0001b7b4       X509_REVOKED_cmp           000000000001ba74 f   OpensslLib:x_crl.obj
 0001:0001b7c0       def_crl_verify             000000000001ba80 f   OpensslLib:x_crl.obj
 0001:0001b7e8       def_crl_lookup             000000000001baa8 f   OpensslLib:x_crl.obj
 0001:0001b998       do_ex_data_init_ossl_      000000000001bc58 f   OpensslLib:ex_data.obj
 0001:0001b9e0       get_and_lock               000000000001bca0 f   OpensslLib:ex_data.obj
 0001:0001bdec       table_cmp_BSEARCH_CMP_FN   000000000001c0ac f   OpensslLib:a_strnid.obj
 0001:0001bdec       sig_cmp_BSEARCH_CMP_FN     000000000001c0ac f   OpensslLib:obj_xref.obj
 0001:0001bdec       nid_cmp_BSEARCH_CMP_FN     000000000001c0ac f   OpensslLib:v3_purp.obj
 0001:0001bdf4       x509v3_cache_extensions    000000000001c0b4 f   OpensslLib:v3_purp.obj
 0001:0001c530       check_ca                   000000000001c7f0 f   OpensslLib:v3_purp.obj
 0001:0001c590       check_purpose_ssl_client   000000000001c850 f   OpensslLib:v3_purp.obj
 0001:0001c600       check_purpose_ssl_server   000000000001c8c0 f   OpensslLib:v3_purp.obj
 0001:0001c670       check_purpose_ns_ssl_server 000000000001c930 f   OpensslLib:v3_purp.obj
 0001:0001c6ac       purpose_smime              000000000001c96c f   OpensslLib:v3_purp.obj
 0001:0001c708       check_purpose_smime_sign   000000000001c9c8 f   OpensslLib:v3_purp.obj
 0001:0001c744       check_purpose_smime_encrypt 000000000001ca04 f   OpensslLib:v3_purp.obj
 0001:0001c780       check_purpose_crl_sign     000000000001ca40 f   OpensslLib:v3_purp.obj
 0001:0001c7b8       ocsp_helper                000000000001ca78 f   OpensslLib:v3_purp.obj
 0001:0001c7cc       check_purpose_timestamp_sign 000000000001ca8c f   OpensslLib:v3_purp.obj
 0001:0001c858       i2r_ocsp_nocheck           000000000001cb18 f   OpensslLib:v3_ocsp.obj
 0001:0001c858       no_check                   000000000001cb18 f   OpensslLib:v3_purp.obj
 0001:0001cd24       pubkey_cb                  000000000001cfe4 f   OpensslLib:x_pubkey.obj
 0001:0001cd88       x509_pubkey_decode         000000000001d048 f   OpensslLib:x_pubkey.obj
 0001:0001cf1c       leap_year                  000000000001d1dc f   OpensslLib:a_time.obj
 0001:0001cf7c       determine_days             000000000001d23c f   OpensslLib:a_time.obj
 0001:0001d998       bignum_to_string           000000000001dc58 f   OpensslLib:v3_utl.obj
 0001:0001e064       strip_spaces               000000000001e324 f   OpensslLib:v3_utl.obj
 0001:0001e144       equal_nocase               000000000001e404 f   OpensslLib:v3_utl.obj
 0001:0001e1c8       equal_case                 000000000001e488 f   OpensslLib:v3_utl.obj
 0001:0001e22c       equal_email                000000000001e4ec f   OpensslLib:v3_utl.obj
 0001:0001e2cc       wildcard_match             000000000001e58c f   OpensslLib:v3_utl.obj
 0001:0001e3fc       valid_star                 000000000001e6bc f   OpensslLib:v3_utl.obj
 0001:0001e550       equal_wildcard             000000000001e810 f   OpensslLib:v3_utl.obj
 0001:0001e5f4       do_check_string            000000000001e8b4 f   OpensslLib:v3_utl.obj
 0001:0001e710       do_x509_check              000000000001e9d0 f   OpensslLib:v3_utl.obj
 0001:0001ea60       ipv4_from_asc              000000000001ed20 f   OpensslLib:v3_utl.obj
 0001:0001eae4       ipv6_from_asc              000000000001eda4 f   OpensslLib:v3_utl.obj
 0001:0001ebf0       ipv6_cb                    000000000001eeb0 f   OpensslLib:v3_utl.obj
 0001:0001eea8       tree_init                  000000000001f168 f   OpensslLib:pcy_tree.obj
 0001:0001f214       tree_link_nodes            000000000001f4d4 f   OpensslLib:pcy_tree.obj
 0001:0001f3e8       tree_add_unmatched         000000000001f6a8 f   OpensslLib:pcy_tree.obj
 0001:0001f47c       tree_link_any              000000000001f73c f   OpensslLib:pcy_tree.obj
 0001:0001f670       tree_add_auth_node         000000000001f930 f   OpensslLib:pcy_tree.obj
 0001:0001f6ec       tree_calculate_authority_set 000000000001f9ac f   OpensslLib:pcy_tree.obj
 0001:0001f820       tree_calculate_user_set    000000000001fae0 f   OpensslLib:pcy_tree.obj
 0001:0001f990       tree_evaluate              000000000001fc50 f   OpensslLib:pcy_tree.obj
 0001:0001fb58       exnode_free                000000000001fe18 f   OpensslLib:pcy_tree.obj
 0001:00020088       trust_1oidany              0000000000020348 f   OpensslLib:x509_trs.obj
 0001:00020094       trust_1oid                 0000000000020354 f   OpensslLib:x509_trs.obj
 0001:000200a0       trust_compat               0000000000020360 f   OpensslLib:x509_trs.obj
 0001:000200e4       obj_trust                  00000000000203a4 f   OpensslLib:x509_trs.obj
 0001:00020204       ia5ncasecmp                00000000000204c4 f   OpensslLib:v3_ncons.obj
 0001:00020250       v2i_NAME_CONSTRAINTS       0000000000020510 f   OpensslLib:v3_ncons.obj
 0001:00020410       i2r_NAME_CONSTRAINTS       00000000000206d0 f   OpensslLib:v3_ncons.obj
 0001:0002046c       do_i2r_name_constraints    000000000002072c f   OpensslLib:v3_ncons.obj
 0001:000208fc       nc_match                   0000000000020bbc f   OpensslLib:v3_ncons.obj
 0001:00020a38       nc_match_single            0000000000020cf8 f   OpensslLib:v3_ncons.obj
 0001:00020bc0       nc_email                   0000000000020e80 f   OpensslLib:v3_ncons.obj
 0001:00020c8c       nc_uri                     0000000000020f4c f   OpensslLib:v3_ncons.obj
 0001:00020e50       gnames_from_sectname       0000000000021110 f   OpensslLib:v3_crld.obj
 0001:00020ef4       set_dist_point_name        00000000000211b4 f   OpensslLib:v3_crld.obj
 0001:000210b8       set_reasons                0000000000021378 f   OpensslLib:v3_crld.obj
 0001:000211b0       print_reasons              0000000000021470 f   OpensslLib:v3_crld.obj
 0001:00021284       crldp_from_section         0000000000021544 f   OpensslLib:v3_crld.obj
 0001:00021384       v2i_crld                   0000000000021644 f   OpensslLib:v3_crld.obj
 0001:00021550       dpn_cb                     0000000000021810 f   OpensslLib:v3_crld.obj
 0001:000215b4       v2i_idp                    0000000000021874 f   OpensslLib:v3_crld.obj
 0001:00021784       print_gens                 0000000000021a44 f   OpensslLib:v3_crld.obj
 0001:00021804       print_distpoint            0000000000021ac4 f   OpensslLib:v3_crld.obj
 0001:00021858       i2r_idp                    0000000000021b18 f   OpensslLib:v3_crld.obj
 0001:0002189c       i2r_crldp                  0000000000021b5c f   OpensslLib:v3_crld.obj
 0001:00021a34       policy_cache_create        0000000000021cf4 f   OpensslLib:pcy_cache.obj
 0001:00021bb0       policy_cache_new           0000000000021e70 f   OpensslLib:pcy_cache.obj
 0001:00021d78       policy_data_cmp            0000000000022038 f   OpensslLib:pcy_cache.obj
 0001:00021ea0       PKCS7_get_octet_string     0000000000022160 f   OpensslLib:pk7_doit.obj
 0001:00021f00       PKCS7_bio_add_digest       00000000000221c0 f   OpensslLib:pk7_doit.obj
 0001:00021fac       pkcs7_encode_rinfo         000000000002226c f   OpensslLib:pk7_doit.obj
 0001:000227cc       PKCS7_find_digest          0000000000022a8c f   OpensslLib:pk7_doit.obj
 0001:00022858       do_pkcs7_signed_attrib     0000000000022b18 f   OpensslLib:pk7_doit.obj
 0001:00023324       get_attribute              00000000000235e4 f   OpensslLib:pk7_doit.obj
 0001:00023390       add_attribute              0000000000023650 f   OpensslLib:pk7_doit.obj
 0001:000239f4       ossl_init_get_thread_local 0000000000023cb4 f   OpensslLib:init.obj
 0001:00023a4c       ossl_init_base_ossl_       0000000000023d0c f   OpensslLib:init.obj
 0001:00023ab8       ossl_init_add_all_digests_ossl_ 0000000000023d78 f   OpensslLib:init.obj
 0001:00023bd4       ossl_init_config_ossl_     0000000000023e94 f   OpensslLib:init.obj
 0001:00023c6c       ossl_init_async_ossl_      0000000000023f2c f   OpensslLib:init.obj
 0001:00024038       sk_table_cmp               00000000000242f8 f   OpensslLib:a_strnid.obj
 0001:00024038       ameth_cmp_BSEARCH_CMP_FN   00000000000242f8 f   OpensslLib:ameth_lib.obj
 0001:00024038       pmeth_cmp_BSEARCH_CMP_FN   00000000000242f8 f   OpensslLib:pmeth_lib.obj
 0001:00024038       ext_cmp_BSEARCH_CMP_FN     00000000000242f8 f   OpensslLib:v3_lib.obj
 0001:00024048       int_ctx_new                0000000000024308 f   OpensslLib:pmeth_lib.obj
 0001:000246b8       expand                     0000000000024978 f   OpensslLib:lhash.obj
 0001:000247a4       getrn                      0000000000024a64 f   OpensslLib:lhash.obj
 0001:00024974       sec_alloc_realloc          0000000000024c34 f   OpensslLib:buffer.obj
 0001:000271cc       bn_free_d                  000000000002748c f   OpensslLib:bn_lib.obj
 0001:000275d8       bn2binpad                  0000000000027898 f   OpensslLib:bn_lib.obj
 0001:000287f0       make_kn                    0000000000028ab0 f   OpensslLib:cmac.obj
 0001:00028ca8       st_free                    0000000000028f68 f   OpensslLib:a_strnid.obj
 0001:000295e8       traverse_string            00000000000298a8 f   OpensslLib:a_mbstr.obj
 0001:000296e0       in_utf8                    00000000000299a0 f   OpensslLib:a_mbstr.obj
 0001:000296e8       out_utf8                   00000000000299a8 f   OpensslLib:a_mbstr.obj
 0001:0002970c       type_str                   00000000000299cc f   OpensslLib:a_mbstr.obj
 0001:000297b0       cpy_asc                    0000000000029a70 f   OpensslLib:a_mbstr.obj
 0001:000297c0       cpy_bmp                    0000000000029a80 f   OpensslLib:a_mbstr.obj
 0001:000297dc       cpy_univ                   0000000000029a9c f   OpensslLib:a_mbstr.obj
 0001:0002980c       cpy_utf8                   0000000000029acc f   OpensslLib:a_mbstr.obj
 0001:00029a4c       bn_new                     0000000000029d0c f   OpensslLib:x_bignum.obj
 0001:00029a70       bn_secure_new              0000000000029d30 f   OpensslLib:x_bignum.obj
 0001:00029a9c       bn_free                    0000000000029d5c f   OpensslLib:x_bignum.obj
 0001:00029acc       bn_i2c                     0000000000029d8c f   OpensslLib:x_bignum.obj
 0001:00029b44       bn_c2i                     0000000000029e04 f   OpensslLib:x_bignum.obj
 0001:00029bac       bn_secure_c2i              0000000000029e6c f   OpensslLib:x_bignum.obj
 0001:00029c38       bn_print                   0000000000029ef8 f   OpensslLib:x_bignum.obj
 0001:00029d40       uint64_new                 000000000002a000 f   OpensslLib:x_int64.obj
 0001:00029d7c       uint32_new                 000000000002a03c f   OpensslLib:x_int64.obj
 0001:00029db8       uint32_free                000000000002a078 f   OpensslLib:x_int64.obj
 0001:00029dd4       uint32_clear               000000000002a094 f   OpensslLib:x_int64.obj
 0001:00029ddc       uint32_i2c                 000000000002a09c f   OpensslLib:x_int64.obj
 0001:00029e74       uint32_c2i                 000000000002a134 f   OpensslLib:x_int64.obj
 0001:00029f60       uint32_print               000000000002a220 f   OpensslLib:x_int64.obj
 0001:0002a808       evp_EncryptDecryptUpdate   000000000002aac8 f   OpensslLib:evp_enc.obj
 0001:0002afc4       i2v_BASIC_CONSTRAINTS      000000000002b284 f   OpensslLib:v3_bcons.obj
 0001:0002b018       v2i_BASIC_CONSTRAINTS      000000000002b2d8 f   OpensslLib:v3_bcons.obj
 0001:0002b2d4       julian_adj                 000000000002b594 f   OpensslLib:o_time.obj
 0001:0002b3f0       julian_to_date             000000000002b6b0 f   OpensslLib:o_time.obj
 0001:0002b51c       i2v_AUTHORITY_INFO_ACCESS  000000000002b7dc f   OpensslLib:v3_info.obj
 0001:0002b6c8       v2i_AUTHORITY_INFO_ACCESS  000000000002b988 f   OpensslLib:v3_info.obj
 0001:0002b884       module_add                 000000000002bb44 f   OpensslLib:conf_mod.obj
 0001:0002bc14       node_cmp                   000000000002bed4 f   OpensslLib:pcy_node.obj
 0001:0002c164       v2i_issuer_alt             000000000002c424 f   OpensslLib:v3_alt.obj
 0001:0002c28c       copy_issuer                000000000002c54c f   OpensslLib:v3_alt.obj
 0001:0002c3c4       v2i_subject_alt            000000000002c684 f   OpensslLib:v3_alt.obj
 0001:0002c524       copy_email                 000000000002c7e4 f   OpensslLib:v3_alt.obj
 0001:0002caac       do_othername               000000000002cd6c f   OpensslLib:v3_alt.obj
 0001:0002cb6c       do_dirname                 000000000002ce2c f   OpensslLib:v3_alt.obj
 0001:0002cc84       i2v_POLICY_CONSTRAINTS     000000000002cf44 f   OpensslLib:v3_pcons.obj
 0001:0002ccc8       v2i_POLICY_CONSTRAINTS     000000000002cf88 f   OpensslLib:v3_pcons.obj
 0001:0002ce68       r2i_certpol                000000000002d128 f   OpensslLib:v3_cpols.obj
 0001:0002d0b0       policy_section             000000000002d370 f   OpensslLib:v3_cpols.obj
 0001:0002d378       displaytext_str2tag        000000000002d638 f   OpensslLib:v3_cpols.obj
 0001:0002d450       notice_section             000000000002d710 f   OpensslLib:v3_cpols.obj
 0001:0002d820       i2r_certpol                000000000002dae0 f   OpensslLib:v3_cpols.obj
 0001:0002d8c4       print_qualifiers           000000000002db84 f   OpensslLib:v3_cpols.obj
 0001:0002df50       do_rand_init_ossl_         000000000002e210 f   OpensslLib:rand_lib.obj
 0001:0002e0f4       rand_pool_grow             000000000002e3b4 f   OpensslLib:rand_lib.obj
 0001:0002e494       enc_new                    000000000002e754 f   OpensslLib:bio_enc.obj
 0001:0002e514       enc_free                   000000000002e7d4 f   OpensslLib:bio_enc.obj
 0001:0002e588       enc_read                   000000000002e848 f   OpensslLib:bio_enc.obj
 0001:0002e824       enc_write                  000000000002eae4 f   OpensslLib:bio_enc.obj
 0001:0002e9c0       enc_ctrl                   000000000002ec80 f   OpensslLib:bio_enc.obj
 0001:0002ebb8       enc_callback_ctrl          000000000002ee78 f   OpensslLib:bio_enc.obj
 0001:0002ebb8       md_callback_ctrl           000000000002ee78 f   OpensslLib:bio_md.obj
 0001:0002ebd0       update                     000000000002ee90 f   OpensslLib:m_sigver.obj
 0001:0002ebf0       do_sigver_init             000000000002eeb0 f   OpensslLib:m_sigver.obj
 0001:0002f0ec       md_new                     000000000002f3ac f   OpensslLib:bio_md.obj
 0001:0002f118       md_free                    000000000002f3d8 f   OpensslLib:bio_md.obj
 0001:0002f15c       md_read                    000000000002f41c f   OpensslLib:bio_md.obj
 0001:0002f200       md_write                   000000000002f4c0 f   OpensslLib:bio_md.obj
 0001:0002f2a4       md_ctrl                    000000000002f564 f   OpensslLib:bio_md.obj
 0001:0002f3cc       md_gets                    000000000002f68c f   OpensslLib:bio_md.obj
 0001:0002f570       null_gets                  000000000002f830 f   OpensslLib:bss_null.obj
 0001:0002f570       null_read                  000000000002f830 f   OpensslLib:bss_null.obj
 0001:0002f574       null_write                 000000000002f834 f   OpensslLib:bss_null.obj
 0001:0002f578       null_ctrl                  000000000002f838 f   OpensslLib:bss_null.obj
 0001:0002f5b0       null_puts                  000000000002f870 f   OpensslLib:bss_null.obj
 0001:0002fec4       rand_drbg_new              0000000000030184 f   OpensslLib:drbg_lib.obj
 0001:000309b0       drbg_setup                 0000000000030c70 f   OpensslLib:drbg_lib.obj
 0001:00030a5c       do_rand_drbg_init_ossl_    0000000000030d1c f   OpensslLib:drbg_lib.obj
 0001:00030aec       drbg_bytes                 0000000000030dac f   OpensslLib:drbg_lib.obj
 0001:00030c38       drbg_add                   0000000000030ef8 f   OpensslLib:drbg_lib.obj
 0001:00030d5c       drbg_seed                  000000000003101c f   OpensslLib:drbg_lib.obj
 0001:00030d6c       drbg_status                000000000003102c f   OpensslLib:drbg_lib.obj
 0001:00030eec       pkey_dh_init               00000000000311ac f   OpensslLib:dh_pmeth.obj
 0001:00030f48       pkey_dh_cleanup            0000000000031208 f   OpensslLib:dh_pmeth.obj
 0001:00030f78       pkey_dh_copy               0000000000031238 f   OpensslLib:dh_pmeth.obj
 0001:0003102c       pkey_dh_ctrl               00000000000312ec f   OpensslLib:dh_pmeth.obj
 0001:000311dc       pkey_dh_ctrl_str           000000000003149c f   OpensslLib:dh_pmeth.obj
 0001:0003137c       pkey_dh_paramgen           000000000003163c f   OpensslLib:dh_pmeth.obj
 0001:000315a0       pkey_dh_keygen             0000000000031860 f   OpensslLib:dh_pmeth.obj
 0001:0003162c       pkey_dh_derive             00000000000318ec f   OpensslLib:dh_pmeth.obj
 0001:0003174c       pkey_cmac_init             0000000000031a0c f   OpensslLib:cm_pmeth.obj
 0001:00031774       pkey_cmac_copy             0000000000031a34 f   OpensslLib:cm_pmeth.obj
 0001:000317b4       cmac_key_free              0000000000031a74 f   OpensslLib:cm_ameth.obj
 0001:000317b4       pkey_cmac_cleanup          0000000000031a74 f   OpensslLib:cm_pmeth.obj
 0001:000317c0       pkey_cmac_keygen           0000000000031a80 f   OpensslLib:cm_pmeth.obj
 0001:00031828       int_update                 0000000000031ae8 f   OpensslLib:cm_pmeth.obj
 0001:0003191c       cmac_signctx_init          0000000000031bdc f   OpensslLib:cm_pmeth.obj
 0001:00031934       cmac_signctx               0000000000031bf4 f   OpensslLib:cm_pmeth.obj
 0001:00031a44       pkey_cmac_ctrl             0000000000031d04 f   OpensslLib:cm_pmeth.obj
 0001:00031ad0       pkey_cmac_ctrl_str         0000000000031d90 f   OpensslLib:cm_pmeth.obj
 0001:00031ba0       pkey_rsa_init              0000000000031e60 f   OpensslLib:rsa_pmeth.obj
 0001:00031c04       pkey_rsa_copy              0000000000031ec4 f   OpensslLib:rsa_pmeth.obj
 0001:00031c98       setup_tbuf                 0000000000031f58 f   OpensslLib:rsa_pmeth.obj
 0001:00031d10       pkey_rsa_cleanup           0000000000031fd0 f   OpensslLib:rsa_pmeth.obj
 0001:00031d48       pkey_rsa_sign              0000000000032008 f   OpensslLib:rsa_pmeth.obj
 0001:00031f58       pkey_rsa_verifyrecover     0000000000032218 f   OpensslLib:rsa_pmeth.obj
 0001:000320ec       pkey_rsa_verify            00000000000323ac f   OpensslLib:rsa_pmeth.obj
 0001:00032298       pkey_rsa_encrypt           0000000000032558 f   OpensslLib:rsa_pmeth.obj
 0001:0003239c       pkey_rsa_decrypt           000000000003265c f   OpensslLib:rsa_pmeth.obj
 0001:000324dc       check_padding_md           000000000003279c f   OpensslLib:rsa_pmeth.obj
 0001:00032594       pkey_rsa_ctrl              0000000000032854 f   OpensslLib:rsa_pmeth.obj
 0001:00032924       pkey_rsa_ctrl_str          0000000000032be4 f   OpensslLib:rsa_pmeth.obj
 0001:00032de0       pkey_rsa_keygen            00000000000330a0 f   OpensslLib:rsa_pmeth.obj
 0001:00032f80       pkey_pss_init              0000000000033240 f   OpensslLib:rsa_pmeth.obj
 0001:0003306c       pkey_tls1_prf_init         000000000003332c f   OpensslLib:tls1_prf.obj
 0001:000330a8       pkey_tls1_prf_cleanup      0000000000033368 f   OpensslLib:tls1_prf.obj
 0001:00033108       pkey_tls1_prf_ctrl         00000000000333c8 f   OpensslLib:tls1_prf.obj
 0001:0003321c       pkey_tls1_prf_ctrl_str     00000000000334dc f   OpensslLib:tls1_prf.obj
 0001:00033330       pkey_tls1_prf_derive       00000000000335f0 f   OpensslLib:tls1_prf.obj
 0001:000333a4       tls1_prf_P_hash            0000000000033664 f   OpensslLib:tls1_prf.obj
 0001:000336e8       tls1_prf_alg               00000000000339a8 f   OpensslLib:tls1_prf.obj
 0001:00033858       pkey_hkdf_init             0000000000033b18 f   OpensslLib:hkdf.obj
 0001:00033894       pkey_hkdf_cleanup          0000000000033b54 f   OpensslLib:hkdf.obj
 0001:0003391c       pkey_hkdf_ctrl             0000000000033bdc f   OpensslLib:hkdf.obj
 0001:00033a84       pkey_hkdf_ctrl_str         0000000000033d44 f   OpensslLib:hkdf.obj
 0001:00033c30       pkey_hkdf_derive_init      0000000000033ef0 f   OpensslLib:hkdf.obj
 0001:00033cc4       pkey_hkdf_derive           0000000000033f84 f   OpensslLib:hkdf.obj
 0001:00033e44       HKDF_Extract               0000000000034104 f   OpensslLib:hkdf.obj
 0001:00033f2c       HKDF_Expand                00000000000341ec f   OpensslLib:hkdf.obj
 0001:00034114       pkey_siphash_init          00000000000343d4 f   OpensslLib:siphash_pmeth.obj
 0001:00034160       pkey_siphash_cleanup       0000000000034420 f   OpensslLib:siphash_pmeth.obj
 0001:000341d4       pkey_siphash_copy          0000000000034494 f   OpensslLib:siphash_pmeth.obj
 0001:00034248       pkey_siphash_keygen        0000000000034508 f   OpensslLib:siphash_pmeth.obj
 0001:00034284       int_update                 0000000000034544 f   OpensslLib:siphash_pmeth.obj
 0001:000342a4       siphash_signctx_init       0000000000034564 f   OpensslLib:siphash_pmeth.obj
 0001:00034304       siphash_signctx            00000000000345c4 f   OpensslLib:siphash_pmeth.obj
 0001:00034328       pkey_siphash_ctrl          00000000000345e8 f   OpensslLib:siphash_pmeth.obj
 0001:00034424       pkey_siphash_ctrl_str      00000000000346e4 f   OpensslLib:siphash_pmeth.obj
 0001:000344dc       pkey_hmac_init             000000000003479c f   OpensslLib:hm_pmeth.obj
 0001:00034548       pkey_hmac_copy             0000000000034808 f   OpensslLib:hm_pmeth.obj
 0001:000345c0       pkey_hmac_cleanup          0000000000034880 f   OpensslLib:hm_pmeth.obj
 0001:0003462c       pkey_hmac_keygen           00000000000348ec f   OpensslLib:hm_pmeth.obj
 0001:00034670       int_update                 0000000000034930 f   OpensslLib:hm_pmeth.obj
 0001:000346a8       hmac_signctx_init          0000000000034968 f   OpensslLib:hm_pmeth.obj
 0001:000346e8       hmac_signctx               00000000000349a8 f   OpensslLib:hm_pmeth.obj
 0001:00034754       pkey_hmac_ctrl             0000000000034a14 f   OpensslLib:hm_pmeth.obj
 0001:000347c4       pkey_hmac_ctrl_str         0000000000034a84 f   OpensslLib:hm_pmeth.obj
 0001:00034a04       rsa_ossl_public_encrypt    0000000000034cc4 f   OpensslLib:rsa_ossl.obj
 0001:00034cd0       rsa_get_blinding           0000000000034f90 f   OpensslLib:rsa_ossl.obj
 0001:00034d48       rsa_ossl_private_encrypt   0000000000035008 f   OpensslLib:rsa_ossl.obj
 0001:000351d4       rsa_ossl_private_decrypt   0000000000035494 f   OpensslLib:rsa_ossl.obj
 0001:000355c4       rsa_ossl_public_decrypt    0000000000035884 f   OpensslLib:rsa_ossl.obj
 0001:0003590c       rsa_ossl_mod_exp           0000000000035bcc f   OpensslLib:rsa_ossl.obj
 0001:000363fc       rsa_ossl_init              00000000000366bc f   OpensslLib:rsa_ossl.obj
 0001:00036408       rsa_ossl_finish            00000000000366c8 f   OpensslLib:rsa_ossl.obj
 0001:00036e64       bn_from_montgomery_word    0000000000037124 f   OpensslLib:bn_mont.obj
 0001:00037470       generate_key               0000000000037730 f   OpensslLib:dh_key.obj
 0001:000376c8       compute_key                0000000000037988 f   OpensslLib:dh_key.obj
 0001:00037818       dh_bn_mod_exp              0000000000037ad8 f   OpensslLib:dh_key.obj
 0001:00037854       dh_init                    0000000000037b14 f   OpensslLib:dh_key.obj
 0001:00037860       dh_finish                  0000000000037b20 f   OpensslLib:dh_key.obj
 0001:00037878       cmac_size                  0000000000037b38 f   OpensslLib:cm_ameth.obj
 0001:00037880       siphash_size               0000000000037b40 f   OpensslLib:siphash_ameth.obj
 0001:00037888       hmac_key_free              0000000000037b48 f   OpensslLib:hm_ameth.obj
 0001:00037888       siphash_key_free           0000000000037b48 f   OpensslLib:siphash_ameth.obj
 0001:000378bc       dh_pkey_ctrl               0000000000037b7c f   OpensslLib:dh_ameth.obj
 0001:000378bc       siphash_pkey_ctrl          0000000000037b7c f   OpensslLib:siphash_ameth.obj
 0001:000378c4       hmac_pkey_public_cmp       0000000000037b84 f   OpensslLib:hm_ameth.obj
 0001:000378c4       siphash_pkey_public_cmp    0000000000037b84 f   OpensslLib:siphash_ameth.obj
 0001:000378d4       siphash_set_priv_key       0000000000037b94 f   OpensslLib:siphash_ameth.obj
 0001:00037944       siphash_get_priv_key       0000000000037c04 f   OpensslLib:siphash_ameth.obj
 0001:00037994       hmac_size                  0000000000037c54 f   OpensslLib:hm_ameth.obj
 0001:0003799c       hmac_pkey_ctrl             0000000000037c5c f   OpensslLib:hm_ameth.obj
 0001:000379b4       hmac_set_priv_key          0000000000037c74 f   OpensslLib:hm_ameth.obj
 0001:00037a28       hmac_get_priv_key          0000000000037ce8 f   OpensslLib:hm_ameth.obj
 0001:00037a70       rsa_param_encode           0000000000037d30 f   OpensslLib:rsa_ameth.obj
 0001:00037ac8       rsa_param_decode           0000000000037d88 f   OpensslLib:rsa_ameth.obj
 0001:00037b44       rsa_pub_encode             0000000000037e04 f   OpensslLib:rsa_ameth.obj
 0001:00037c44       rsa_pub_decode             0000000000037f04 f   OpensslLib:rsa_ameth.obj
 0001:00037cd8       rsa_pub_cmp                0000000000037f98 f   OpensslLib:rsa_ameth.obj
 0001:00037d20       old_rsa_priv_decode        0000000000037fe0 f   OpensslLib:rsa_ameth.obj
 0001:00037d6c       old_rsa_priv_encode        000000000003802c f   OpensslLib:rsa_ameth.obj
 0001:00037d80       rsa_priv_encode            0000000000038040 f   OpensslLib:rsa_ameth.obj
 0001:00037e7c       rsa_priv_decode            000000000003813c f   OpensslLib:rsa_ameth.obj
 0001:00037f10       int_rsa_size               00000000000381d0 f   OpensslLib:rsa_ameth.obj
 0001:00037f34       rsa_bits                   00000000000381f4 f   OpensslLib:rsa_ameth.obj
 0001:00037f44       rsa_security_bits          0000000000038204 f   OpensslLib:rsa_ameth.obj
 0001:00038000       int_rsa_free               00000000000382c0 f   OpensslLib:rsa_ameth.obj
 0001:0003800c       rsa_pss_param_print        00000000000382cc f   OpensslLib:rsa_ameth.obj
 0001:000382f0       pkey_rsa_print             00000000000385b0 f   OpensslLib:rsa_ameth.obj
 0001:00038658       rsa_pub_print              0000000000038918 f   OpensslLib:rsa_ameth.obj
 0001:00038660       rsa_priv_print             0000000000038920 f   OpensslLib:rsa_ameth.obj
 0001:0003866c       rsa_pss_decode             000000000003892c f   OpensslLib:rsa_ameth.obj
 0001:000386f0       rsa_sig_print              00000000000389b0 f   OpensslLib:rsa_ameth.obj
 0001:000387a0       rsa_pkey_ctrl              0000000000038a60 f   OpensslLib:rsa_ameth.obj
 0001:00038894       rsa_md_to_algor            0000000000038b54 f   OpensslLib:rsa_ameth.obj
 0001:00038904       rsa_md_to_mgf1             0000000000038bc4 f   OpensslLib:rsa_ameth.obj
 0001:00038b14       rsa_ctx_to_pss_string      0000000000038dd4 f   OpensslLib:rsa_ameth.obj
 0001:00038cb0       rsa_pss_to_ctx             0000000000038f70 f   OpensslLib:rsa_ameth.obj
 0001:00039098       rsa_item_verify            0000000000039358 f   OpensslLib:rsa_ameth.obj
 0001:000390f8       rsa_item_sign              00000000000393b8 f   OpensslLib:rsa_ameth.obj
 0001:000391c8       rsa_sig_info_set           0000000000039488 f   OpensslLib:rsa_ameth.obj
 0001:0003929c       rsa_pkey_check             000000000003955c f   OpensslLib:rsa_ameth.obj
 0001:000392a8       i2d_dhp                    0000000000039568 f   OpensslLib:dh_ameth.obj
 0001:00039350       int_dh_free                0000000000039610 f   OpensslLib:dh_ameth.obj
 0001:0003935c       dh_pub_decode              000000000003961c f   OpensslLib:dh_ameth.obj
 0001:00039530       dh_pub_encode              00000000000397f0 f   OpensslLib:dh_ameth.obj
 0001:00039690       dh_priv_decode             0000000000039950 f   OpensslLib:dh_ameth.obj
 0001:00039890       dh_priv_encode             0000000000039b50 f   OpensslLib:dh_ameth.obj
 0001:00039a20       dh_param_decode            0000000000039ce0 f   OpensslLib:dh_ameth.obj
 0001:00039a7c       dh_param_encode            0000000000039d3c f   OpensslLib:dh_ameth.obj
 0001:00039a88       do_dh_print                0000000000039d48 f   OpensslLib:dh_ameth.obj
 0001:00039d80       int_dh_size                000000000003a040 f   OpensslLib:dh_ameth.obj
 0001:00039da4       dh_bits                    000000000003a064 f   OpensslLib:dh_ameth.obj
 0001:00039db4       dh_security_bits           000000000003a074 f   OpensslLib:dh_ameth.obj
 0001:00039dfc       dh_cmp_parameters          000000000003a0bc f   OpensslLib:dh_ameth.obj
 0001:00039e70       int_dh_bn_cpy              000000000003a130 f   OpensslLib:dh_ameth.obj
 0001:00039ebc       int_dh_param_copy          000000000003a17c f   OpensslLib:dh_ameth.obj
 0001:00039f80       dh_copy_parameters         000000000003a240 f   OpensslLib:dh_ameth.obj
 0001:00039fdc       dh_missing_parameters      000000000003a29c f   OpensslLib:dh_ameth.obj
 0001:00039ffc       dh_pub_cmp                 000000000003a2bc f   OpensslLib:dh_ameth.obj
 0001:0003a044       dh_param_print             000000000003a304 f   OpensslLib:dh_ameth.obj
 0001:0003a050       dh_public_print            000000000003a310 f   OpensslLib:dh_ameth.obj
 0001:0003a060       dh_private_print           000000000003a320 f   OpensslLib:dh_ameth.obj
 0001:0003a070       dh_pkey_public_check       000000000003a330 f   OpensslLib:dh_ameth.obj
 0001:0003a100       dh_pkey_param_check        000000000003a3c0 f   OpensslLib:dh_ameth.obj
 0001:0003a5d8       BN_STACK_push              000000000003a898 f   OpensslLib:bn_ctx.obj
 0001:0003a68c       BN_POOL_get                000000000003a94c f   OpensslLib:bn_ctx.obj
 0001:0003a874       i2v_EXTENDED_KEY_USAGE     000000000003ab34 f   OpensslLib:v3_extku.obj
 0001:0003a900       v2i_EXTENDED_KEY_USAGE     000000000003abc0 f   OpensslLib:v3_extku.obj
 0001:0003ac0c       i2r_ocsp_crlid             000000000003aecc f   OpensslLib:v3_ocsp.obj
 0001:0003ad60       i2r_ocsp_acutoff           000000000003b020 f   OpensslLib:v3_ocsp.obj
 0001:0003adac       i2r_object                 000000000003b06c f   OpensslLib:v3_ocsp.obj
 0001:0003adf0       ocsp_nonce_new             000000000003b0b0 f   OpensslLib:v3_ocsp.obj
 0001:0003adfc       i2d_ocsp_nonce             000000000003b0bc f   OpensslLib:v3_ocsp.obj
 0001:0003ae34       d2i_ocsp_nonce             000000000003b0f4 f   OpensslLib:v3_ocsp.obj
 0001:0003aecc       i2r_ocsp_nonce             000000000003b18c f   OpensslLib:v3_ocsp.obj
 0001:0003af10       s2i_ocsp_nocheck           000000000003b1d0 f   OpensslLib:v3_ocsp.obj
 0001:0003af1c       i2r_ocsp_serviceloc        000000000003b1dc f   OpensslLib:v3_ocsp.obj
 0001:0003b028       i2v_AUTHORITY_KEYID        000000000003b2e8 f   OpensslLib:v3_akey.obj
 0001:0003b0d0       v2i_AUTHORITY_KEYID        000000000003b390 f   OpensslLib:v3_akey.obj
 0001:0003b50c       s2i_asn1_int               000000000003b7cc f   OpensslLib:v3_int.obj
 0001:0003b514       i2r_NAMING_AUTHORITY       000000000003b7d4 f   OpensslLib:v3_admis.obj
 0001:0003b6c0       i2r_ADMISSION_SYNTAX       000000000003b980 f   OpensslLib:v3_admis.obj
 0001:0003bafc       s2i_skey_id                000000000003bdbc f   OpensslLib:v3_skey.obj
 0001:0003bce8       i2r_PKEY_USAGE_PERIOD      000000000003bfa8 f   OpensslLib:v3_pku.obj
 0001:0003bdb4       i2v_POLICY_MAPPINGS        000000000003c074 f   OpensslLib:v3_pmaps.obj
 0001:0003be6c       v2i_POLICY_MAPPINGS        000000000003c12c f   OpensslLib:v3_pmaps.obj
 0001:0003c054       sxnet_i2r                  000000000003c314 f   OpensslLib:v3_sxnet.obj
 0001:0003c114       sxnet_v2i                  000000000003c3d4 f   OpensslLib:v3_sxnet.obj
 0001:0003c410       i2r_pci                    000000000003c6d0 f   OpensslLib:v3_pci.obj
 0001:0003c4b0       process_pci_value          000000000003c770 f   OpensslLib:v3_pci.obj
 0001:0003c8f4       r2i_pci                    000000000003cbb4 f   OpensslLib:v3_pci.obj
 0001:0003cd38       i2v_TLS_FEATURE            000000000003cff8 f   OpensslLib:v3_tlsf.obj
 0001:0003cdec       v2i_TLS_FEATURE            000000000003d0ac f   OpensslLib:v3_tlsf.obj
 0001:0003cfd4       generate_v3                000000000003d294 f   OpensslLib:asn1_gen.obj
 0001:0003d32c       asn1_cb                    000000000003d5ec f   OpensslLib:asn1_gen.obj
 0001:0003d5a8       parse_tagging              000000000003d868 f   OpensslLib:asn1_gen.obj
 0001:0003d654       asn1_multi                 000000000003d914 f   OpensslLib:asn1_gen.obj
 0001:0003d80c       append_exp                 000000000003dacc f   OpensslLib:asn1_gen.obj
 0001:0003d8a0       asn1_str2tag               000000000003db60 f   OpensslLib:asn1_gen.obj
 0001:0003d938       asn1_str2type              000000000003dbf8 f   OpensslLib:asn1_gen.obj
 0001:0003dccc       bitstr_cb                  000000000003df8c f   OpensslLib:asn1_gen.obj
 0001:0003dd20       mask_cb                    000000000003dfe0 f   OpensslLib:asn1_gen.obj
 0001:0003dda4       RandGetBytes               000000000003e064 f   OpensslLib:rand_pool.obj
 0001:0003de30       RandGetSeed128             000000000003e0f0 f   OpensslLib:rand_pool.obj
 0001:0003e2dc       hmac_ctx_cleanup           000000000003e59c f   OpensslLib:hmac.obj
 0001:0003e374       hmac_ctx_alloc_mds         000000000003e634 f   OpensslLib:hmac.obj
 0001:0003e458       sm4_init_key               000000000003e718 f   OpensslLib:e_sm4.obj
 0001:0003e478       sm4_cbc_cipher             000000000003e738 f   OpensslLib:e_sm4.obj
 0001:0003e580       sm4_cfb128_cipher          000000000003e840 f   OpensslLib:e_sm4.obj
 0001:0003e630       sm4_ecb_cipher             000000000003e8f0 f   OpensslLib:e_sm4.obj
 0001:0003e6b4       sm4_ofb_cipher             000000000003e974 f   OpensslLib:e_sm4.obj
 0001:0003e7b4       sm4_ctr_cipher             000000000003ea74 f   OpensslLib:e_sm4.obj
 0001:0003e81c       aria_init_key              000000000003eadc f   OpensslLib:e_aria.obj
 0001:0003e888       aria_128_cbc_cipher        000000000003eb48 f   OpensslLib:e_aria.obj
 0001:0003e888       aria_192_cbc_cipher        000000000003eb48 f   OpensslLib:e_aria.obj
 0001:0003e888       aria_256_cbc_cipher        000000000003eb48 f   OpensslLib:e_aria.obj
 0001:0003e95c       aria_128_cfb128_cipher     000000000003ec1c f   OpensslLib:e_aria.obj
 0001:0003e95c       aria_192_cfb128_cipher     000000000003ec1c f   OpensslLib:e_aria.obj
 0001:0003e95c       aria_256_cfb128_cipher     000000000003ec1c f   OpensslLib:e_aria.obj
 0001:0003ea0c       aria_128_ecb_cipher        000000000003eccc f   OpensslLib:e_aria.obj
 0001:0003ea0c       aria_192_ecb_cipher        000000000003eccc f   OpensslLib:e_aria.obj
 0001:0003ea0c       aria_256_ecb_cipher        000000000003eccc f   OpensslLib:e_aria.obj
 0001:0003ea84       aria_128_ofb_cipher        000000000003ed44 f   OpensslLib:e_aria.obj
 0001:0003ea84       aria_192_ofb_cipher        000000000003ed44 f   OpensslLib:e_aria.obj
 0001:0003ea84       aria_256_ofb_cipher        000000000003ed44 f   OpensslLib:e_aria.obj
 0001:0003eb84       aria_128_cfb1_cipher       000000000003ee44 f   OpensslLib:e_aria.obj
 0001:0003eb84       aria_192_cfb1_cipher       000000000003ee44 f   OpensslLib:e_aria.obj
 0001:0003eb84       aria_256_cfb1_cipher       000000000003ee44 f   OpensslLib:e_aria.obj
 0001:0003ec40       aria_128_cfb8_cipher       000000000003ef00 f   OpensslLib:e_aria.obj
 0001:0003ec40       aria_192_cfb8_cipher       000000000003ef00 f   OpensslLib:e_aria.obj
 0001:0003ec40       aria_256_cfb8_cipher       000000000003ef00 f   OpensslLib:e_aria.obj
 0001:0003ecec       aria_ctr_cipher            000000000003efac f   OpensslLib:e_aria.obj
 0001:0003ed54       aria_gcm_init_key          000000000003f014 f   OpensslLib:e_aria.obj
 0001:0003ee70       aria_gcm_ctrl              000000000003f130 f   OpensslLib:e_aria.obj
 0001:0003f25c       aria_gcm_tls_cipher        000000000003f51c f   OpensslLib:e_aria.obj
 0001:0003f3a0       aria_gcm_cipher            000000000003f660 f   OpensslLib:e_aria.obj
 0001:0003f478       aria_gcm_cleanup           000000000003f738 f   OpensslLib:e_aria.obj
 0001:0003f4a4       aria_ccm_init_key          000000000003f764 f   OpensslLib:e_aria.obj
 0001:0003f584       aria_ccm_ctrl              000000000003f844 f   OpensslLib:e_aria.obj
 0001:0003f7a8       aria_ccm_tls_cipher        000000000003fa68 f   OpensslLib:e_aria.obj
 0001:0003f988       aria_ccm_cipher            000000000003fc48 f   OpensslLib:e_aria.obj
 0001:0003fbbc       aes_init_key               000000000003fe7c f   OpensslLib:e_aes.obj
 0001:0003fc74       aes_cbc_cipher             000000000003ff34 f   OpensslLib:e_aes.obj
 0001:0003fce0       aes_ecb_cipher             000000000003ffa0 f   OpensslLib:e_aes.obj
 0001:0003fd58       aes_ofb_cipher             0000000000040018 f   OpensslLib:e_aes.obj
 0001:0003fdb8       aes_cfb_cipher             0000000000040078 f   OpensslLib:e_aes.obj
 0001:0003fe20       aes_cfb8_cipher            00000000000400e0 f   OpensslLib:e_aes.obj
 0001:0003fe80       aes_cfb1_cipher            0000000000040140 f   OpensslLib:e_aes.obj
 0001:0003ffb4       aes_ctr_cipher             0000000000040274 f   OpensslLib:e_aes.obj
 0001:00040048       aes_gcm_cleanup            0000000000040308 f   OpensslLib:e_aes.obj
 0001:000400a0       aes_gcm_ctrl               0000000000040360 f   OpensslLib:e_aes.obj
 0001:0004048c       aes_gcm_init_key           000000000004074c f   OpensslLib:e_aes.obj
 0001:00040584       aes_gcm_tls_cipher         0000000000040844 f   OpensslLib:e_aes.obj
 0001:000406d0       aes_gcm_cipher             0000000000040990 f   OpensslLib:e_aes.obj
 0001:000407c8       aes_xts_ctrl               0000000000040a88 f   OpensslLib:e_aes.obj
 0001:00040838       aes_xts_init_key           0000000000040af8 f   OpensslLib:e_aes.obj
 0001:00040984       aes_xts_cipher             0000000000040c44 f   OpensslLib:e_aes.obj
 0001:00040a1c       aes_ccm_ctrl               0000000000040cdc f   OpensslLib:e_aes.obj
 0001:00040c40       aes_ccm_init_key           0000000000040f00 f   OpensslLib:e_aes.obj
 0001:00040cf8       aes_ccm_tls_cipher         0000000000040fb8 f   OpensslLib:e_aes.obj
 0001:00040ed8       aes_ccm_cipher             0000000000041198 f   OpensslLib:e_aes.obj
 0001:0004110c       aes_wrap_init_key          00000000000413cc f   OpensslLib:e_aes.obj
 0001:000411a8       aes_wrap_cipher            0000000000041468 f   OpensslLib:e_aes.obj
 0001:0004134c       ctr_XOR                    000000000004160c f   OpensslLib:drbg_ctr.obj
 0001:000413cc       ctr_BCC_block              000000000004168c f   OpensslLib:drbg_ctr.obj
 0001:00041434       ctr_BCC_blocks             00000000000416f4 f   OpensslLib:drbg_ctr.obj
 0001:00041498       ctr_BCC_update             0000000000041758 f   OpensslLib:drbg_ctr.obj
 0001:0004155c       ctr_df                     000000000004181c f   OpensslLib:drbg_ctr.obj
 0001:000417f8       ctr_update                 0000000000041ab8 f   OpensslLib:drbg_ctr.obj
 0001:00041a3c       drbg_ctr_instantiate       0000000000041cfc f   OpensslLib:drbg_ctr.obj
 0001:00041b14       drbg_ctr_reseed            0000000000041dd4 f   OpensslLib:drbg_ctr.obj
 0001:00041b4c       drbg_ctr_generate          0000000000041e0c f   OpensslLib:drbg_ctr.obj
 0001:00041ccc       drbg_ctr_uninstantiate     0000000000041f8c f   OpensslLib:drbg_ctr.obj
 0001:00041e88       init                       0000000000042148 f   OpensslLib:m_sha3.obj
 0001:00041f08       sha3_init                  00000000000421c8 f   OpensslLib:m_sha3.obj
 0001:00041f10       shake_init                 00000000000421d0 f   OpensslLib:m_sha3.obj
 0001:00041f18       sha3_update                00000000000421d8 f   OpensslLib:m_sha3.obj
 0001:00042010       sha3_final                 00000000000422d0 f   OpensslLib:m_sha3.obj
 0001:000420b4       shake_ctrl                 0000000000042374 f   OpensslLib:m_sha3.obj
 0001:000420d4       init                       0000000000042394 f   OpensslLib:m_sm3.obj
 0001:00042130       update                     00000000000423f0 f   OpensslLib:m_sm3.obj
 0001:00042244       final                      0000000000042504 f   OpensslLib:m_sm3.obj
 0001:00042254       init                       0000000000042514 f   OpensslLib:m_md5_sha1.obj
 0001:00042298       update                     0000000000042558 f   OpensslLib:m_md5_sha1.obj
 0001:000422dc       final                      000000000004259c f   OpensslLib:m_md5_sha1.obj
 0001:00042314       ctrl                       00000000000425d4 f   OpensslLib:m_md5_sha1.obj
 0001:000424b4       trans_cb                   0000000000042774 f   OpensslLib:pmeth_gn.obj
 0001:000424cc       dh_param_init              000000000004278c f   OpensslLib:dh_rfc7919.obj
 0001:0004258c       dh_builtin_genparams       000000000004284c f   OpensslLib:dh_gen.obj
 0001:00042878       rsa_get_public_exp         0000000000042b38 f   OpensslLib:rsa_crpt.obj
 0001:00043480       rsa_builtin_keygen         0000000000043740 f   OpensslLib:rsa_gen.obj
 0001:00043e20       encode_pkcs1               00000000000440e0 f   OpensslLib:rsa_sign.obj
 0001:0004609c       bn_get_bits                000000000004635c f   OpensslLib:bn_exp.obj
 0001:000460f4       MOD_EXP_CTIME_COPY_TO_PREBUF 00000000000463b4 f   OpensslLib:bn_exp.obj
 0001:0004614c       MOD_EXP_CTIME_COPY_FROM_PREBUF 000000000004640c f   OpensslLib:bn_exp.obj
 0001:000481ac       BN_mod_inverse_no_branch   000000000004846c f   OpensslLib:bn_gcd.obj
 0001:000487b0       bnrand                     0000000000048a70 f   OpensslLib:bn_rand.obj
 0001:00048968       bnrand_range               0000000000048c28 f   OpensslLib:bn_rand.obj
 0001:00049d2c       dh_cb                      0000000000049fec f   OpensslLib:dh_asn1.obj
 0001:0004b404       SM4_T_slow                 000000000004b6c4 f   OpensslLib:sm4.obj
 0001:0004cd10       cfbr_encrypt_block         000000000004cfd0 f   OpensslLib:cfb128.obj
 0001:0004cfdc       gcm_gmult_4bit             000000000004d29c f   OpensslLib:gcm128.obj
 0001:0004e614       rotnr                      000000000004e8d4 f   OpensslLib:aria.obj
 0001:0004e69c       sl2                        000000000004e95c f   OpensslLib:aria.obj
 0001:0004e72c       a                          000000000004e9ec f   OpensslLib:aria.obj
 0001:0004e8a8       FO                         000000000004eb68 f   OpensslLib:aria.obj
 0001:0004f224       crypto_128_unwrap_raw      000000000004f4e4 f   OpensslLib:wrap128.obj
 0001:0004f660       alg_module_init            000000000004f920 f   OpensslLib:evp_cnf.obj
 0001:0004f7b8       stbl_module_init           000000000004fa78 f   OpensslLib:asn_mstbl.obj
 0001:0004f894       stbl_module_finish         000000000004fb54 f   OpensslLib:asn_mstbl.obj
 0001:0004f8c0       do_tcreate                 000000000004fb80 f   OpensslLib:asn_mstbl.obj
 0001:0004fc24       ssl_module_free            000000000004fee4 f   OpensslLib:conf_ssl.obj
 0001:0004fcf0       ssl_module_init            000000000004ffb0 f   OpensslLib:conf_ssl.obj
 0001:0004fff4       oid_module_init            00000000000502b4 f   OpensslLib:asn_moid.obj
 0001:00050218       oid_module_finish          00000000000504d8 f   OpensslLib:asn_moid.obj
 0001:0005021c       Round                      00000000000504dc f   OpensslLib:keccak1600.obj
 0001:000505ec       KeccakF1600                00000000000508ac f   OpensslLib:keccak1600.obj
 0001:000536a4       witness                    0000000000053964 f   OpensslLib:bn_prime.obj
 0001:00053784       probable_prime             0000000000053a44 f   OpensslLib:bn_prime.obj
 0001:00053918       probable_prime_dh          0000000000053bd8 f   OpensslLib:bn_prime.obj
 0001:00054518       QuickSortWorker            00000000000547d8 f   BaseCryptLib:CrtWrapper.obj
 0002:00003c00       TS_TST_INFO_seq_tt         0000000000058920     BaseCryptLib:CryptTs.obj
 0002:00003d70       TS_ACCURACY_seq_tt         0000000000058a90     BaseCryptLib:CryptTs.obj
 0002:00003dd0       TS_MESSAGE_IMPRINT_seq_tt  0000000000058af0     BaseCryptLib:CryptTs.obj
 0002:00004080       K512                       0000000000058da0     OpensslLib:sha512.obj
 0002:00004308       minbits_table              0000000000059028     OpensslLib:x509_vfy.obj
 0002:000043d0       X509_CINF_seq_tt           00000000000590f0     OpensslLib:x_x509.obj
 0002:00004510       X509_seq_tt                0000000000059230     OpensslLib:x_x509.obj
 0002:000045a0       X509_CINF_aux              00000000000592c0     OpensslLib:x_x509.obj
 0002:000045c8       X509_aux                   00000000000592e8     OpensslLib:x_x509.obj
 0002:00004620       sha1_md                    0000000000059340     OpensslLib:m_sha1.obj
 0002:00004670       sha224_md                  0000000000059390     OpensslLib:m_sha1.obj
 0002:000046c0       sha512_224_md              00000000000593e0     OpensslLib:m_sha1.obj
 0002:00004710       sha256_md                  0000000000059430     OpensslLib:m_sha1.obj
 0002:00004760       sha512_md                  0000000000059480     OpensslLib:m_sha1.obj
 0002:000047b0       sha384_md                  00000000000594d0     OpensslLib:m_sha1.obj
 0002:00004800       sha512_256_md              0000000000059520     OpensslLib:m_sha1.obj
 0002:00004ae0       PKCS7_ENVELOPE_seq_tt      0000000000059800     OpensslLib:pk7_asn1.obj
 0002:00004bd0       PKCS7_adb                  00000000000598f0     OpensslLib:pk7_asn1.obj
 0002:00004c00       PKCS7_SIGNER_INFO_aux      0000000000059920     OpensslLib:pk7_asn1.obj
 0002:00004c30       PKCS7_SIGNER_INFO_seq_tt   0000000000059950     OpensslLib:pk7_asn1.obj
 0002:00004d70       PKCS7_ENC_CONTENT_seq_tt   0000000000059a90     OpensslLib:pk7_asn1.obj
 0002:00004e30       PKCS7_adbtbl               0000000000059b50     OpensslLib:pk7_asn1.obj
 0002:00004f50       PKCS7_RECIP_INFO_aux       0000000000059c70     OpensslLib:pk7_asn1.obj
 0002:00004fa8       p7default_tt               0000000000059cc8     OpensslLib:pk7_asn1.obj
 0002:00004fd0       PKCS7_ISSUER_AND_SERIAL_seq_tt 0000000000059cf0     OpensslLib:pk7_asn1.obj
 0002:00005010       PKCS7_SIGN_ENVELOPE_seq_tt 0000000000059d30     OpensslLib:pk7_asn1.obj
 0002:000050f0       PKCS7_RECIP_INFO_seq_tt    0000000000059e10     OpensslLib:pk7_asn1.obj
 0002:000051a0       PKCS7_aux                  0000000000059ec0     OpensslLib:pk7_asn1.obj
 0002:00005200       PKCS7_SIGNED_seq_tt        0000000000059f20     OpensslLib:pk7_asn1.obj
 0002:000052c0       PKCS7_ATTR_SIGN_item_tt    0000000000059fe0     OpensslLib:pk7_asn1.obj
 0002:000052e0       PKCS7_DIGEST_seq_tt        000000000005a000     OpensslLib:pk7_asn1.obj
 0002:00005390       PKCS7_ATTR_VERIFY_item_tt  000000000005a0b0     OpensslLib:pk7_asn1.obj
 0002:000053b0       PKCS7_seq_tt               000000000005a0d0     OpensslLib:pk7_asn1.obj
 0002:000053f0       PKCS7_ENCRYPT_seq_tt       000000000005a110     OpensslLib:pk7_asn1.obj
 0002:00005440       mem_method                 000000000005a160     OpensslLib:bss_mem.obj
 0002:000054a0       md5_md                     000000000005a1c0     OpensslLib:m_md5.obj
 0002:0000d780       nid_objs                   00000000000624a0     OpensslLib:obj_dat.obj
 0002:00019240       ln_objs                    000000000006df60     OpensslLib:obj_dat.obj
 0002:0001a4d0       so                         000000000006f1f0     OpensslLib:obj_dat.obj
 0002:0001c330       obj_objs                   0000000000071050     OpensslLib:obj_dat.obj
 0002:0001d3f0       sn_objs                    0000000000072110     OpensslLib:obj_dat.obj
 0002:0001e718       X509_NAME_ENTRIES_item_tt  0000000000073438     OpensslLib:x_name.obj
 0002:0001e740       X509_NAME_ENTRY_seq_tt     0000000000073460     OpensslLib:x_name.obj
 0002:0001e7b0       X509_NAME_INTERNAL_item_tt 00000000000734d0     OpensslLib:x_name.obj
 0002:0001e7d0       x509_name_ff               00000000000734f0     OpensslLib:x_name.obj
 0002:0001e808       X509_NAME_INTERNAL_it      0000000000073528     OpensslLib:x_name.obj
 0002:0001e838       X509_NAME_ENTRIES_it       0000000000073558     OpensslLib:x_name.obj
 0002:0001e8a0       tag2nbyte                  00000000000735c0     OpensslLib:a_strex.obj
 0002:0001e8c0       char_type                  00000000000735e0     OpensslLib:a_strex.obj
 0002:0001e9c0       ?hexdig@?1??do_hex_dump@@9@9 00000000000736e0     OpensslLib:a_strex.obj
 0002:0001e9c0       ?hexdig@?1??OPENSSL_buf2hexstr@@9@9 00000000000736e0     OpensslLib:o_str.obj
 0002:0001e9c0       ?hex@?1??X509_NAME_oneline@@9@9 00000000000736e0     OpensslLib:x509_obj.obj
 0002:0001eb10       RSAPublicKey_seq_tt        0000000000073830     OpensslLib:rsa_asn1.obj
 0002:0001eb50       RSAPublicKey_aux           0000000000073870     OpensslLib:rsa_asn1.obj
 0002:0001eb80       RSAPrivateKey_seq_tt       00000000000738a0     OpensslLib:rsa_asn1.obj
 0002:0001ecc0       RSAPrivateKey_aux          00000000000739e0     OpensslLib:rsa_asn1.obj
 0002:0001ed18       RSA_PSS_PARAMS_aux         0000000000073a38     OpensslLib:rsa_asn1.obj
 0002:0001ed40       RSA_PSS_PARAMS_seq_tt      0000000000073a60     OpensslLib:rsa_asn1.obj
 0002:0001edf0       RSA_PRIME_INFO_seq_tt      0000000000073b10     OpensslLib:rsa_asn1.obj
 0002:0001ee50       K256                       0000000000073b70     OpensslLib:sha256.obj
 0002:0001f2f8       ASN1_SEQUENCE_ANY_item_tt  0000000000074018     OpensslLib:tasn_typ.obj
 0002:0001f3a8       ASN1_SET_ANY_item_tt       00000000000740c8     OpensslLib:tasn_typ.obj
 0002:0001f4d0       tag2bit                    00000000000741f0     OpensslLib:tasn_dec.obj
 0002:0001f5a0       X509_ALGOR_seq_tt          00000000000742c0     OpensslLib:x_algor.obj
 0002:0001f630       X509_EXTENSION_seq_tt      0000000000074350     OpensslLib:x_exten.obj
 0002:0001f810       OTHERNAME_seq_tt           0000000000074530     OpensslLib:v3_genn.obj
 0002:0001f850       EDIPARTYNAME_seq_tt        0000000000074570     OpensslLib:v3_genn.obj
 0002:0001f890       GENERAL_NAMES_item_tt      00000000000745b0     OpensslLib:v3_genn.obj
 0002:0001f910       GENERAL_NAME_ch_tt         0000000000074630     OpensslLib:v3_genn.obj
 0002:0001fa60       default_table              0000000000074780     OpensslLib:x509_vpm.obj
 0002:0001fd60       X509_REVOKED_seq_tt        0000000000074a80     OpensslLib:x_crl.obj
 0002:0001fdc0       X509_CRL_INFO_seq_tt       0000000000074ae0     OpensslLib:x_crl.obj
 0002:0001fea0       X509_CRL_seq_tt            0000000000074bc0     OpensslLib:x_crl.obj
 0002:0001ff00       X509_CRL_INFO_aux          0000000000074c20     OpensslLib:x_crl.obj
 0002:0001ff28       X509_CRL_aux               0000000000074c48     OpensslLib:x_crl.obj
 0002:00020070       ?supported_nids@?1??X509_supported_extension@@9@9 0000000000074d90     OpensslLib:v3_purp.obj
 0002:00020108       X509_PUBKEY_aux            0000000000074e28     OpensslLib:x_pubkey.obj
 0002:00020130       X509_PUBKEY_seq_tt         0000000000074e50     OpensslLib:x_pubkey.obj
 0002:00020250       ?max@?1??asn1_time_to_tm@@9@9 0000000000074f70     OpensslLib:a_time.obj
 0002:00020280       ?min@?1??asn1_time_to_tm@@9@9 0000000000074fa0     OpensslLib:a_time.obj
 0002:000202a8       _asn1_mon                  0000000000074fc8     OpensslLib:a_time.obj
 0002:000202d8       ?ydays@?1??determine_days@@9@9 0000000000074ff8     OpensslLib:a_time.obj
 0002:00020310       ?mdays@?1??asn1_time_to_tm@@9@9 0000000000075030     OpensslLib:a_time.obj
 0002:00020510       NAME_CONSTRAINTS_seq_tt    0000000000075230     OpensslLib:v3_ncons.obj
 0002:000205f0       GENERAL_SUBTREE_seq_tt     0000000000075310     OpensslLib:v3_ncons.obj
 0002:00020680       ctype_char_map             00000000000753a0     OpensslLib:ctype.obj
 0002:000209f8       CRL_DIST_POINTS_item_tt    0000000000075718     OpensslLib:v3_crld.obj
 0002:00020a20       ISSUING_DIST_POINT_seq_tt  0000000000075740     OpensslLib:v3_crld.obj
 0002:00020bb0       reason_flags               00000000000758d0     OpensslLib:v3_crld.obj
 0002:00020d40       DIST_POINT_NAME_ch_tt      0000000000075a60     OpensslLib:v3_crld.obj
 0002:00020df0       DIST_POINT_seq_tt          0000000000075b10     OpensslLib:v3_crld.obj
 0002:00020e80       DIST_POINT_NAME_aux        0000000000075ba0     OpensslLib:v3_crld.obj
 0002:00020ee0       X509_CERT_AUX_seq_tt       0000000000075c00     OpensslLib:x_x509a.obj
 0002:00020ff0       AUTHORITY_KEYID_seq_tt     0000000000075d10     OpensslLib:v3_akeya.obj
 0002:00021080       X509_VAL_seq_tt            0000000000075da0     OpensslLib:x_val.obj
 0002:00021be0       sigoid_srt                 0000000000076900     OpensslLib:obj_xref.obj
 0002:00021e40       X509_ATTRIBUTE_seq_tt      0000000000076b60     OpensslLib:x_attrib.obj
 0002:00021f10       X509_SIG_seq_tt            0000000000076c30     OpensslLib:x_sig.obj
 0002:00021f70       Hex                        0000000000076c90     OpensslLib:bn_print.obj
 0002:00021f88       ?const_one@?1??BN_value_one@@9@9 0000000000076ca8     OpensslLib:bn_lib.obj
 0002:00021fa0       ?data_one@?1??BN_value_one@@9@9 0000000000076cc0     OpensslLib:bn_lib.obj
 0002:00021fb8       ?zero_iv@?1??CMAC_Init@@9@9 0000000000076cd8     OpensslLib:cmac.obj
 0002:00021fe0       tbl_standard               0000000000076d00     OpensslLib:a_strnid.obj
 0002:000223b0       ?tag2str@?1??ASN1_tag2str@@9@9 00000000000770d0     OpensslLib:asn1_par.obj
 0002:00022620       PROXY_POLICY_seq_tt        0000000000077340     OpensslLib:v3_pcia.obj
 0002:00022690       PROXY_CERT_INFO_EXTENSION_seq_tt 00000000000773b0     OpensslLib:v3_pcia.obj
 0002:00022730       BASIC_CONSTRAINTS_seq_tt   0000000000077450     OpensslLib:v3_bcons.obj
 0002:000228c0       ACCESS_DESCRIPTION_seq_tt  00000000000775e0     OpensslLib:v3_info.obj
 0002:000229d8       AUTHORITY_INFO_ACCESS_item_tt 00000000000776f8     OpensslLib:v3_info.obj
 0002:00022d20       POLICY_CONSTRAINTS_seq_tt  0000000000077a40     OpensslLib:v3_pcons.obj
 0002:00022fa0       POLICYQUALINFO_adb         0000000000077cc0     OpensslLib:v3_cpols.obj
 0002:00022fd0       POLICYQUALINFO_adbtbl      0000000000077cf0     OpensslLib:v3_cpols.obj
 0002:00023050       POLICYQUALINFO_seq_tt      0000000000077d70     OpensslLib:v3_cpols.obj
 0002:00023090       NOTICEREF_seq_tt           0000000000077db0     OpensslLib:v3_cpols.obj
 0002:000230d0       policydefault_tt           0000000000077df0     OpensslLib:v3_cpols.obj
 0002:000230f0       USERNOTICE_seq_tt          0000000000077e10     OpensslLib:v3_cpols.obj
 0002:00023130       CERTIFICATEPOLICIES_item_tt 0000000000077e50     OpensslLib:v3_cpols.obj
 0002:00023180       POLICYINFO_seq_tt          0000000000077ea0     OpensslLib:v3_cpols.obj
 0002:00023230       methods_enc                0000000000077f50     OpensslLib:bio_enc.obj
 0002:000232a0       methods_md                 0000000000077fc0     OpensslLib:bio_md.obj
 0002:00023300       null_method                0000000000078020     OpensslLib:bss_null.obj
 0002:000233f8       ossl_pers_string           0000000000078118     OpensslLib:drbg_lib.obj
 0002:00024000       OCSP_SERVICELOC_seq_tt     0000000000078d20     OpensslLib:ocsp_asn.obj
 0002:00024040       OCSP_CRLID_seq_tt          0000000000078d60     OpensslLib:ocsp_asn.obj
 0002:00024ee0       EXTENDED_KEY_USAGE_item_tt 0000000000079c00     OpensslLib:v3_extku.obj
 0002:00025d80       ADMISSIONS_seq_tt          000000000007aaa0     OpensslLib:v3_admis.obj
 0002:00025e40       NAMING_AUTHORITY_seq_tt    000000000007ab60     OpensslLib:v3_admis.obj
 0002:00025ea0       PROFESSION_INFO_seq_tt     000000000007abc0     OpensslLib:v3_admis.obj
 0002:00025f40       ADMISSION_SYNTAX_seq_tt    000000000007ac60     OpensslLib:v3_admis.obj
 0002:00026170       PKEY_USAGE_PERIOD_seq_tt   000000000007ae90     OpensslLib:v3_pku.obj
 0002:000262a0       POLICY_MAPPING_seq_tt      000000000007afc0     OpensslLib:v3_pmaps.obj
 0002:00026340       POLICY_MAPPINGS_item_tt    000000000007b060     OpensslLib:v3_pmaps.obj
 0002:00026410       SXNET_seq_tt               000000000007b130     OpensslLib:v3_sxnet.obj
 0002:00026480       SXNETID_seq_tt             000000000007b1a0     OpensslLib:v3_sxnet.obj
 0002:00026640       TLS_FEATURE_it             000000000007b360     OpensslLib:v3_tlsf.obj
 0002:00026670       TLS_FEATURE_item_tt        000000000007b390     OpensslLib:v3_tlsf.obj
 0002:000267c0       ?tnst@?1??asn1_str2tag@@9@9 000000000007b4e0     OpensslLib:asn1_gen.obj
 0002:00026ad0       ?dummy_key@?1??HMAC@@9@9   000000000007b7f0     OpensslLib:hmac.obj
 0002:00026ae0       sm4_ecb                    000000000007b800     OpensslLib:e_sm4.obj
 0002:00026b40       sm4_ctr_mode               000000000007b860     OpensslLib:e_sm4.obj
 0002:00026ba0       sm4_cfb128                 000000000007b8c0     OpensslLib:e_sm4.obj
 0002:00026c00       sm4_cbc                    000000000007b920     OpensslLib:e_sm4.obj
 0002:00026c60       sm4_ofb                    000000000007b980     OpensslLib:e_sm4.obj
 0002:00026cc0       aria_256_ctr               000000000007b9e0     OpensslLib:e_aria.obj
 0002:00026d20       aria_192_ofb               000000000007ba40     OpensslLib:e_aria.obj
 0002:00026d80       aria_128_cbc               000000000007baa0     OpensslLib:e_aria.obj
 0002:00026de0       aria_192_ccm               000000000007bb00     OpensslLib:e_aria.obj
 0002:00026e40       aria_128_ofb               000000000007bb60     OpensslLib:e_aria.obj
 0002:00026ea0       aria_128_gcm               000000000007bbc0     OpensslLib:e_aria.obj
 0002:00026f00       aria_192_cfb8              000000000007bc20     OpensslLib:e_aria.obj
 0002:00026f60       aria_256_cbc               000000000007bc80     OpensslLib:e_aria.obj
 0002:00026fc0       aria_192_cfb1              000000000007bce0     OpensslLib:e_aria.obj
 0002:00027020       aria_128_ecb               000000000007bd40     OpensslLib:e_aria.obj
 0002:00027080       aria_256_ecb               000000000007bda0     OpensslLib:e_aria.obj
 0002:000270e0       aria_192_ecb               000000000007be00     OpensslLib:e_aria.obj
 0002:00027140       aria_128_cfb1              000000000007be60     OpensslLib:e_aria.obj
 0002:000271a0       aria_256_cfb8              000000000007bec0     OpensslLib:e_aria.obj
 0002:00027200       aria_256_gcm               000000000007bf20     OpensslLib:e_aria.obj
 0002:00027260       aria_256_cfb1              000000000007bf80     OpensslLib:e_aria.obj
 0002:000272c0       aria_128_cfb128            000000000007bfe0     OpensslLib:e_aria.obj
 0002:00027320       aria_256_cfb128            000000000007c040     OpensslLib:e_aria.obj
 0002:00027380       aria_128_ctr               000000000007c0a0     OpensslLib:e_aria.obj
 0002:000273e0       aria_128_cfb8              000000000007c100     OpensslLib:e_aria.obj
 0002:00027440       aria_192_cfb128            000000000007c160     OpensslLib:e_aria.obj
 0002:000274a0       aria_192_cbc               000000000007c1c0     OpensslLib:e_aria.obj
 0002:00027500       aria_192_ctr               000000000007c220     OpensslLib:e_aria.obj
 0002:00027560       aria_128_ccm               000000000007c280     OpensslLib:e_aria.obj
 0002:000275c0       aria_256_ofb               000000000007c2e0     OpensslLib:e_aria.obj
 0002:00027620       aria_256_ccm               000000000007c340     OpensslLib:e_aria.obj
 0002:00027680       aria_192_gcm               000000000007c3a0     OpensslLib:e_aria.obj
 0002:000276e0       aes_192_ecb                000000000007c400     OpensslLib:e_aes.obj
 0002:00027740       aes_192_ccm                000000000007c460     OpensslLib:e_aes.obj
 0002:000277a0       aes_192_ctr                000000000007c4c0     OpensslLib:e_aes.obj
 0002:00027800       aes_128_ofb                000000000007c520     OpensslLib:e_aes.obj
 0002:00027860       aes_256_ccm                000000000007c580     OpensslLib:e_aes.obj
 0002:000278c0       aes_192_gcm                000000000007c5e0     OpensslLib:e_aes.obj
 0002:00027920       aes_128_wrap_pad           000000000007c640     OpensslLib:e_aes.obj
 0002:00027980       aes_256_ctr                000000000007c6a0     OpensslLib:e_aes.obj
 0002:000279e0       aes_192_cfb8               000000000007c700     OpensslLib:e_aes.obj
 0002:00027a40       aes_192_cfb                000000000007c760     OpensslLib:e_aes.obj
 0002:00027aa0       aes_256_gcm                000000000007c7c0     OpensslLib:e_aes.obj
 0002:00027b00       aes_128_gcm                000000000007c820     OpensslLib:e_aes.obj
 0002:00027b60       aes_128_cfb1               000000000007c880     OpensslLib:e_aes.obj
 0002:00027bc0       aes_192_cbc                000000000007c8e0     OpensslLib:e_aes.obj
 0002:00027c20       aes_128_xts                000000000007c940     OpensslLib:e_aes.obj
 0002:00027c80       aes_128_ctr                000000000007c9a0     OpensslLib:e_aes.obj
 0002:00027ce0       aes_256_wrap               000000000007ca00     OpensslLib:e_aes.obj
 0002:00027d40       aes_256_cbc                000000000007ca60     OpensslLib:e_aes.obj
 0002:00027da0       aes_192_ofb                000000000007cac0     OpensslLib:e_aes.obj
 0002:00027e00       aes_256_wrap_pad           000000000007cb20     OpensslLib:e_aes.obj
 0002:00027e60       aes_128_ecb                000000000007cb80     OpensslLib:e_aes.obj
 0002:00027ec0       aes_256_ofb                000000000007cbe0     OpensslLib:e_aes.obj
 0002:00027f20       aes_256_cfb                000000000007cc40     OpensslLib:e_aes.obj
 0002:00027f80       aes_128_wrap               000000000007cca0     OpensslLib:e_aes.obj
 0002:00027fe0       aes_256_cfb1               000000000007cd00     OpensslLib:e_aes.obj
 0002:00028040       aes_128_cbc                000000000007cd60     OpensslLib:e_aes.obj
 0002:000280a0       aes_192_wrap_pad           000000000007cdc0     OpensslLib:e_aes.obj
 0002:00028100       aes_256_cfb8               000000000007ce20     OpensslLib:e_aes.obj
 0002:00028160       aes_128_cfb8               000000000007ce80     OpensslLib:e_aes.obj
 0002:000281c0       aes_256_ecb                000000000007cee0     OpensslLib:e_aes.obj
 0002:00028220       aes_256_xts                000000000007cf40     OpensslLib:e_aes.obj
 0002:00028280       aes_128_cfb                000000000007cfa0     OpensslLib:e_aes.obj
 0002:000282e0       aes_192_wrap               000000000007d000     OpensslLib:e_aes.obj
 0002:00028340       aes_192_cfb1               000000000007d060     OpensslLib:e_aes.obj
 0002:000283a0       aes_128_ccm                000000000007d0c0     OpensslLib:e_aes.obj
 0002:000283f8       ?df_key@?3??drbg_ctr_init@@9@9 000000000007d118     OpensslLib:drbg_ctr.obj
 0002:00028420       ?shake128_md@?1??EVP_shake128@@9@9 000000000007d140     OpensslLib:m_sha3.obj
 0002:00028470       ?shake256_md@?1??EVP_shake256@@9@9 000000000007d190     OpensslLib:m_sha3.obj
 0002:000284c0       ?sha3_224_md@?1??EVP_sha3_224@@9@9 000000000007d1e0     OpensslLib:m_sha3.obj
 0002:00028510       ?sha3_384_md@?1??EVP_sha3_384@@9@9 000000000007d230     OpensslLib:m_sha3.obj
 0002:00028560       ?sha3_256_md@?1??EVP_sha3_256@@9@9 000000000007d280     OpensslLib:m_sha3.obj
 0002:000285b0       ?sha3_512_md@?1??EVP_sha3_512@@9@9 000000000007d2d0     OpensslLib:m_sha3.obj
 0002:00028600       sm3_md                     000000000007d320     OpensslLib:m_sm3.obj
 0002:00028650       md5_sha1_md                000000000007d370     OpensslLib:m_md5_sha1.obj
 0002:00028698       zeroes                     000000000007d3b8     OpensslLib:rsa_pss.obj
 0002:00028730       DHvparams_it               000000000007d450     OpensslLib:dh_asn1.obj
 0002:00028760       DHxparams_seq_tt           000000000007d480     OpensslLib:dh_asn1.obj
 0002:00028830       DHparams_seq_tt            000000000007d550     OpensslLib:dh_asn1.obj
 0002:00028890       DHvparams_seq_tt           000000000007d5b0     OpensslLib:dh_asn1.obj
 0002:000288d0       DHparams_aux               000000000007d5f0     OpensslLib:dh_asn1.obj
 0002:000288f8       DHxparams_it               000000000007d618     OpensslLib:dh_asn1.obj
 0002:00028930       Td2                        000000000007d650     OpensslLib:aes_core.obj
 0002:00028d30       Td1                        000000000007da50     OpensslLib:aes_core.obj
 0002:00029130       Td4                        000000000007de50     OpensslLib:aes_core.obj
 0002:00029130       sb3                        000000000007de50     OpensslLib:aria.obj
 0002:00029230       Td0                        000000000007df50     OpensslLib:aes_core.obj
 0002:00029630       Te0                        000000000007e350     OpensslLib:aes_core.obj
 0002:00029a30       rcon                       000000000007e750     OpensslLib:aes_core.obj
 0002:00029a60       Te3                        000000000007e780     OpensslLib:aes_core.obj
 0002:00029e60       Te2                        000000000007eb80     OpensslLib:aes_core.obj
 0002:0002a260       Td3                        000000000007ef80     OpensslLib:aes_core.obj
 0002:0002a660       Te1                        000000000007f380     OpensslLib:aes_core.obj
 0002:0002aa60       ?CK@?1??SM4_set_key@@9@9   000000000007f780     OpensslLib:sm4.obj
 0002:0002aae0       SM4_S                      000000000007f800     OpensslLib:sm4.obj
 0002:0002abe0       SM4_SBOX_T                 000000000007f900     OpensslLib:sm4.obj
 0002:0002afe0       rem_4bit                   000000000007fd00     OpensslLib:gcm128.obj
 0002:0002b060       sb4                        000000000007fd80     OpensslLib:aria.obj
 0002:0002b160       c3                         000000000007fe80     OpensslLib:aria.obj
 0002:0002b170       c2                         000000000007fe90     OpensslLib:aria.obj
 0002:0002b180       c1                         000000000007fea0     OpensslLib:aria.obj
 0002:0002b190       sb2                        000000000007feb0     OpensslLib:aria.obj
 0002:0002b290       sb1                        000000000007ffb0     OpensslLib:aria.obj
 0002:0002b390       default_aiv                00000000000800b0     OpensslLib:wrap128.obj
 0002:0002b398       default_iv                 00000000000800b8     OpensslLib:wrap128.obj
 0002:0002b420       iotas                      0000000000080140     OpensslLib:keccak1600.obj
 0002:0002b650       dh1024_160_g               0000000000080370     OpensslLib:bn_dh.obj
 0002:0002b6d0       ffdhe4096_p                00000000000803f0     OpensslLib:bn_dh.obj
 0002:0002b8d0       dh2048_256_q               00000000000805f0     OpensslLib:bn_dh.obj
 0002:0002b8f0       ffdhe3072_p                0000000000080610     OpensslLib:bn_dh.obj
 0002:0002ba70       dh2048_256_p               0000000000080790     OpensslLib:bn_dh.obj
 0002:0002bb70       dh2048_256_g               0000000000080890     OpensslLib:bn_dh.obj
 0002:0002bc70       dh2048_224_g               0000000000080990     OpensslLib:bn_dh.obj
 0002:0002bd70       value_2                    0000000000080a90     OpensslLib:bn_dh.obj
 0002:0002bd78       dh2048_224_q               0000000000080a98     OpensslLib:bn_dh.obj
 0002:0002bd98       dh1024_160_q               0000000000080ab8     OpensslLib:bn_dh.obj
 0002:0002bdb0       dh2048_224_p               0000000000080ad0     OpensslLib:bn_dh.obj
 0002:0002beb0       ffdhe8192_p                0000000000080bd0     OpensslLib:bn_dh.obj
 0002:0002c2b0       ffdhe2048_p                0000000000080fd0     OpensslLib:bn_dh.obj
 0002:0002c3b0       ffdhe6144_p                00000000000810d0     OpensslLib:bn_dh.obj
 0002:0002c6b0       dh1024_160_p               00000000000813d0     OpensslLib:bn_dh.obj
 0002:0002c730       primes                     0000000000081450     OpensslLib:bn_prime.obj
 0003:000004cc       allow_customize            000000000008374c     OpensslLib:mem.obj
 0003:000004d0       new_nid                    0000000000083750     OpensslLib:obj_dat.obj
 0003:000004d8       memset_func                0000000000083758     OpensslLib:mem_clr.obj
 0003:000004e0       int_crl_meth               0000000000083760     OpensslLib:x_crl.obj
 0003:00000510       xstandard                  0000000000083790     OpensslLib:v3_purp.obj
 0003:000006c0       trstandard                 0000000000083940     OpensslLib:x509_trs.obj
 0003:00000800       destructor_key             0000000000083a80     OpensslLib:init.obj
 0003:00000810       standard_methods           0000000000083a90     OpensslLib:pmeth_lib.obj
 0003:00000860       standard_methods           0000000000083ae0     OpensslLib:ameth_lib.obj
 0003:000008a0       bignum_pf                  0000000000083b20     OpensslLib:x_bignum.obj
 0003:000008e0       cbignum_pf                 0000000000083b60     OpensslLib:x_bignum.obj
 0003:00000920       uint32_pf                  0000000000083ba0     OpensslLib:x_int64.obj
 0003:00000960       standard_exts              0000000000083be0     OpensslLib:v3_lib.obj
 0003:00000ae0       rsa_pkcs1_ossl_meth        0000000000083d60     OpensslLib:rsa_ossl.obj
 0003:00000b60       dh_ossl                    0000000000083de0     OpensslLib:dh_key.obj
 0003:00000bb0       key_usage_type_table       0000000000083e30     OpensslLib:v3_bitst.obj
 0003:00000ca0       ns_cert_type_table         0000000000083f20     OpensslLib:v3_bitst.obj
 0003:00000d80       crl_reasons                0000000000084000     OpensslLib:v3_enum.obj
 0003:00000e90       tls_feature_tbl            0000000000084110     OpensslLib:v3_tlsf.obj
 0003:00000eb0       drbg_ctr_meth              0000000000084130     OpensslLib:drbg_ctr.obj
 0003:00000ed0       ?c80@?1??ctr_df@@9@9       0000000000084150     OpensslLib:drbg_ctr.obj
 0003:00000fc0       names_lh                   0000000000084240     OpensslLib:o_names.obj
 0003:00000fc8       init                       0000000000084248     OpensslLib:o_names.obj
 0003:00000fd0       obj_lock                   0000000000084250     OpensslLib:o_names.obj
 0003:00000fd8       o_names_init_ossl_ret_     0000000000084258     OpensslLib:o_names.obj
 0003:00000fe0       added                      0000000000084260     OpensslLib:obj_dat.obj
 0003:00000fe8       err_init                   0000000000084268     OpensslLib:err.obj
 0003:00000fec       err_do_init_ossl_ret_      000000000008426c     OpensslLib:err.obj
 0003:00000ff0       param_table                0000000000084270     OpensslLib:x509_vpm.obj
 0003:00000ff8       ?thread_local_key@?1??CRYPTO_THREAD_init_local@@9@9 0000000000084278     OpensslLib:threads_none.obj
 0003:00001000       ex_data_lock               0000000000084280     OpensslLib:ex_data.obj
 0003:00001008       do_ex_data_init_ossl_ret_  0000000000084288     OpensslLib:ex_data.obj
 0003:0000100c       ex_data_init               000000000008428c     OpensslLib:ex_data.obj
 0003:00001010       xptable                    0000000000084290     OpensslLib:v3_purp.obj
 0003:00001018       trtable                    0000000000084298     OpensslLib:x509_trs.obj
 0003:00001020       add_all_digests            00000000000842a0     OpensslLib:init.obj
 0003:00001024       ossl_init_load_crypto_strings_ossl_ret_ 00000000000842a4     OpensslLib:init.obj
 0003:00001028       ossl_init_base_ossl_ret_   00000000000842a8     OpensslLib:init.obj
 0003:0000102c       ossl_init_config_ossl_ret_ 00000000000842ac     OpensslLib:init.obj
 0003:00001030       init_lock                  00000000000842b0     OpensslLib:init.obj
 0003:00001038       register_atexit            00000000000842b8     OpensslLib:init.obj
 0003:00001040       conf_settings              00000000000842c0     OpensslLib:init.obj
 0003:00001048       ossl_init_async_ossl_ret_  00000000000842c8     OpensslLib:init.obj
 0003:0000104c       ossl_init_zlib_ossl_ret_   00000000000842cc     OpensslLib:init.obj
 0003:00001050       zlib                       00000000000842d0     OpensslLib:init.obj
 0003:00001054       ossl_init_register_atexit_ossl_ret_ 00000000000842d4     OpensslLib:init.obj
 0003:00001058       add_all_ciphers            00000000000842d8     OpensslLib:init.obj
 0003:0000105c       ossl_init_load_crypto_nodelete_ossl_ret_ 00000000000842dc     OpensslLib:init.obj
 0003:00001060       config                     00000000000842e0     OpensslLib:init.obj
 0003:00001064       load_crypto_nodelete       00000000000842e4     OpensslLib:init.obj
 0003:00001068       async                      00000000000842e8     OpensslLib:init.obj
 0003:0000106c       ossl_init_add_all_ciphers_ossl_ret_ 00000000000842ec     OpensslLib:init.obj
 0003:00001070       stopped                    00000000000842f0     OpensslLib:init.obj
 0003:00001074       load_crypto_strings        00000000000842f4     OpensslLib:init.obj
 0003:00001078       ossl_init_add_all_digests_ossl_ret_ 00000000000842f8     OpensslLib:init.obj
 0003:0000107c       base                       00000000000842fc     OpensslLib:init.obj
 0003:00001080       app_pkey_methods           0000000000084300     OpensslLib:pmeth_lib.obj
 0003:00001088       app_methods                0000000000084308     OpensslLib:ameth_lib.obj
 0003:00001090       stable                     0000000000084310     OpensslLib:a_strnid.obj
 0003:00001098       supported_modules          0000000000084318     OpensslLib:conf_mod.obj
 0003:000010a0       ext_list                   0000000000084320     OpensslLib:v3_lib.obj
 0003:000010a8       rand_init                  0000000000084328     OpensslLib:rand_lib.obj
 0003:000010ac       do_rand_init_ossl_ret_     000000000008432c     OpensslLib:rand_lib.obj
 0003:000010b0       openssl_configured         0000000000084330     OpensslLib:conf_sap.obj
 0003:000010b4       do_rand_drbg_init_ossl_ret_ 0000000000084334     OpensslLib:drbg_lib.obj
 0003:000010b8       rand_drbg_init             0000000000084338     OpensslLib:drbg_lib.obj
 0003:000010bc       rand_drbg_flags            000000000008433c     OpensslLib:drbg_lib.obj
 0003:000010c0       ?zeros@?1??CRYPTO_128_unwrap_pad@@9@9 0000000000084340     OpensslLib:wrap128.obj
 0003:000010e0       free_type                  0000000000084360     OpensslLib:o_names.obj
 0003:000010e4       err_thread_local           0000000000084364     OpensslLib:err.obj
 0003:000010e8       name_funcs_stack           0000000000084368     OpensslLib:o_names.obj
 0003:000010f0       err_string_lock            0000000000084370     OpensslLib:err.obj
 0003:000010f8       pbe_algs                   0000000000084378     OpensslLib:evp_pbe.obj
 0003:00001100       thread_local_storage       0000000000084380     OpensslLib:threads_none.obj
 0003:00001900       ex_data                    0000000000084b80     OpensslLib:ex_data.obj
 0003:00001980       sig_app                    0000000000084c00     OpensslLib:obj_xref.obj
 0003:00001988       ?nilbn@?1??bn_init@@9@9    0000000000084c08     OpensslLib:bn_lib.obj
 0003:000019a0       rand_nonce_count           0000000000084c20     OpensslLib:rand_lib.obj
 0003:000019a4       ctxkey                     0000000000084c24     OpensslLib:async.obj
 0003:000019a8       default_RAND_meth          0000000000084c28     OpensslLib:rand_lib.obj
 0003:000019b0       rand_nonce_lock            0000000000084c30     OpensslLib:rand_lib.obj
 0003:000019b8       rand_meth_lock             0000000000084c38     OpensslLib:rand_lib.obj
 0003:000019c0       poolkey                    0000000000084c40     OpensslLib:async.obj
 0003:000019c4       private_drbg               0000000000084c44     OpensslLib:drbg_lib.obj
 0003:000019c8       public_drbg                0000000000084c48     OpensslLib:drbg_lib.obj
 0003:000019d0       master_drbg                0000000000084c50     OpensslLib:drbg_lib.obj
 0003:000019d8       ?tntmp@?1??asn1_str2tag@@9@9 0000000000084c58     OpensslLib:asn1_gen.obj
 0003:000019e0       ?m@?1??HMAC@@9@9           0000000000084c60     OpensslLib:hmac.obj
 0003:00001a20       ssl_names_count            0000000000084ca0     OpensslLib:conf_ssl.obj
 0003:00001a28       ssl_names                  0000000000084ca8     OpensslLib:conf_ssl.obj
 0005:00000000       $unwind$ASN1_ENUMERATED_get 00000000000880a0     OpensslLib:a_int.obj
 0005:00000000       $unwind$ASN1_INTEGER_get   00000000000880a0     OpensslLib:a_int.obj
 0005:00000000       $unwind$asn1_string_set_int64 00000000000880a0     OpensslLib:a_int.obj
 0005:00000000       $unwind$st_free            00000000000880a0     OpensslLib:a_strnid.obj
 0005:00000000       $unwind$stbl_module_finish 00000000000880a0     OpensslLib:asn_mstbl.obj
 0005:00000000       $unwind$ASN1_TYPE_free     00000000000880a0     OpensslLib:tasn_typ.obj
 0005:00000000       $unwind$X509_ALGOR_free    00000000000880a0     OpensslLib:x_algor.obj
 0005:00000000       $unwind$BN_GENCB_call      00000000000880a0     OpensslLib:bn_prime.obj
 0005:00000000       $unwind$int_dh_size        00000000000880a0     OpensslLib:dh_ameth.obj
 0005:00000000       $unwind$dh_finish          00000000000880a0     OpensslLib:dh_key.obj
 0005:00000000       $unwind$ERR_set_mark       00000000000880a0     OpensslLib:err.obj
 0005:00000000       $unwind$md_gets            00000000000880a0     OpensslLib:bio_md.obj
 0005:00000000       $unwind$aria_gcm_cleanup   00000000000880a0     OpensslLib:e_aria.obj
 0005:00000000       $unwind$sm4_init_key       00000000000880a0     OpensslLib:e_sm4.obj
 0005:00000000       $unwind$EVP_CIPHER_CTX_iv_length 00000000000880a0     OpensslLib:evp_lib.obj
 0005:00000000       $unwind$hmac_get_priv_key  00000000000880a0     OpensslLib:hm_ameth.obj
 0005:00000000       $unwind$int_update         00000000000880a0     OpensslLib:hm_pmeth.obj
 0005:00000000       $unwind$ossl_init_add_all_digests_ossl_ 00000000000880a0     OpensslLib:init.obj
 0005:00000000       $unwind$ossl_init_config_ossl_ 00000000000880a0     OpensslLib:init.obj
 0005:00000000       $unwind$openssl_lh_strcasehash 00000000000880a0     OpensslLib:lhash.obj
 0005:00000000       $unwind$o_names_init_ossl_ 00000000000880a0     OpensslLib:o_names.obj
 0005:00000000       $unwind$obj_name_cmp       00000000000880a0     OpensslLib:o_names.obj
 0005:00000000       $unwind$added_obj_cmp      00000000000880a0     OpensslLib:obj_dat.obj
 0005:00000000       $unwind$obj_cmp_BSEARCH_CMP_FN 00000000000880a0     OpensslLib:obj_dat.obj
 0005:00000000       $unwind$i2r_object         00000000000880a0     OpensslLib:v3_ocsp.obj
 0005:00000000       $unwind$i2r_ocsp_acutoff   00000000000880a0     OpensslLib:v3_ocsp.obj
 0005:00000000       $unwind$i2r_ocsp_nonce     00000000000880a0     OpensslLib:v3_ocsp.obj
 0005:00000000       $unwind$PKCS7_free         00000000000880a0     OpensslLib:pk7_asn1.obj
 0005:00000000       $unwind$ri_cb              00000000000880a0     OpensslLib:pk7_asn1.obj
 0005:00000000       $unwind$si_cb              00000000000880a0     OpensslLib:pk7_asn1.obj
 0005:00000000       $unwind$RAND_DRBG_get0_master 00000000000880a0     OpensslLib:drbg_lib.obj
 0005:00000000       $unwind$drbg_status        00000000000880a0     OpensslLib:drbg_lib.obj
 0005:00000000       $unwind$RAND_get_rand_method 00000000000880a0     OpensslLib:rand_lib.obj
 0005:00000000       $unwind$int_rsa_size       00000000000880a0     OpensslLib:rsa_ameth.obj
 0005:00000000       $unwind$rsa_pss_cb         00000000000880a0     OpensslLib:rsa_asn1.obj
 0005:00000000       $unwind$int_update         00000000000880a0     OpensslLib:siphash_pmeth.obj
 0005:00000000       $unwind$x509_object_cmp    00000000000880a0     OpensslLib:x509_lu.obj
 0005:00000000       $unwind$X509_ATTRIBUTE_free 00000000000880a0     OpensslLib:x_attrib.obj
 0005:00000000       $unwind$X509_CRL_free      00000000000880a0     OpensslLib:x_crl.obj
 0005:00000000       $unwind$X509_NAME_ENTRY_free 00000000000880a0     OpensslLib:x_name.obj
 0005:00000000       $unwind$X509_free          00000000000880a0     OpensslLib:x_x509.obj
 0005:00000000       $unwind$policy_data_cmp    00000000000880a0     OpensslLib:pcy_cache.obj
 0005:00000000       $unwind$node_cmp           00000000000880a0     OpensslLib:pcy_node.obj
 0005:00000000       $unwind$exnode_free        00000000000880a0     OpensslLib:pcy_tree.obj
 0005:00000000       $unwind$POLICYINFO_free    00000000000880a0     OpensslLib:v3_cpols.obj
 0005:00000000       $unwind$POLICYQUALINFO_free 00000000000880a0     OpensslLib:v3_cpols.obj
 0005:00000000       $unwind$DIST_POINT_free    00000000000880a0     OpensslLib:v3_crld.obj
 0005:00000000       $unwind$dpn_cb             00000000000880a0     OpensslLib:v3_crld.obj
 0005:00000000       $unwind$GENERAL_NAMES_free 00000000000880a0     OpensslLib:v3_genn.obj
 0005:00000000       $unwind$GENERAL_NAME_free  00000000000880a0     OpensslLib:v3_genn.obj
 0005:00000000       $unwind$ACCESS_DESCRIPTION_free 00000000000880a0     OpensslLib:v3_info.obj
 0005:00000000       $unwind$POLICY_MAPPING_free 00000000000880a0     OpensslLib:v3_pmaps.obj
 0005:00000000       $unwind$check_purpose_crl_sign 00000000000880a0     OpensslLib:v3_purp.obj
 0005:00000000       $unwind$check_purpose_smime_encrypt 00000000000880a0     OpensslLib:v3_purp.obj
 0005:00000000       $unwind$check_purpose_smime_sign 00000000000880a0     OpensslLib:v3_purp.obj
 0005:00000000       $unwind$check_purpose_ssl_client 00000000000880a0     OpensslLib:v3_purp.obj
 0005:00000000       $unwind$check_purpose_ssl_server 00000000000880a0     OpensslLib:v3_purp.obj
 0005:00000000       $unwind$purpose_smime      00000000000880a0     OpensslLib:v3_purp.obj
 0005:00000000       $unwind$GetHobList         00000000000880a0     DxeHobLib:HobLib.obj
 0005:00000000       $unwind$GetPcdProtocol     00000000000880a0     DxePcdLib:DxePcdLib.obj
 0005:00000000       $unwind$_ModuleEntryPoint  00000000000880a0     UefiDriverEntryPoint:DriverEntryPoint.obj
 0005:00000000       $unwind$AllocatePool       00000000000880a0     UefiMemoryAllocationLib:MemoryAllocationLib.obj
 0005:00000000       $unwind$FreePool           00000000000880a0     UefiMemoryAllocationLib:MemoryAllocationLib.obj
 0005:00000008       $unwind$ProcessLibraryConstructorList 00000000000880a8     SecurityStubDxe:AutoGen.obj
 0005:0000001c       $unwind$asn1_get_uint64    00000000000880bc     OpensslLib:a_int.obj
 0005:0000001c       $unwind$bitstr_cb          00000000000880bc     OpensslLib:asn1_gen.obj
 0005:0000001c       $unwind$parse_tagging      00000000000880bc     OpensslLib:asn1_gen.obj
 0005:0000001c       $unwind$BN_CTX_new         00000000000880bc     OpensslLib:bn_ctx.obj
 0005:0000001c       $unwind$BN_mod_exp         00000000000880bc     OpensslLib:bn_exp.obj
 0005:0000001c       $unwind$BN_new             00000000000880bc     OpensslLib:bn_lib.obj
 0005:0000001c       $unwind$BN_MONT_CTX_new    00000000000880bc     OpensslLib:bn_mont.obj
 0005:0000001c       $unwind$BUF_MEM_new        00000000000880bc     OpensslLib:buffer.obj
 0005:0000001c       $unwind$DH_new_by_nid      00000000000880bc     OpensslLib:dh_rfc7919.obj
 0005:0000001c       $unwind$aria_init_key      00000000000880bc     OpensslLib:e_aria.obj
 0005:0000001c       $unwind$EVP_CIPHER_CTX_ctrl 00000000000880bc     OpensslLib:evp_enc.obj
 0005:0000001c       $unwind$EVP_CIPHER_CTX_set_key_length 00000000000880bc     OpensslLib:evp_enc.obj
 0005:0000001c       $unwind$update             00000000000880bc     OpensslLib:m_sigver.obj
 0005:0000001c       $unwind$EVP_PKEY_verify    00000000000880bc     OpensslLib:pmeth_fn.obj
 0005:0000001c       $unwind$pkey_hmac_ctrl     00000000000880bc     OpensslLib:hm_pmeth.obj
 0005:0000001c       $unwind$ctr_BCC_block      00000000000880bc     OpensslLib:drbg_ctr.obj
 0005:0000001c       $unwind$rand_pool_add_end  00000000000880bc     OpensslLib:rand_lib.obj
 0005:0000001c       $unwind$RSA_pkey_ctx_ctrl  00000000000880bc     OpensslLib:rsa_lib.obj
 0005:0000001c       $unwind$check_padding_md   00000000000880bc     OpensslLib:rsa_pmeth.obj
 0005:0000001c       $unwind$siphash_signctx_init 00000000000880bc     OpensslLib:siphash_pmeth.obj
 0005:0000001c       $unwind$X509_OBJECT_new    00000000000880bc     OpensslLib:x509_lu.obj
 0005:0000001c       $unwind$def_crl_verify     00000000000880bc     OpensslLib:x_crl.obj
 0005:0000001c       $unwind$GENERAL_NAME_print 00000000000880bc     OpensslLib:v3_alt.obj
 0005:0000001c       $unwind$X509V3_get_section 00000000000880bc     OpensslLib:v3_conf.obj
 0005:0000001c       $unwind$ProcessModuleEntryPointList 00000000000880bc     SecurityStubDxe:AutoGen.obj
 0005:0000001c       $unwind$DevPathToTextAtapi 00000000000880bc     UefiDevicePathLib:DevicePathToText.obj
 0005:0000001c       $unwind$DevPathToTextCDROM 00000000000880bc     UefiDevicePathLib:DevicePathToText.obj
 0005:0000001c       $unwind$DevPathToTextMemMap 00000000000880bc     UefiDevicePathLib:DevicePathToText.obj
 0005:0000001c       $unwind$DevPathToTextSata  00000000000880bc     UefiDevicePathLib:DevicePathToText.obj
 0005:00000024       $unwind$time               00000000000880c4     BaseCryptLib:TimerWrapper.obj
 0005:00000024       $unwind$ASN1_item_digest   00000000000880c4     OpensslLib:a_digest.obj
 0005:00000024       $unwind$ASN1_item_dup      00000000000880c4     OpensslLib:a_dup.obj
 0005:00000024       $unwind$asn1_template_new  00000000000880c4     OpensslLib:tasn_new.obj
 0005:00000024       $unwind$asn1_do_adb        00000000000880c4     OpensslLib:tasn_utl.obj
 0005:00000024       $unwind$asn1_do_lock       00000000000880c4     OpensslLib:tasn_utl.obj
 0005:00000024       $unwind$BIO_new_mem_buf    00000000000880c4     OpensslLib:bss_mem.obj
 0005:00000024       $unwind$BN_BLINDING_new    00000000000880c4     OpensslLib:bn_blind.obj
 0005:00000024       $unwind$BN_POOL_get        00000000000880c4     OpensslLib:bn_ctx.obj
 0005:00000024       $unwind$BN_div             00000000000880c4     OpensslLib:bn_div.obj
 0005:00000024       $unwind$BN_nnmod           00000000000880c4     OpensslLib:bn_mod.obj
 0005:00000024       $unwind$pkey_dh_keygen     00000000000880c4     OpensslLib:dh_pmeth.obj
 0005:00000024       $unwind$enc_new            00000000000880c4     OpensslLib:bio_enc.obj
 0005:00000024       $unwind$aes_init_key       00000000000880c4     OpensslLib:e_aes.obj
 0005:00000024       $unwind$aes_xts_cipher     00000000000880c4     OpensslLib:e_aes.obj
 0005:00000024       $unwind$EVP_CIPHER_CTX_copy 00000000000880c4     OpensslLib:evp_enc.obj
 0005:00000024       $unwind$EVP_DecryptFinal_ex 00000000000880c4     OpensslLib:evp_enc.obj
 0005:00000024       $unwind$EVP_CIPHER_param_to_asn1 00000000000880c4     OpensslLib:evp_lib.obj
 0005:00000024       $unwind$EVP_PKEY_copy_parameters 00000000000880c4     OpensslLib:p_lib.obj
 0005:00000024       $unwind$EVP_PKEY_CTX_dup   00000000000880c4     OpensslLib:pmeth_lib.obj
 0005:00000024       $unwind$pkey_hmac_init     00000000000880c4     OpensslLib:hm_pmeth.obj
 0005:00000024       $unwind$CRYPTO_memdup      00000000000880c4     OpensslLib:o_str.obj
 0005:00000024       $unwind$OPENSSL_buf2hexstr 00000000000880c4     OpensslLib:o_str.obj
 0005:00000024       $unwind$OBJ_dup            00000000000880c4     OpensslLib:obj_lib.obj
 0005:00000024       $unwind$drbg_setup         00000000000880c4     OpensslLib:drbg_lib.obj
 0005:00000024       $unwind$rand_drbg_new      00000000000880c4     OpensslLib:drbg_lib.obj
 0005:00000024       $unwind$RAND_bytes         00000000000880c4     OpensslLib:rand_lib.obj
 0005:00000024       $unwind$rand_pool_add      00000000000880c4     OpensslLib:rand_lib.obj
 0005:00000024       $unwind$rand_pool_bytes_needed 00000000000880c4     OpensslLib:rand_lib.obj
 0005:00000024       $unwind$rsa_item_verify    00000000000880c4     OpensslLib:rsa_ameth.obj
 0005:00000024       $unwind$pkey_siphash_ctrl  00000000000880c4     OpensslLib:siphash_pmeth.obj
 0005:00000024       $unwind$OPENSSL_sk_dup     00000000000880c4     OpensslLib:stack.obj
 0005:00000024       $unwind$sk_reserve         00000000000880c4     OpensslLib:stack.obj
 0005:00000024       $unwind$X509_STORE_new     00000000000880c4     OpensslLib:x509_lu.obj
 0005:00000024       $unwind$X509_verify_cert   00000000000880c4     OpensslLib:x509_vfy.obj
 0005:00000024       $unwind$x509_name_ex_new   00000000000880c4     OpensslLib:x_name.obj
 0005:00000024       $unwind$i2s_ASN1_IA5STRING 00000000000880c4     OpensslLib:v3_ia5.obj
 0005:00000024       $unwind$s2i_ASN1_IA5STRING 00000000000880c4     OpensslLib:v3_ia5.obj
 0005:00000024       $unwind$i2s_ASN1_INTEGER   00000000000880c4     OpensslLib:v3_utl.obj
 0005:00000024       $unwind$SecurityStubAuthenticateState 00000000000880c4     SecurityStubDxe:SecurityStub.obj
 0005:00000024       $unwind$DevPathToTextHardDrive 00000000000880c4     UefiDevicePathLib:DevicePathToText.obj
 0005:00000024       $unwind$GetEfiGlobalVariable2 00000000000880c4     UefiLib:UefiLib.obj
 0005:00000030       $unwind$BN_BLINDING_convert_ex 00000000000880d0     OpensslLib:bn_blind.obj
 0005:00000030       $unwind$BN_BLINDING_invert_ex 00000000000880d0     OpensslLib:bn_blind.obj
 0005:00000030       $unwind$BN_BLINDING_update 00000000000880d0     OpensslLib:bn_blind.obj
 0005:00000030       $unwind$BN_STACK_push      00000000000880d0     OpensslLib:bn_ctx.obj
 0005:00000030       $unwind$bnrand_range       00000000000880d0     OpensslLib:bn_rand.obj
 0005:00000030       $unwind$pkey_cmac_ctrl_str 00000000000880d0     OpensslLib:cm_pmeth.obj
 0005:00000030       $unwind$module_add         00000000000880d0     OpensslLib:conf_mod.obj
 0005:00000030       $unwind$aria_ccm_init_key  00000000000880d0     OpensslLib:e_aria.obj
 0005:00000030       $unwind$aria_gcm_init_key  00000000000880d0     OpensslLib:e_aria.obj
 0005:00000030       $unwind$EVP_EncryptFinal_ex 00000000000880d0     OpensslLib:evp_enc.obj
 0005:00000030       $unwind$EVP_CIPHER_get_asn1_iv 00000000000880d0     OpensslLib:evp_lib.obj
 0005:00000030       $unwind$EVP_PKEY_sign      00000000000880d0     OpensslLib:pmeth_fn.obj
 0005:00000030       $unwind$OBJ_create         00000000000880d0     OpensslLib:obj_dat.obj
 0005:00000030       $unwind$d2i_ocsp_nonce     00000000000880d0     OpensslLib:v3_ocsp.obj
 0005:00000030       $unwind$RAND_DRBG_set      00000000000880d0     OpensslLib:drbg_lib.obj
 0005:00000030       $unwind$drbg_bytes         00000000000880d0     OpensslLib:drbg_lib.obj
 0005:00000030       $unwind$rand_pool_grow     00000000000880d0     OpensslLib:rand_lib.obj
 0005:00000030       $unwind$X509_STORE_CTX_init 00000000000880d0     OpensslLib:x509_vfy.obj
 0005:00000030       $unwind$X509_get_pubkey_parameters 00000000000880d0     OpensslLib:x509_vfy.obj
 0005:00000030       $unwind$policy_data_new    00000000000880d0     OpensslLib:pcy_data.obj
 0005:00000030       $unwind$gnames_from_sectname 00000000000880d0     OpensslLib:v3_crld.obj
 0005:00000030       $unwind$equal_email        00000000000880d0     OpensslLib:v3_utl.obj
 0005:00000030       $unwind$Security2StubAuthenticate 00000000000880d0     SecurityStubDxe:SecurityStub.obj
 0005:00000030       $unwind$UnicodeVSPrint     00000000000880d0     BasePrintLib:PrintLib.obj
 0005:00000030       $unwind$DevPathToTextSasEx 00000000000880d0     UefiDevicePathLib:DevicePathToText.obj
 0005:00000044       $unwind$i2c_ASN1_BIT_STRING 00000000000880e4     OpensslLib:a_bitstr.obj
 0005:00000044       $unwind$mem_ctrl           00000000000880e4     OpensslLib:bss_mem.obj
 0005:00000044       $unwind$BN_mul_word        00000000000880e4     OpensslLib:bn_word.obj
 0005:00000044       $unwind$cmac_signctx       00000000000880e4     OpensslLib:cm_pmeth.obj
 0005:00000044       $unwind$ssl_module_free    00000000000880e4     OpensslLib:conf_ssl.obj
 0005:00000044       $unwind$DH_check_params    00000000000880e4     OpensslLib:dh_check.obj
 0005:00000044       $unwind$EVP_CIPHER_set_asn1_iv 00000000000880e4     OpensslLib:evp_lib.obj
 0005:00000044       $unwind$sha3_update        00000000000880e4     OpensslLib:m_sha3.obj
 0005:00000044       $unwind$expand             00000000000880e4     OpensslLib:lhash.obj
 0005:00000044       $unwind$MD5_Final          00000000000880e4     OpensslLib:md5_dgst.obj
 0005:00000044       $unwind$MD5_Update         00000000000880e4     OpensslLib:md5_dgst.obj
 0005:00000044       $unwind$CRYPTO_realloc     00000000000880e4     OpensslLib:mem.obj
 0005:00000044       $unwind$SHA3_absorb        00000000000880e4     OpensslLib:keccak1600.obj
 0005:00000044       $unwind$SHA1_Update        00000000000880e4     OpensslLib:sha1dgst.obj
 0005:00000044       $unwind$SHA256_Update      00000000000880e4     OpensslLib:sha256.obj
 0005:00000044       $unwind$SHA512_Update      00000000000880e4     OpensslLib:sha512.obj
 0005:00000044       $unwind$update             00000000000880e4     OpensslLib:m_sm3.obj
 0005:00000044       $unwind$sm3_final          00000000000880e4     OpensslLib:sm3.obj
 0005:00000044       $unwind$dane_verify        00000000000880e4     OpensslLib:x509_vfy.obj
 0005:00000044       $unwind$internal_verify    00000000000880e4     OpensslLib:x509_vfy.obj
 0005:00000044       $unwind$X509_VERIFY_PARAM_inherit 00000000000880e4     OpensslLib:x509_vpm.obj
 0005:00000044       $unwind$i2v_GENERAL_NAMES  00000000000880e4     OpensslLib:v3_alt.obj
 0005:00000044       $unwind$i2r_crldp          00000000000880e4     OpensslLib:v3_crld.obj
 0005:00000044       $unwind$SXNET_get_id_INTEGER 00000000000880e4     OpensslLib:v3_sxnet.obj
 0005:00000044       $unwind$SerialPortInitialize 00000000000880e4     BaseSerialPortLib16550:BaseSerialPortLib16550.obj
 0005:00000044       $unwind$LookupImage        00000000000880e4     SecurityStubDxe:Defer3rdPartyImageLoad.obj
 0005:00000044       $unwind$AppendDevicePath   00000000000880e4     UefiDevicePathLib:UefiDevicePathLib.obj
 0005:00000044       $unwind$EfiGetSystemConfigurationTable 00000000000880e4     UefiLib:UefiLib.obj
 0005:00000044       $unwind$IsDataMeasured     00000000000880e4     DxeImageVerificationLib:Measurement.obj
 0005:00000044       $unwind$SecureBootHook     00000000000880e4     DxeImageVerificationLib:Measurement.obj
 0005:0000005c       $unwind$gmtime             00000000000880fc     BaseCryptLib:TimerWrapper.obj
 0005:0000005c       $unwind$bn_lshift_fixed_top 00000000000880fc     OpensslLib:bn_shift.obj
 0005:0000005c       $unwind$bn_rshift_fixed_top 00000000000880fc     OpensslLib:bn_shift.obj
 0005:0000005c       $unwind$aes_gcm_tls_cipher 00000000000880fc     OpensslLib:e_aes.obj
 0005:0000005c       $unwind$aria_gcm_tls_cipher 00000000000880fc     OpensslLib:e_aria.obj
 0005:0000005c       $unwind$CRYPTO_ctr128_encrypt 00000000000880fc     OpensslLib:ctr128.obj
 0005:0000005c       $unwind$CRYPTO_gcm128_aad  00000000000880fc     OpensslLib:gcm128.obj
 0005:0000005c       $unwind$rsa_pss_param_print 00000000000880fc     OpensslLib:rsa_ameth.obj
 0005:0000005c       $unwind$rsa_get_public_exp 00000000000880fc     OpensslLib:rsa_crpt.obj
 0005:0000005c       $unwind$SipHash_Update     00000000000880fc     OpensslLib:siphash.obj
 0005:0000005c       $unwind$check_auth_level   00000000000880fc     OpensslLib:x509_vfy.obj
 0005:0000005c       $unwind$crl_akid_check     00000000000880fc     OpensslLib:x509_vfy.obj
 0005:0000005c       $unwind$X509_VERIFY_PARAM_set1_policies 00000000000880fc     OpensslLib:x509_vpm.obj
 0005:0000005c       $unwind$X509V3_get_d2i     00000000000880fc     OpensslLib:v3_lib.obj
 0005:0000005c       $unwind$GetDefferedImageInfo 00000000000880fc     SecurityStubDxe:Defer3rdPartyImageLoad.obj
 0005:00000078       $unwind$asn1_string_to_bn  0000000000088118     OpensslLib:a_int.obj
 0005:00000078       $unwind$ASN1_TYPE_unpack_sequence 0000000000088118     OpensslLib:a_type.obj
 0005:00000078       $unwind$ASN1_generate_v3   0000000000088118     OpensslLib:asn1_gen.obj
 0005:00000078       $unwind$append_exp         0000000000088118     OpensslLib:asn1_gen.obj
 0005:00000078       $unwind$ASN1_STRING_type_new 0000000000088118     OpensslLib:asn1_lib.obj
 0005:00000078       $unwind$uint32_new         0000000000088118     OpensslLib:x_int64.obj
 0005:00000078       $unwind$uint64_new         0000000000088118     OpensslLib:x_int64.obj
 0005:00000078       $unwind$BN_CTX_get         0000000000088118     OpensslLib:bn_ctx.obj
 0005:00000078       $unwind$BN_CTX_start       0000000000088118     OpensslLib:bn_ctx.obj
 0005:00000078       $unwind$BN_lshift          0000000000088118     OpensslLib:bn_shift.obj
 0005:00000078       $unwind$BN_rshift          0000000000088118     OpensslLib:bn_shift.obj
 0005:00000078       $unwind$pkey_cmac_ctrl     0000000000088118     OpensslLib:cm_pmeth.obj
 0005:00000078       $unwind$CMAC_CTX_new       0000000000088118     OpensslLib:cmac.obj
 0005:00000078       $unwind$dh_param_decode    0000000000088118     OpensslLib:dh_ameth.obj
 0005:00000078       $unwind$dh_pkey_public_check 0000000000088118     OpensslLib:dh_ameth.obj
 0005:00000078       $unwind$dh_bn_mod_exp      0000000000088118     OpensslLib:dh_key.obj
 0005:00000078       $unwind$pkey_dh_init       0000000000088118     OpensslLib:dh_pmeth.obj
 0005:00000078       $unwind$aes_cbc_cipher     0000000000088118     OpensslLib:e_aes.obj
 0005:00000078       $unwind$EVP_PKEY_new       0000000000088118     OpensslLib:p_lib.obj
 0005:00000078       $unwind$EVP_PKEY_sign_init 0000000000088118     OpensslLib:pmeth_fn.obj
 0005:00000078       $unwind$EVP_PKEY_verify_init 0000000000088118     OpensslLib:pmeth_fn.obj
 0005:00000078       $unwind$EVP_PKEY_CTX_ctrl  0000000000088118     OpensslLib:pmeth_lib.obj
 0005:00000078       $unwind$hmac_signctx       0000000000088118     OpensslLib:hm_pmeth.obj
 0005:00000078       $unwind$pkey_hkdf_init     0000000000088118     OpensslLib:hkdf.obj
 0005:00000078       $unwind$pkey_tls1_prf_init 0000000000088118     OpensslLib:tls1_prf.obj
 0005:00000078       $unwind$PKCS7_ctrl         0000000000088118     OpensslLib:pk7_lib.obj
 0005:00000078       $unwind$rand_pool_add_begin 0000000000088118     OpensslLib:rand_lib.obj
 0005:00000078       $unwind$old_rsa_priv_decode 0000000000088118     OpensslLib:rsa_ameth.obj
 0005:00000078       $unwind$rsa_multip_info_new 0000000000088118     OpensslLib:rsa_mp.obj
 0005:00000078       $unwind$RSA_padding_check_PKCS1_type_1 0000000000088118     OpensslLib:rsa_pk1.obj
 0005:00000078       $unwind$setup_tbuf         0000000000088118     OpensslLib:rsa_pmeth.obj
 0005:00000078       $unwind$pkey_siphash_init  0000000000088118     OpensslLib:siphash_pmeth.obj
 0005:00000078       $unwind$x509_name_ex_print 0000000000088118     OpensslLib:x_name.obj
 0005:00000078       $unwind$X509_PUBKEY_get0   0000000000088118     OpensslLib:x_pubkey.obj
 0005:00000078       $unwind$InternalReportStatusCode 0000000000088118     DxeReportStatusCodeLib:ReportStatusCodeLib.obj
 0005:00000078       $unwind$DxeSmmReadyToLock  0000000000088118     SecurityStubDxe:Defer3rdPartyImageLoad.obj
 0005:00000078       $unwind$EfiCreateEventReadyToBootEx 0000000000088118     UefiLib:UefiNotTiano.obj
 0005:00000080       $unwind$Defer3rdPartyImageLoad 0000000000088120     SecurityStubDxe:Defer3rdPartyImageLoad.obj
 0005:00000090       $unwind$Defer3rdPartyImageLoadInitialize 0000000000088130     SecurityStubDxe:Defer3rdPartyImageLoad.obj
 0005:00000098       $unwind$strncasecmp        0000000000088138     BaseCryptLib:CrtWrapper.obj
 0005:00000098       $unwind$asn1_str2tag       0000000000088138     OpensslLib:asn1_gen.obj
 0005:00000098       $unwind$mask_cb            0000000000088138     OpensslLib:asn1_gen.obj
 0005:00000098       $unwind$ASN1_STRING_set0   0000000000088138     OpensslLib:asn1_lib.obj
 0005:00000098       $unwind$bn_c2i             0000000000088138     OpensslLib:x_bignum.obj
 0005:00000098       $unwind$bn_i2c             0000000000088138     OpensslLib:x_bignum.obj
 0005:00000098       $unwind$mem_init           0000000000088138     OpensslLib:bss_mem.obj
 0005:00000098       $unwind$mem_read           0000000000088138     OpensslLib:bss_mem.obj
 0005:00000098       $unwind$BN_add             0000000000088138     OpensslLib:bn_add.obj
 0005:00000098       $unwind$BN_sub             0000000000088138     OpensslLib:bn_add.obj
 0005:00000098       $unwind$BN_sub_word        0000000000088138     OpensslLib:bn_word.obj
 0005:00000098       $unwind$sec_alloc_realloc  0000000000088138     OpensslLib:buffer.obj
 0005:00000098       $unwind$pkey_cmac_keygen   0000000000088138     OpensslLib:cm_pmeth.obj
 0005:00000098       $unwind$CMAC_CTX_copy      0000000000088138     OpensslLib:cmac.obj
 0005:00000098       $unwind$dh_cmp_parameters  0000000000088138     OpensslLib:dh_ameth.obj
 0005:00000098       $unwind$dh_copy_parameters 0000000000088138     OpensslLib:dh_ameth.obj
 0005:00000098       $unwind$int_dh_param_copy  0000000000088138     OpensslLib:dh_ameth.obj
 0005:00000098       $unwind$d2i_DHxparams      0000000000088138     OpensslLib:dh_asn1.obj
 0005:00000098       $unwind$pkey_dh_ctrl       0000000000088138     OpensslLib:dh_pmeth.obj
 0005:00000098       $unwind$err_set_error_data_int 0000000000088138     OpensslLib:err.obj
 0005:00000098       $unwind$enc_free           0000000000088138     OpensslLib:bio_enc.obj
 0005:00000098       $unwind$EVP_DigestFinal_ex 0000000000088138     OpensslLib:digest.obj
 0005:00000098       $unwind$aes_gcm_init_key   0000000000088138     OpensslLib:e_aes.obj
 0005:00000098       $unwind$update             0000000000088138     OpensslLib:m_md5_sha1.obj
 0005:00000098       $unwind$EVP_PKEY_CTX_hex2ctrl 0000000000088138     OpensslLib:pmeth_lib.obj
 0005:00000098       $unwind$pkey_hmac_cleanup  0000000000088138     OpensslLib:hm_pmeth.obj
 0005:00000098       $unwind$pkey_hmac_copy     0000000000088138     OpensslLib:hm_pmeth.obj
 0005:00000098       $unwind$pkey_hmac_ctrl_str 0000000000088138     OpensslLib:hm_pmeth.obj
 0005:00000098       $unwind$OPENSSL_LH_new     0000000000088138     OpensslLib:lhash.obj
 0005:00000098       $unwind$CRYPTO_strndup     0000000000088138     OpensslLib:o_str.obj
 0005:00000098       $unwind$drbg_ctr_uninstantiate 0000000000088138     OpensslLib:drbg_ctr.obj
 0005:00000098       $unwind$rsa_md_to_algor    0000000000088138     OpensslLib:rsa_ameth.obj
 0005:00000098       $unwind$rsa_cb             0000000000088138     OpensslLib:rsa_asn1.obj
 0005:00000098       $unwind$rsa_get_blinding   0000000000088138     OpensslLib:rsa_ossl.obj
 0005:00000098       $unwind$rsa_ossl_finish    0000000000088138     OpensslLib:rsa_ossl.obj
 0005:00000098       $unwind$siphash_set_priv_key 0000000000088138     OpensslLib:siphash_ameth.obj
 0005:00000098       $unwind$pkey_siphash_cleanup 0000000000088138     OpensslLib:siphash_pmeth.obj
 0005:00000098       $unwind$pkey_siphash_copy  0000000000088138     OpensslLib:siphash_pmeth.obj
 0005:00000098       $unwind$pkey_siphash_ctrl_str 0000000000088138     OpensslLib:siphash_pmeth.obj
 0005:00000098       $unwind$OPENSSL_sk_new_reserve 0000000000088138     OpensslLib:stack.obj
 0005:00000098       $unwind$check_crl          0000000000088138     OpensslLib:x509_vfy.obj
 0005:00000098       $unwind$check_revocation   0000000000088138     OpensslLib:x509_vfy.obj
 0005:00000098       $unwind$X509_NAME_delete_entry 0000000000088138     OpensslLib:x509name.obj
 0005:00000098       $unwind$x509_name_ex_i2d   0000000000088138     OpensslLib:x_name.obj
 0005:00000098       $unwind$tree_add_auth_node 0000000000088138     OpensslLib:pcy_tree.obj
 0005:00000098       $unwind$nc_match_single    0000000000088138     OpensslLib:v3_ncons.obj
 0005:00000098       $unwind$nc_uri             0000000000088138     OpensslLib:v3_ncons.obj
 0005:00000098       $unwind$X509_check_purpose 0000000000088138     OpensslLib:v3_purp.obj
 0005:00000098       $unwind$X509V3_add_value_int 0000000000088138     OpensslLib:v3_utl.obj
 0005:00000098       $unwind$AsciiStrnCmp       0000000000088138     BaseLib:String.obj
 0005:00000098       $unwind$StrCmp             0000000000088138     BaseLib:String.obj
 0005:00000098       $unwind$StrLen             0000000000088138     BaseLib:String.obj
 0005:00000098       $unwind$CompareMem         0000000000088138     BaseMemoryLibRepStr:CompareMemWrapper.obj
 0005:00000098       $unwind$CopyMem            0000000000088138     BaseMemoryLibRepStr:CopyMemWrapper.obj
 0005:00000098       $unwind$IsZeroGuid         0000000000088138     BaseMemoryLibRepStr:MemLibGuid.obj
 0005:00000098       $unwind$ScanMem8           0000000000088138     BaseMemoryLibRepStr:ScanMem8Wrapper.obj
 0005:00000098       $unwind$SetMem             0000000000088138     BaseMemoryLibRepStr:SetMemWrapper.obj
 0005:00000098       $unwind$BasePrintLibValueToString 0000000000088138     BasePrintLib:PrintLibInternal.obj
 0005:00000098       $unwind$DevPathToTextAcpiAdr 0000000000088138     UefiDevicePathLib:DevicePathToText.obj
 0005:00000098       $unwind$DevPathToTextBBS   0000000000088138     UefiDevicePathLib:DevicePathToText.obj
 0005:00000098       $unwind$DevPathToTextBmc   0000000000088138     UefiDevicePathLib:DevicePathToText.obj
 0005:00000098       $unwind$DevPathToTextIPv6  0000000000088138     UefiDevicePathLib:DevicePathToText.obj
 0005:00000098       $unwind$DevPathToTextUart  0000000000088138     UefiDevicePathLib:DevicePathToText.obj
 0005:00000098       $unwind$GetDevicePathSize  0000000000088138     UefiDevicePathLib:UefiDevicePathLib.obj
 0005:00000098       $unwind$InternalAllocateCopyPool 0000000000088138     UefiMemoryAllocationLib:MemoryAllocationLib.obj
 0005:00000098       $unwind$DxeImageVerificationLibImageRead 0000000000088138     DxeImageVerificationLib:DxeImageVerificationLib.obj
 0005:00000098       $unwind$DxeTpm2MeasureBootLibImageRead 0000000000088138     DxeTpm2MeasureBootLib:DxeTpm2MeasureBootLib.obj
 0005:00000098       $unwind$InternalAcpiDelay  0000000000088138     AcpiTimerLib:AcpiTimerLib.obj
 0005:000000a8       $unwind$DebugPrint         0000000000088148     BaseDebugLibSerialPort:DebugLib.obj
 0005:000000b0       $unwind$DebugPrintMarker   0000000000088150     BaseDebugLibSerialPort:DebugLib.obj
 0005:000000c4       $unwind$DebugAssert        0000000000088164     BaseDebugLibSerialPort:DebugLib.obj
 0005:000000cc       $unwind$pkey_tls1_prf_derive 000000000008816c     OpensslLib:tls1_prf.obj
 0005:000000cc       $unwind$drbg_ctr_reseed    000000000008816c     OpensslLib:drbg_ctr.obj
 0005:000000cc       $unwind$DevPathToTextInfiniBand 000000000008816c     UefiDevicePathLib:DevicePathToText.obj
 0005:000000cc       $unwind$PlatformHookSerialPortInitialize 000000000008816c     PlatformHookLib:PlatformHookLib.obj
 0005:000000d4       $unwind$malloc             0000000000088174     BaseCryptLib:BaseMemAllocation.obj
 0005:000000d4       $unwind$ASN1_INTEGER_cmp   0000000000088174     OpensslLib:a_int.obj
 0005:000000d4       $unwind$cpy_utf8           0000000000088174     OpensslLib:a_mbstr.obj
 0005:000000d4       $unwind$out_utf8           0000000000088174     OpensslLib:a_mbstr.obj
 0005:000000d4       $unwind$send_bio_chars     0000000000088174     OpensslLib:a_strex.obj
 0005:000000d4       $unwind$ASN1_item_new      0000000000088174     OpensslLib:tasn_new.obj
 0005:000000d4       $unwind$bn_free            0000000000088174     OpensslLib:x_bignum.obj
 0005:000000d4       $unwind$bn_new             0000000000088174     OpensslLib:x_bignum.obj
 0005:000000d4       $unwind$bn_secure_new      0000000000088174     OpensslLib:x_bignum.obj
 0005:000000d4       $unwind$uint32_free        0000000000088174     OpensslLib:x_int64.obj
 0005:000000d4       $unwind$BIO_push           0000000000088174     OpensslLib:bio_lib.obj
 0005:000000d4       $unwind$bread_conv         0000000000088174     OpensslLib:bio_meth.obj
 0005:000000d4       $unwind$bwrite_conv        0000000000088174     OpensslLib:bio_meth.obj
 0005:000000d4       $unwind$mem_buf_sync       0000000000088174     OpensslLib:bss_mem.obj
 0005:000000d4       $unwind$mem_free           0000000000088174     OpensslLib:bss_mem.obj
 0005:000000d4       $unwind$mem_gets           0000000000088174     OpensslLib:bss_mem.obj
 0005:000000d4       $unwind$bn_free_d          0000000000088174     OpensslLib:bn_lib.obj
 0005:000000d4       $unwind$pkey_cmac_init     0000000000088174     OpensslLib:cm_pmeth.obj
 0005:000000d4       $unwind$dh_cb              0000000000088174     OpensslLib:dh_asn1.obj
 0005:000000d4       $unwind$pkey_dh_cleanup    0000000000088174     OpensslLib:dh_pmeth.obj
 0005:000000d4       $unwind$ERR_pop_to_mark    0000000000088174     OpensslLib:err.obj
 0005:000000d4       $unwind$err_clear_last_constant_time 0000000000088174     OpensslLib:err.obj
 0005:000000d4       $unwind$get_error_values   0000000000088174     OpensslLib:err.obj
 0005:000000d4       $unwind$md_new             0000000000088174     OpensslLib:bio_md.obj
 0005:000000d4       $unwind$openssl_add_all_ciphers_int 0000000000088174     OpensslLib:c_allc.obj
 0005:000000d4       $unwind$EVP_CIPHER_CTX_reset 0000000000088174     OpensslLib:evp_enc.obj
 0005:000000d4       $unwind$init               0000000000088174     OpensslLib:m_md5.obj
 0005:000000d4       $unwind$init               0000000000088174     OpensslLib:m_md5_sha1.obj
 0005:000000d4       $unwind$EVP_add_cipher     0000000000088174     OpensslLib:names.obj
 0005:000000d4       $unwind$EVP_get_cipherbyname 0000000000088174     OpensslLib:names.obj
 0005:000000d4       $unwind$EVP_get_digestbyname 0000000000088174     OpensslLib:names.obj
 0005:000000d4       $unwind$do_ex_data_init_ossl_ 0000000000088174     OpensslLib:ex_data.obj
 0005:000000d4       $unwind$hmac_key_free      0000000000088174     OpensslLib:hm_ameth.obj
 0005:000000d4       $unwind$pkey_hmac_keygen   0000000000088174     OpensslLib:hm_pmeth.obj
 0005:000000d4       $unwind$HMAC_CTX_new       0000000000088174     OpensslLib:hmac.obj
 0005:000000d4       $unwind$hmac_ctx_cleanup   0000000000088174     OpensslLib:hmac.obj
 0005:000000d4       $unwind$ossl_init_thread_start 0000000000088174     OpensslLib:init.obj
 0005:000000d4       $unwind$OPENSSL_LH_retrieve 0000000000088174     OpensslLib:lhash.obj
 0005:000000d4       $unwind$CRYPTO_ccm128_setiv 0000000000088174     OpensslLib:ccm128.obj
 0005:000000d4       $unwind$CRYPTO_ccm128_tag  0000000000088174     OpensslLib:ccm128.obj
 0005:000000d4       $unwind$obj_name_hash      0000000000088174     OpensslLib:o_names.obj
 0005:000000d4       $unwind$added_obj_hash     0000000000088174     OpensslLib:obj_dat.obj
 0005:000000d4       $unwind$PKCS7_get_octet_string 0000000000088174     OpensslLib:pk7_doit.obj
 0005:000000d4       $unwind$PKCS7_get_signer_info 0000000000088174     OpensslLib:pk7_lib.obj
 0005:000000d4       $unwind$do_rand_drbg_init_ossl_ 0000000000088174     OpensslLib:drbg_lib.obj
 0005:000000d4       $unwind$do_rand_init_ossl_ 0000000000088174     OpensslLib:rand_lib.obj
 0005:000000d4       $unwind$rand_drbg_cleanup_entropy 0000000000088174     OpensslLib:rand_lib.obj
 0005:000000d4       $unwind$rsa_param_encode   0000000000088174     OpensslLib:rsa_ameth.obj
 0005:000000d4       $unwind$rsa_security_bits  0000000000088174     OpensslLib:rsa_ameth.obj
 0005:000000d4       $unwind$rsa_multip_info_free 0000000000088174     OpensslLib:rsa_mp.obj
 0005:000000d4       $unwind$pkey_rsa_cleanup   0000000000088174     OpensslLib:rsa_pmeth.obj
 0005:000000d4       $unwind$pkey_rsa_init      0000000000088174     OpensslLib:rsa_pmeth.obj
 0005:000000d4       $unwind$SHA1_Init          0000000000088174     OpensslLib:sha1dgst.obj
 0005:000000d4       $unwind$SHA224_Init        0000000000088174     OpensslLib:sha256.obj
 0005:000000d4       $unwind$SHA256_Init        0000000000088174     OpensslLib:sha256.obj
 0005:000000d4       $unwind$siphash_get_priv_key 0000000000088174     OpensslLib:siphash_ameth.obj
 0005:000000d4       $unwind$siphash_key_free   0000000000088174     OpensslLib:siphash_ameth.obj
 0005:000000d4       $unwind$pkey_siphash_keygen 0000000000088174     OpensslLib:siphash_pmeth.obj
 0005:000000d4       $unwind$init               0000000000088174     OpensslLib:m_sm3.obj
 0005:000000d4       $unwind$X509_OBJECT_free   0000000000088174     OpensslLib:x509_lu.obj
 0005:000000d4       $unwind$cert_self_signed   0000000000088174     OpensslLib:x509_vfy.obj
 0005:000000d4       $unwind$X509V3_EXT_d2i     0000000000088174     OpensslLib:v3_lib.obj
 0005:000000d4       $unwind$check_purpose_timestamp_sign 0000000000088174     OpensslLib:v3_purp.obj
 0005:000000d4       $unwind$equal_case         0000000000088174     OpensslLib:v3_utl.obj
 0005:000000d4       $unwind$ipv6_cb            0000000000088174     OpensslLib:v3_utl.obj
 0005:000000d4       $unwind$MmioRead32         0000000000088174     BaseIoLibIntrinsic:IoLib.obj
 0005:000000d4       $unwind$IoRead32           0000000000088174     BaseIoLibIntrinsic:IoLibMsc.obj
 0005:000000d4       $unwind$StrnLenS           0000000000088174     BaseLib:SafeString.obj
 0005:000000d4       $unwind$PciExpressRead32   0000000000088174     BasePciExpressLib:PciExpressLib.obj
 0005:000000d4       $unwind$GetNextHob         0000000000088174     DxeHobLib:HobLib.obj
 0005:000000d4       $unwind$DevicePathNodeLength 0000000000088174     UefiDevicePathLib:DevicePathUtilities.obj
 0005:000000d4       $unwind$IsDevicePathEndType 0000000000088174     UefiDevicePathLib:DevicePathUtilities.obj
 0005:000000d4       $unwind$NextDevicePathNode 0000000000088174     UefiDevicePathLib:DevicePathUtilities.obj
 0005:000000d4       $unwind$DuplicateDevicePath 0000000000088174     UefiDevicePathLib:UefiDevicePathLib.obj
 0005:000000d4       $unwind$InternalAllocateZeroPool 0000000000088174     UefiMemoryAllocationLib:MemoryAllocationLib.obj
 0005:000000d4       $unwind$OnReadyToBoot      0000000000088174     DxeImageVerificationLib:DxeImageVerificationLib.obj
 0005:000000d4       $unwind$AcpiTimerLibConstructor 0000000000088174     AcpiTimerLib:AcpiTimerLib.obj
 0005:000000dc       $unwind$asn1_primitive_free 000000000008817c     OpensslLib:tasn_fre.obj
 0005:000000dc       $unwind$X509_ALGOR_set0    000000000008817c     OpensslLib:x_algor.obj
 0005:000000dc       $unwind$BN_set_bit         000000000008817c     OpensslLib:bn_lib.obj
 0005:000000dc       $unwind$BN_MONT_CTX_set_locked 000000000008817c     OpensslLib:bn_mont.obj
 0005:000000dc       $unwind$BN_add_word        000000000008817c     OpensslLib:bn_word.obj
 0005:000000dc       $unwind$ERR_clear_error    000000000008817c     OpensslLib:err.obj
 0005:000000dc       $unwind$ERR_put_error      000000000008817c     OpensslLib:err.obj
 0005:000000dc       $unwind$aes_ccm_ctrl       000000000008817c     OpensslLib:e_aes.obj
 0005:000000dc       $unwind$aes_wrap_init_key  000000000008817c     OpensslLib:e_aes.obj
 0005:000000dc       $unwind$aria_ccm_ctrl      000000000008817c     OpensslLib:e_aria.obj
 0005:000000dc       $unwind$init               000000000008817c     OpensslLib:m_sha3.obj
 0005:000000dc       $unwind$sha3_final         000000000008817c     OpensslLib:m_sha3.obj
 0005:000000dc       $unwind$hmac_set_priv_key  000000000008817c     OpensslLib:hm_ameth.obj
 0005:000000dc       $unwind$pkey_hkdf_ctrl     000000000008817c     OpensslLib:hkdf.obj
 0005:000000dc       $unwind$pkey_tls1_prf_ctrl 000000000008817c     OpensslLib:tls1_prf.obj
 0005:000000dc       $unwind$CRYPTO_clear_realloc 000000000008817c     OpensslLib:mem.obj
 0005:000000dc       $unwind$CRYPTO_ccm128_init 000000000008817c     OpensslLib:ccm128.obj
 0005:000000dc       $unwind$PKCS7_add1_attrib_digest 000000000008817c     OpensslLib:pk7_attr.obj
 0005:000000dc       $unwind$ctr_BCC_update     000000000008817c     OpensslLib:drbg_ctr.obj
 0005:000000dc       $unwind$rsa_pss_params_create 000000000008817c     OpensslLib:rsa_ameth.obj
 0005:000000dc       $unwind$OPENSSL_sk_insert  000000000008817c     OpensslLib:stack.obj
 0005:000000dc       $unwind$x509_store_add     000000000008817c     OpensslLib:x509_lu.obj
 0005:000000dc       $unwind$X509_check_trust   000000000008817c     OpensslLib:x509_trs.obj
 0005:000000dc       $unwind$check_crl_time     000000000008817c     OpensslLib:x509_vfy.obj
 0005:000000dc       $unwind$crl_extension_match 000000000008817c     OpensslLib:x509_vfy.obj
 0005:000000dc       $unwind$x509_check_cert_time 000000000008817c     OpensslLib:x509_vfy.obj
 0005:000000dc       $unwind$X509_ATTRIBUTE_create 000000000008817c     OpensslLib:x_attrib.obj
 0005:000000dc       $unwind$tree_add_unmatched 000000000008817c     OpensslLib:pcy_tree.obj
 0005:000000dc       $unwind$do_othername       000000000008817c     OpensslLib:v3_alt.obj
 0005:000000dc       $unwind$print_gens         000000000008817c     OpensslLib:v3_crld.obj
 0005:000000dc       $unwind$print_reasons      000000000008817c     OpensslLib:v3_crld.obj
 0005:000000dc       $unwind$DevPathToTextFibreEx 000000000008817c     UefiDevicePathLib:DevicePathToText.obj
 0005:000000dc       $unwind$DevPathToTextMacAddr 000000000008817c     UefiDevicePathLib:DevicePathToText.obj
 0005:000000dc       $unwind$DevPathToTextUri   000000000008817c     UefiDevicePathLib:DevicePathToText.obj
 0005:000000dc       $unwind$IsDevicePathValid  000000000008817c     UefiDevicePathLib:DevicePathUtilities.obj
 0005:000000dc       $unwind$InternalReallocatePool 000000000008817c     UefiMemoryAllocationLib:MemoryAllocationLib.obj
 0005:000000f0       $unwind$generate_key       0000000000088190     OpensslLib:dh_key.obj
 0005:000000f0       $unwind$aes_ccm_cipher     0000000000088190     OpensslLib:e_aes.obj
 0005:000000f0       $unwind$aes_ccm_tls_cipher 0000000000088190     OpensslLib:e_aes.obj
 0005:000000f0       $unwind$aria_ccm_cipher    0000000000088190     OpensslLib:e_aria.obj
 0005:000000f0       $unwind$aria_ccm_tls_cipher 0000000000088190     OpensslLib:e_aria.obj
 0005:000000f0       $unwind$RAND_DRBG_bytes    0000000000088190     OpensslLib:drbg_lib.obj
 0005:000000f0       $unwind$ConvertDevicePathToText 0000000000088190     UefiDevicePathLib:UefiDevicePathLib.obj
 0005:0000010c       $unwind$strchr             00000000000881ac     BaseCryptLib:CrtWrapper.obj
 0005:0000010c       $unwind$AES_set_decrypt_key 00000000000881ac     OpensslLib:aes_core.obj
 0005:0000010c       $unwind$ASN1_STRING_cmp    00000000000881ac     OpensslLib:asn1_lib.obj
 0005:0000010c       $unwind$ASN1_STRING_copy   00000000000881ac     OpensslLib:asn1_lib.obj
 0005:0000010c       $unwind$ASN1_STRING_dup    00000000000881ac     OpensslLib:asn1_lib.obj
 0005:0000010c       $unwind$der_cmp            00000000000881ac     OpensslLib:tasn_enc.obj
 0005:0000010c       $unwind$BIO_indent         00000000000881ac     OpensslLib:bio_lib.obj
 0005:0000010c       $unwind$BIO_pop            00000000000881ac     OpensslLib:bio_lib.obj
 0005:0000010c       $unwind$mem_buf_free       00000000000881ac     OpensslLib:bss_mem.obj
 0005:0000010c       $unwind$BN_copy            00000000000881ac     OpensslLib:bn_lib.obj
 0005:0000010c       $unwind$BN_dup             00000000000881ac     OpensslLib:bn_lib.obj
 0005:0000010c       $unwind$BN_set_word        00000000000881ac     OpensslLib:bn_lib.obj
 0005:0000010c       $unwind$BN_lshift1         00000000000881ac     OpensslLib:bn_shift.obj
 0005:0000010c       $unwind$BN_mod_word        00000000000881ac     OpensslLib:bn_word.obj
 0005:0000010c       $unwind$pkey_cmac_copy     00000000000881ac     OpensslLib:cm_pmeth.obj
 0005:0000010c       $unwind$dh_pub_cmp         00000000000881ac     OpensslLib:dh_ameth.obj
 0005:0000010c       $unwind$dh_security_bits   00000000000881ac     OpensslLib:dh_ameth.obj
 0005:0000010c       $unwind$int_dh_bn_cpy      00000000000881ac     OpensslLib:dh_ameth.obj
 0005:0000010c       $unwind$pkey_dh_copy       00000000000881ac     OpensslLib:dh_pmeth.obj
 0005:0000010c       $unwind$dh_param_init      00000000000881ac     OpensslLib:dh_rfc7919.obj
 0005:0000010c       $unwind$md_free            00000000000881ac     OpensslLib:bio_md.obj
 0005:0000010c       $unwind$EVP_MD_CTX_reset   00000000000881ac     OpensslLib:digest.obj
 0005:0000010c       $unwind$aes_gcm_cipher     00000000000881ac     OpensslLib:e_aes.obj
 0005:0000010c       $unwind$aes_gcm_cleanup    00000000000881ac     OpensslLib:e_aes.obj
 0005:0000010c       $unwind$aria_gcm_cipher    00000000000881ac     OpensslLib:e_aria.obj
 0005:0000010c       $unwind$EVP_CIPHER_type    00000000000881ac     OpensslLib:evp_lib.obj
 0005:0000010c       $unwind$final              00000000000881ac     OpensslLib:m_md5_sha1.obj
 0005:0000010c       $unwind$EVP_add_digest     00000000000881ac     OpensslLib:names.obj
 0005:0000010c       $unwind$HMAC_CTX_copy      00000000000881ac     OpensslLib:hmac.obj
 0005:0000010c       $unwind$hmac_ctx_alloc_mds 00000000000881ac     OpensslLib:hmac.obj
 0005:0000010c       $unwind$ossl_init_base_ossl_ 00000000000881ac     OpensslLib:init.obj
 0005:0000010c       $unwind$pkey_hkdf_cleanup  00000000000881ac     OpensslLib:hkdf.obj
 0005:0000010c       $unwind$pkey_hkdf_derive_init 00000000000881ac     OpensslLib:hkdf.obj
 0005:0000010c       $unwind$pkey_tls1_prf_cleanup 00000000000881ac     OpensslLib:tls1_prf.obj
 0005:0000010c       $unwind$CRYPTO_zalloc      00000000000881ac     OpensslLib:mem.obj
 0005:0000010c       $unwind$CRYPTO_gcm128_tag  00000000000881ac     OpensslLib:gcm128.obj
 0005:0000010c       $unwind$CRYPTO_strdup      00000000000881ac     OpensslLib:o_str.obj
 0005:0000010c       $unwind$i2d_ocsp_nonce     00000000000881ac     OpensslLib:v3_ocsp.obj
 0005:0000010c       $unwind$pk7_cb             00000000000881ac     OpensslLib:pk7_asn1.obj
 0005:0000010c       $unwind$get_attribute      00000000000881ac     OpensslLib:pk7_doit.obj
 0005:0000010c       $unwind$PKCS7_stream       00000000000881ac     OpensslLib:pk7_lib.obj
 0005:0000010c       $unwind$ctr_BCC_blocks     00000000000881ac     OpensslLib:drbg_ctr.obj
 0005:0000010c       $unwind$RAND_priv_bytes    00000000000881ac     OpensslLib:rand_lib.obj
 0005:0000010c       $unwind$rsa_pub_cmp        00000000000881ac     OpensslLib:rsa_ameth.obj
 0005:0000010c       $unwind$pkey_rsa_copy      00000000000881ac     OpensslLib:rsa_pmeth.obj
 0005:0000010c       $unwind$internal_delete    00000000000881ac     OpensslLib:stack.obj
 0005:0000010c       $unwind$X509_NAME_cmp      00000000000881ac     OpensslLib:x509_cmp.obj
 0005:0000010c       $unwind$X509_cmp           00000000000881ac     OpensslLib:x509_cmp.obj
 0005:0000010c       $unwind$trust_compat       00000000000881ac     OpensslLib:x509_trs.obj
 0005:0000010c       $unwind$X509v3_get_ext_by_NID 00000000000881ac     OpensslLib:x509_v3.obj
 0005:0000010c       $unwind$X509_STORE_CTX_cleanup 00000000000881ac     OpensslLib:x509_vfy.obj
 0005:0000010c       $unwind$check_dane_issuer  00000000000881ac     OpensslLib:x509_vfy.obj
 0005:0000010c       $unwind$check_key_level    00000000000881ac     OpensslLib:x509_vfy.obj
 0005:0000010c       $unwind$verify_chain       00000000000881ac     OpensslLib:x509_vfy.obj
 0005:0000010c       $unwind$X509_NAME_get_index_by_NID 00000000000881ac     OpensslLib:x509name.obj
 0005:0000010c       $unwind$pubkey_cb          00000000000881ac     OpensslLib:x_pubkey.obj
 0005:0000010c       $unwind$displaytext_str2tag 00000000000881ac     OpensslLib:v3_cpols.obj
 0005:0000010c       $unwind$i2r_idp            00000000000881ac     OpensslLib:v3_crld.obj
 0005:0000010c       $unwind$i2r_PKEY_USAGE_PERIOD 00000000000881ac     OpensslLib:v3_pku.obj
 0005:0000010c       $unwind$X509_check_akid    00000000000881ac     OpensslLib:v3_purp.obj
 0005:0000010c       $unwind$X509_check_issued  00000000000881ac     OpensslLib:v3_purp.obj
 0005:0000010c       $unwind$check_purpose_ns_ssl_server 00000000000881ac     OpensslLib:v3_purp.obj
 0005:0000010c       $unwind$a2i_ipadd          00000000000881ac     OpensslLib:v3_utl.obj
 0005:0000010c       $unwind$name_cmp           00000000000881ac     OpensslLib:v3_utl.obj
 0005:0000010c       $unwind$RegisterSecurity2Handler 00000000000881ac     DxeSecurityManagementLib:DxeSecurityManagementLib.obj
 0005:0000010c       $unwind$AsciiStrCmp        00000000000881ac     BaseLib:String.obj
 0005:0000010c       $unwind$AsciiStrLen        00000000000881ac     BaseLib:String.obj
 0005:0000010c       $unwind$AsciiStriCmp       00000000000881ac     BaseLib:String.obj
 0005:0000010c       $unwind$ZeroMem            00000000000881ac     BaseMemoryLibRepStr:ZeroMemWrapper.obj
 0005:0000010c       $unwind$GetFirstGuidHob    00000000000881ac     DxeHobLib:HobLib.obj
 0005:0000010c       $unwind$IsDevicePathEnd    00000000000881ac     UefiDevicePathLib:DevicePathUtilities.obj
 0005:0000010c       $unwind$GetGuidHobDataFromSbl 00000000000881ac     SblParseLib:SblParseLib.obj
 0005:00000118       $unwind$UefiDevicePathLibCatPrint 00000000000881b8     UefiDevicePathLib:DevicePathToText.obj
 0005:00000124       $unwind$ASN1_BIT_STRING_set_bit 00000000000881c4     OpensslLib:a_bitstr.obj
 0005:00000124       $unwind$BN_usub            00000000000881c4     OpensslLib:bn_add.obj
 0005:00000124       $unwind$BN_mod_mul_reciprocal 00000000000881c4     OpensslLib:bn_recp.obj
 0005:00000124       $unwind$DH_check_pub_key   00000000000881c4     OpensslLib:dh_check.obj
 0005:00000124       $unwind$X509_STORE_CTX_get_by_subject 00000000000881c4     OpensslLib:x509_lu.obj
 0005:00000124       $unwind$v2i_issuer_alt     00000000000881c4     OpensslLib:v3_alt.obj
 0005:00000124       $unwind$v2i_subject_alt    00000000000881c4     OpensslLib:v3_alt.obj
 0005:00000124       $unwind$DevPathToTextVendor 00000000000881c4     UefiDevicePathLib:DevicePathToText.obj
 0005:00000124       $unwind$MeasureVariable    00000000000881c4     DxeImageVerificationLib:Measurement.obj
 0005:00000140       $unwind$DevPathToTextAcpiEx 00000000000881e0     UefiDevicePathLib:DevicePathToText.obj
 0005:00000158       $unwind$DevPathToTextNVMe  00000000000881f8     UefiDevicePathLib:DevicePathToText.obj
 0005:00000168       $unwind$qsort              0000000000088208     BaseCryptLib:CrtWrapper.obj
 0005:00000168       $unwind$ASN1_STRING_set    0000000000088208     OpensslLib:asn1_lib.obj
 0005:00000168       $unwind$ASN1_item_pack     0000000000088208     OpensslLib:asn_pack.obj
 0005:00000168       $unwind$bn_secure_c2i      0000000000088208     OpensslLib:x_bignum.obj
 0005:00000168       $unwind$mem_write          0000000000088208     OpensslLib:bss_mem.obj
 0005:00000168       $unwind$witness            0000000000088208     OpensslLib:bn_prime.obj
 0005:00000168       $unwind$CONF_parse_list    0000000000088208     OpensslLib:conf_mod.obj
 0005:00000168       $unwind$pkey_dh_derive     0000000000088208     OpensslLib:dh_pmeth.obj
 0005:00000168       $unwind$EVP_CipherInit_ex  0000000000088208     OpensslLib:evp_enc.obj
 0005:00000168       $unwind$PKCS7_get0_signers 0000000000088208     OpensslLib:pk7_smime.obj
 0005:00000168       $unwind$rand_pool_new      0000000000088208     OpensslLib:rand_lib.obj
 0005:00000168       $unwind$RSA_padding_add_PKCS1_type_2 0000000000088208     OpensslLib:rsa_pk1.obj
 0005:00000168       $unwind$RSA_padding_add_SSLv23 0000000000088208     OpensslLib:rsa_ssl.obj
 0005:00000168       $unwind$check_id           0000000000088208     OpensslLib:x509_vfy.obj
 0005:00000168       $unwind$level_add_node     0000000000088208     OpensslLib:pcy_node.obj
 0005:00000168       $unwind$copy_issuer        0000000000088208     OpensslLib:v3_alt.obj
 0005:00000168       $unwind$v2i_GENERAL_NAME_ex 0000000000088208     OpensslLib:v3_alt.obj
 0005:00000168       $unwind$NAME_CONSTRAINTS_check 0000000000088208     OpensslLib:v3_ncons.obj
 0005:00000168       $unwind$do_i2r_name_constraints 0000000000088208     OpensslLib:v3_ncons.obj
 0005:00000168       $unwind$rand_pool_acquire_entropy 0000000000088208     OpensslLib:rand_pool.obj
 0005:00000168       $unwind$DevPathToTextUsbWWID 0000000000088208     UefiDevicePathLib:DevicePathToText.obj
 0005:00000180       $unwind$OBJ_find_sigid_algs 0000000000088220     OpensslLib:obj_xref.obj
 0005:00000180       $unwind$X509V3_get_value_int 0000000000088220     OpensslLib:v3_utl.obj
 0005:00000180       $unwind$AsciiStrCatS       0000000000088220     BaseLib:SafeString.obj
 0005:00000180       $unwind$DevPathToTextUsbClass 0000000000088220     UefiDevicePathLib:DevicePathToText.obj
 0005:0000018c       $unwind$CatIPv6Address     000000000008822c     UefiDevicePathLib:DevicePathToText.obj
 0005:000001a8       $unwind$bn_to_asn1_string  0000000000088248     OpensslLib:a_int.obj
 0005:000001a8       $unwind$c2i_ibuf           0000000000088248     OpensslLib:a_int.obj
 0005:000001a8       $unwind$BIO_new            0000000000088248     OpensslLib:bio_lib.obj
 0005:000001a8       $unwind$bn_expand2         0000000000088248     OpensslLib:bn_lib.obj
 0005:000001a8       $unwind$BN_bn2hex          0000000000088248     OpensslLib:bn_print.obj
 0005:000001a8       $unwind$BUF_MEM_grow       0000000000088248     OpensslLib:buffer.obj
 0005:000001a8       $unwind$BUF_MEM_grow_clean 0000000000088248     OpensslLib:buffer.obj
 0005:000001a8       $unwind$DH_new             0000000000088248     OpensslLib:dh_lib.obj
 0005:000001a8       $unwind$EVP_DigestInit_ex  0000000000088248     OpensslLib:digest.obj
 0005:000001a8       $unwind$EVP_MD_CTX_copy_ex 0000000000088248     OpensslLib:digest.obj
 0005:000001a8       $unwind$aes_ccm_init_key   0000000000088248     OpensslLib:e_aes.obj
 0005:000001a8       $unwind$EVP_PKEY_assign    0000000000088248     OpensslLib:p_lib.obj
 0005:000001a8       $unwind$EVP_PKEY_CTX_md    0000000000088248     OpensslLib:pmeth_lib.obj
 0005:000001a8       $unwind$OPENSSL_init_crypto 0000000000088248     OpensslLib:init.obj
 0005:000001a8       $unwind$pkey_hkdf_ctrl_str 0000000000088248     OpensslLib:hkdf.obj
 0005:000001a8       $unwind$pkey_tls1_prf_ctrl_str 0000000000088248     OpensslLib:tls1_prf.obj
 0005:000001a8       $unwind$OPENSSL_hexstr2buf 0000000000088248     OpensslLib:o_str.obj
 0005:000001a8       $unwind$PKCS7_bio_add_digest 0000000000088248     OpensslLib:pk7_doit.obj
 0005:000001a8       $unwind$PKCS7_find_digest  0000000000088248     OpensslLib:pk7_doit.obj
 0005:000001a8       $unwind$drbg_ctr_init      0000000000088248     OpensslLib:drbg_ctr.obj
 0005:000001a8       $unwind$rsa_param_decode   0000000000088248     OpensslLib:rsa_ameth.obj
 0005:000001a8       $unwind$check_policy       0000000000088248     OpensslLib:x509_vfy.obj
 0005:000001a8       $unwind$X509_NAME_ENTRY_create_by_OBJ 0000000000088248     OpensslLib:x509name.obj
 0005:000001a8       $unwind$x509_pubkey_decode 0000000000088248     OpensslLib:x_pubkey.obj
 0005:000001a8       $unwind$i2s_ASN1_ENUMERATED_TABLE 0000000000088248     OpensslLib:v3_enum.obj
 0005:000001a8       $unwind$i2r_NAME_CONSTRAINTS 0000000000088248     OpensslLib:v3_ncons.obj
 0005:000001a8       $unwind$i2r_pci            0000000000088248     OpensslLib:v3_pci.obj
 0005:000001a8       $unwind$bignum_to_string   0000000000088248     OpensslLib:v3_utl.obj
 0005:000001a8       $unwind$DevPathToTextIPv4  0000000000088248     UefiDevicePathLib:DevicePathToText.obj
 0005:000001a8       $unwind$DevPathToTextRamDisk 0000000000088248     UefiDevicePathLib:DevicePathToText.obj
 0005:000001b8       $unwind$BN_uadd            0000000000088258     OpensslLib:bn_add.obj
 0005:000001b8       $unwind$bn_div_words       0000000000088258     OpensslLib:bn_asm.obj
 0005:000001b8       $unwind$BN_bin2bn          0000000000088258     OpensslLib:bn_lib.obj
 0005:000001b8       $unwind$BN_num_bits        0000000000088258     OpensslLib:bn_lib.obj
 0005:000001b8       $unwind$bn_from_mont_fixed_top 0000000000088258     OpensslLib:bn_mont.obj
 0005:000001b8       $unwind$BN_div_word        0000000000088258     OpensslLib:bn_word.obj
 0005:000001b8       $unwind$int_update         0000000000088258     OpensslLib:cm_pmeth.obj
 0005:000001b8       $unwind$md_ctrl            0000000000088258     OpensslLib:bio_md.obj
 0005:000001b8       $unwind$EVP_Digest         0000000000088258     OpensslLib:digest.obj
 0005:000001b8       $unwind$aes_ecb_cipher     0000000000088258     OpensslLib:e_aes.obj
 0005:000001b8       $unwind$aria_128_ecb_cipher 0000000000088258     OpensslLib:e_aria.obj
 0005:000001b8       $unwind$aria_192_ecb_cipher 0000000000088258     OpensslLib:e_aria.obj
 0005:000001b8       $unwind$aria_256_ecb_cipher 0000000000088258     OpensslLib:e_aria.obj
 0005:000001b8       $unwind$sm4_ecb_cipher     0000000000088258     OpensslLib:e_sm4.obj
 0005:000001b8       $unwind$getrn              0000000000088258     OpensslLib:lhash.obj
 0005:000001b8       $unwind$OBJ_NAME_add       0000000000088258     OpensslLib:o_names.obj
 0005:000001b8       $unwind$SHA1_Final         0000000000088258     OpensslLib:sha1dgst.obj
 0005:000001b8       $unwind$SHA256_Final       0000000000088258     OpensslLib:sha256.obj
 0005:000001b8       $unwind$SM4_decrypt        0000000000088258     OpensslLib:sm4.obj
 0005:000001b8       $unwind$SM4_encrypt        0000000000088258     OpensslLib:sm4.obj
 0005:000001b8       $unwind$obj_trust          0000000000088258     OpensslLib:x509_trs.obj
 0005:000001b8       $unwind$check_issued       0000000000088258     OpensslLib:x509_vfy.obj
 0005:000001b8       $unwind$i2r_certpol        0000000000088258     OpensslLib:v3_cpols.obj
 0005:000001b8       $unwind$crldp_from_section 0000000000088258     OpensslLib:v3_crld.obj
 0005:000001b8       $unwind$nc_email           0000000000088258     OpensslLib:v3_ncons.obj
 0005:000001b8       $unwind$DevPathToTextiSCSI 0000000000088258     UefiDevicePathLib:DevicePathToText.obj
 0005:000001b8       $unwind$AddDataMeasured    0000000000088258     DxeImageVerificationLib:Measurement.obj
 0005:000001d0       $unwind$BIO_free           0000000000088270     OpensslLib:bio_lib.obj
 0005:000001d0       $unwind$BN_mod_inverse     0000000000088270     OpensslLib:bn_gcd.obj
 0005:000001d0       $unwind$aes_ctr_cipher     0000000000088270     OpensslLib:e_aes.obj
 0005:000001d0       $unwind$AsciiStrCpyS       0000000000088270     BaseLib:SafeString.obj
 0005:000001d0       $unwind$AsciiStrDecimalToUintnS 0000000000088270     BaseLib:SafeString.obj
 0005:000001d0       $unwind$AsciiStrnCpyS      0000000000088270     BaseLib:SafeString.obj
 0005:000001d0       $unwind$DevPathToTextBluetooth 0000000000088270     UefiDevicePathLib:DevicePathToText.obj
 0005:000001d8       $unwind$ASN1_STRING_TABLE_get 0000000000088278     OpensslLib:a_strnid.obj
 0005:000001d8       $unwind$DevPathToTextWiFi  0000000000088278     UefiDevicePathLib:DevicePathToText.obj
 0005:000001e0       $unwind$DevPathToTextBluetoothLE 0000000000088280     UefiDevicePathLib:DevicePathToText.obj
 0005:000001ec       $unwind$ASN1_get_object    000000000008828c     OpensslLib:asn1_lib.obj
 0005:000001ec       $unwind$asn1_item_embed_new 000000000008828c     OpensslLib:tasn_new.obj
 0005:000001ec       $unwind$DH_check           000000000008828c     OpensslLib:dh_check.obj
 0005:000001ec       $unwind$pkey_dh_paramgen   000000000008828c     OpensslLib:dh_pmeth.obj
 0005:000001ec       $unwind$aes_xts_init_key   000000000008828c     OpensslLib:e_aes.obj
 0005:000001ec       $unwind$i2r_ocsp_serviceloc 000000000008828c     OpensslLib:v3_ocsp.obj
 0005:000001ec       $unwind$RSA_setup_blinding 000000000008828c     OpensslLib:rsa_crpt.obj
 0005:000001ec       $unwind$pkey_rsa_ctrl      000000000008828c     OpensslLib:rsa_pmeth.obj
 0005:000001ec       $unwind$pkey_rsa_keygen    000000000008828c     OpensslLib:rsa_pmeth.obj
 0005:000001ec       $unwind$copy_email         000000000008828c     OpensslLib:v3_alt.obj
 0005:000001ec       $unwind$do_dirname         000000000008828c     OpensslLib:v3_alt.obj
 0005:000001ec       $unwind$v2i_GENERAL_NAMES  000000000008828c     OpensslLib:v3_alt.obj
 0005:000001ec       $unwind$sxnet_i2r          000000000008828c     OpensslLib:v3_sxnet.obj
 0005:000001ec       $unwind$X509V3_add_value   000000000008828c     OpensslLib:v3_utl.obj
 0005:000001ec       $unwind$ExecuteSecurity2Handlers 000000000008828c     DxeSecurityManagementLib:DxeSecurityManagementLib.obj
 0005:000001ec       $unwind$DevPathToTextDns   000000000008828c     UefiDevicePathLib:DevicePathToText.obj
 0005:00000204       $unwind$DevPathToTextNodeGeneric 00000000000882a4     UefiDevicePathLib:DevicePathToText.obj
 0005:0000021c       $unwind$ExecuteSecurityHandlers 00000000000882bc     DxeSecurityManagementLib:DxeSecurityManagementLib.obj
 0005:00000234       $unwind$GetImageType       00000000000882d4     DxeImageVerificationLib:DxeImageVerificationLib.obj
 0005:00000240       $unwind$HashPeImage        00000000000882e0     DxeImageVerificationLib:DxeImageVerificationLib.obj
 0005:00000258       $unwind$AddImageExeInfo    00000000000882f8     DxeImageVerificationLib:DxeImageVerificationLib.obj
 0005:00000270       $unwind$IsCertHashFoundInDbx 0000000000088310     DxeImageVerificationLib:DxeImageVerificationLib.obj
 0005:0000028c       $unwind$rsa_ossl_public_decrypt 000000000008832c     OpensslLib:rsa_ossl.obj
 0005:0000028c       $unwind$IsSignatureFoundInDatabase 000000000008832c     DxeImageVerificationLib:DxeImageVerificationLib.obj
 0005:000002a4       $unwind$PassTimestampCheck 0000000000088344     DxeImageVerificationLib:DxeImageVerificationLib.obj
 0005:000002bc       $unwind$IsForbiddenByDbx   000000000008835c     DxeImageVerificationLib:DxeImageVerificationLib.obj
 0005:000002d4       $unwind$IsAllowedByDb      0000000000088374     DxeImageVerificationLib:DxeImageVerificationLib.obj
 0005:000002ec       $unwind$DxeImageVerificationHandler 000000000008838c     DxeImageVerificationLib:DxeImageVerificationLib.obj
 0005:0000030c       $unwind$Tcg2MeasureGptTable 00000000000883ac     DxeTpm2MeasureBootLib:DxeTpm2MeasureBootLib.obj
 0005:00000324       $unwind$Tcg2MeasurePeImage 00000000000883c4     DxeTpm2MeasureBootLib:DxeTpm2MeasureBootLib.obj
 0005:0000033c       $unwind$DxeTpm2MeasureBootHandler 00000000000883dc     DxeTpm2MeasureBootLib:DxeTpm2MeasureBootLib.obj
 0005:0000035c       $unwind$CompareGuid        00000000000883fc     BaseMemoryLibRepStr:MemLibGuid.obj
 0005:00000378       $unwind$BN_mod_mul         0000000000088418     OpensslLib:bn_mod.obj
 0005:00000378       $unwind$bn_mul_mont_fixed_top 0000000000088418     OpensslLib:bn_mont.obj
 0005:00000378       $unwind$SerialPortWrite    0000000000088418     BaseSerialPortLib16550:BaseSerialPortLib16550.obj
 0005:00000390       $unwind$UnicodeSPrint      0000000000088430     BasePrintLib:PrintLib.obj
 0005:00000398       $unwind$AsciiSPrint        0000000000088438     BasePrintLib:PrintLib.obj
 0005:000003a0       $unwind$BasePrintLibSPrintMarker 0000000000088440     BasePrintLib:PrintLibInternal.obj
 0005:000003bc       $unwind$i2d_X509_NAME      000000000008845c     OpensslLib:x_name.obj
 0005:000003bc       $unwind$BasePrintLibSPrint 000000000008845c     BasePrintLib:PrintLibInternal.obj
 0005:000003c4       $unwind$GetFileBufferByFilePath 0000000000088464     DxeServicesLib:DxeServicesLib.obj
 0005:000003e4       $unwind$Tpm12MeasureAndLogData 0000000000088484     DxeTpmMeasurementLib:DxeTpmMeasurementLib.obj
 0005:000003f8       $unwind$aria_encrypt       0000000000088498     OpensslLib:aria.obj
 0005:000003f8       $unwind$bn2binpad          0000000000088498     OpensslLib:bn_lib.obj
 0005:000003f8       $unwind$aria_128_cfb1_cipher 0000000000088498     OpensslLib:e_aria.obj
 0005:000003f8       $unwind$aria_128_cfb8_cipher 0000000000088498     OpensslLib:e_aria.obj
 0005:000003f8       $unwind$aria_192_cfb1_cipher 0000000000088498     OpensslLib:e_aria.obj
 0005:000003f8       $unwind$aria_192_cfb8_cipher 0000000000088498     OpensslLib:e_aria.obj
 0005:000003f8       $unwind$aria_256_cfb1_cipher 0000000000088498     OpensslLib:e_aria.obj
 0005:000003f8       $unwind$aria_256_cfb8_cipher 0000000000088498     OpensslLib:e_aria.obj
 0005:000003f8       $unwind$pkey_rsa_encrypt   0000000000088498     OpensslLib:rsa_pmeth.obj
 0005:000003f8       $unwind$RSA_sign           0000000000088498     OpensslLib:rsa_sign.obj
 0005:000003f8       $unwind$a2i_GENERAL_NAME   0000000000088498     OpensslLib:v3_alt.obj
 0005:000003f8       $unwind$v2i_EXTENDED_KEY_USAGE 0000000000088498     OpensslLib:v3_extku.obj
 0005:000003f8       $unwind$TpmMeasureAndLogData 0000000000088498     DxeTpmMeasurementLib:DxeTpmMeasurementLib.obj
 0005:00000410       $unwind$PeCoffLoaderGetPeHeader 00000000000884b0     BasePeCoffLib:BasePeCoff.obj
 0005:0000042c       $unwind$PeCoffLoaderGetImageInfo 00000000000884cc     BasePeCoffLib:BasePeCoff.obj
 0005:0000044c       $unwind$WrapPkcs7Data      00000000000884ec     BaseCryptLib:CryptPkcs7VerifyCommon.obj
 0005:0000044c       $unwind$bn_mul_normal      00000000000884ec     OpensslLib:bn_mul.obj
 0005:0000044c       $unwind$BN_hex2bn          00000000000884ec     OpensslLib:bn_print.obj
 0005:0000044c       $unwind$CRYPTO_cfb128_encrypt 00000000000884ec     OpensslLib:cfb128.obj
 0005:0000044c       $unwind$CRYPTO_gcm128_finish 00000000000884ec     OpensslLib:gcm128.obj
 0005:0000044c       $unwind$CRYPTO_ofb128_encrypt 00000000000884ec     OpensslLib:ofb128.obj
 0005:0000044c       $unwind$OBJ_bsearch_ex_    00000000000884ec     OpensslLib:obj_dat.obj
 0005:0000044c       $unwind$add_attribute      00000000000884ec     OpensslLib:pk7_doit.obj
 0005:0000044c       $unwind$SHA512_Final       00000000000884ec     OpensslLib:sha512.obj
 0005:0000044c       $unwind$find_issuer        00000000000884ec     OpensslLib:x509_vfy.obj
 0005:0000044c       $unwind$tree_evaluate      00000000000884ec     OpensslLib:pcy_tree.obj
 0005:0000044c       $unwind$set_reasons        00000000000884ec     OpensslLib:v3_crld.obj
 0005:0000044c       $unwind$valid_star         00000000000884ec     OpensslLib:v3_utl.obj
 0005:00000468       $unwind$X509PopCertificate 0000000000088508     BaseCryptLib:CryptPkcs7VerifyCommon.obj
 0005:00000480       $unwind$Pkcs7GetSigners    0000000000088520     BaseCryptLib:CryptPkcs7VerifyCommon.obj
 0005:00000498       $unwind$Pkcs7Verify        0000000000088538     BaseCryptLib:CryptPkcs7VerifyCommon.obj
 0005:000004b0       $unwind$AuthenticodeVerify 0000000000088550     BaseCryptLib:CryptAuthenticode.obj
 0005:000004c8       $unwind$CheckTSTInfo       0000000000088568     BaseCryptLib:CryptTs.obj
 0005:000004e4       $unwind$TimestampTokenVerify 0000000000088584     BaseCryptLib:CryptTs.obj
 0005:00000500       $unwind$ImageTimestampVerify 00000000000885a0     BaseCryptLib:CryptTs.obj
 0005:00000518       $unwind$free               00000000000885b8     BaseCryptLib:BaseMemAllocation.obj
 0005:00000518       $unwind$ASN1_OBJECT_free   00000000000885b8     OpensslLib:a_object.obj
 0005:00000518       $unwind$ASN1_STRING_clear_free 00000000000885b8     OpensslLib:asn1_lib.obj
 0005:00000518       $unwind$asn1_ex_i2c        00000000000885b8     OpensslLib:tasn_enc.obj
 0005:00000518       $unwind$BN_BLINDING_free   00000000000885b8     OpensslLib:bn_blind.obj
 0005:00000518       $unwind$BN_clear_free      00000000000885b8     OpensslLib:bn_lib.obj
 0005:00000518       $unwind$BN_MONT_CTX_free   00000000000885b8     OpensslLib:bn_mont.obj
 0005:00000518       $unwind$EVP_PKEY_free      00000000000885b8     OpensslLib:p_lib.obj
 0005:00000518       $unwind$EVP_PKEY_CTX_free  00000000000885b8     OpensslLib:pmeth_lib.obj
 0005:00000518       $unwind$RAND_DRBG_free     00000000000885b8     OpensslLib:drbg_lib.obj
 0005:00000518       $unwind$rand_drbg_cleanup_nonce 00000000000885b8     OpensslLib:rand_lib.obj
 0005:00000518       $unwind$OPENSSL_sk_sort    00000000000885b8     OpensslLib:stack.obj
 0005:00000518       $unwind$X509_VERIFY_PARAM_free 00000000000885b8     OpensslLib:x509_vpm.obj
 0005:00000518       $unwind$local_sk_X509_NAME_ENTRY_free 00000000000885b8     OpensslLib:x_name.obj
 0005:00000518       $unwind$policy_data_free   00000000000885b8     OpensslLib:pcy_data.obj
 0005:00000518       $unwind$i2v_BASIC_CONSTRAINTS 00000000000885b8     OpensslLib:v3_bcons.obj
 0005:00000518       $unwind$i2v_POLICY_CONSTRAINTS 00000000000885b8     OpensslLib:v3_pcons.obj
 0005:00000518       $unwind$X509V3_conf_free   00000000000885b8     OpensslLib:v3_utl.obj
 0005:00000520       $unwind$asn1_check_tlen    00000000000885c0     OpensslLib:tasn_dec.obj
 0005:00000520       $unwind$sha1_block_data_order 00000000000885c0     OpensslLib:sha1dgst.obj
 0005:0000053c       $unwind$sha512_block_data_order 00000000000885dc     OpensslLib:sha512.obj
 0005:00000554       $unwind$CRYPTO_cbc128_encrypt 00000000000885f4     OpensslLib:cbc128.obj
 0005:00000554       $unwind$CRYPTO_ccm128_aad  00000000000885f4     OpensslLib:ccm128.obj
 0005:00000554       $unwind$X509_STORE_free    00000000000885f4     OpensslLib:x509_lu.obj
 0005:0000056c       $unwind$x509_object_idx_cnt 000000000008860c     OpensslLib:x509_lu.obj
 0005:00000588       $unwind$X509_STORE_CTX_get1_certs 0000000000088628     OpensslLib:x509_lu.obj
 0005:000005a4       $unwind$X509_STORE_CTX_get1_crls 0000000000088644     OpensslLib:x509_lu.obj
 0005:000005c0       $unwind$X509_OBJECT_retrieve_match 0000000000088660     OpensslLib:x509_lu.obj
 0005:000005d8       $unwind$X509_STORE_CTX_get1_issuer 0000000000088678     OpensslLib:x509_lu.obj
 0005:000005f4       $unwind$X509_find_by_issuer_and_serial 0000000000088694     OpensslLib:x509_cmp.obj
 0005:00000610       $unwind$rsa_multip_calc_product 00000000000886b0     OpensslLib:rsa_mp.obj
 0005:00000610       $unwind$check_chain_extensions 00000000000886b0     OpensslLib:x509_vfy.obj
 0005:00000628       $unwind$enc_write          00000000000886c8     OpensslLib:bio_enc.obj
 0005:00000628       $unwind$rand_drbg_restart  00000000000886c8     OpensslLib:drbg_lib.obj
 0005:00000628       $unwind$check_name_constraints 00000000000886c8     OpensslLib:x509_vfy.obj
 0005:00000644       $unwind$asn1_multi         00000000000886e4     OpensslLib:asn1_gen.obj
 0005:00000644       $unwind$probable_prime     00000000000886e4     OpensslLib:bn_prime.obj
 0005:00000644       $unwind$BN_bn2dec          00000000000886e4     OpensslLib:bn_print.obj
 0005:00000644       $unwind$aria_128_cbc_cipher 00000000000886e4     OpensslLib:e_aria.obj
 0005:00000644       $unwind$aria_192_cbc_cipher 00000000000886e4     OpensslLib:e_aria.obj
 0005:00000644       $unwind$aria_256_cbc_cipher 00000000000886e4     OpensslLib:e_aria.obj
 0005:00000644       $unwind$sm4_cbc_cipher     00000000000886e4     OpensslLib:e_sm4.obj
 0005:00000644       $unwind$EVP_DecryptUpdate  00000000000886e4     OpensslLib:evp_enc.obj
 0005:00000644       $unwind$evp_EncryptDecryptUpdate 00000000000886e4     OpensslLib:evp_enc.obj
 0005:00000644       $unwind$check_hosts        00000000000886e4     OpensslLib:x509_vfy.obj
 0005:00000644       $unwind$X509V3_NAME_from_section 00000000000886e4     OpensslLib:v3_utl.obj
 0005:00000660       $unwind$CRYPTO_gcm128_decrypt 0000000000088700     OpensslLib:gcm128.obj
 0005:00000660       $unwind$CRYPTO_gcm128_encrypt 0000000000088700     OpensslLib:gcm128.obj
 0005:00000660       $unwind$CRYPTO_gcm128_setiv 0000000000088700     OpensslLib:gcm128.obj
 0005:00000660       $unwind$check_dane_pkeys   0000000000088700     OpensslLib:x509_vfy.obj
 0005:00000660       $unwind$check_trust        0000000000088700     OpensslLib:x509_vfy.obj
 0005:00000660       $unwind$tree_calculate_authority_set 0000000000088700     OpensslLib:pcy_tree.obj
 0005:0000067c       $unwind$check_cert         000000000008871c     OpensslLib:x509_vfy.obj
 0005:00000690       $unwind$get_crl_sk         0000000000088730     OpensslLib:x509_vfy.obj
 0005:000006a8       $unwind$check_crl_path     0000000000088748     OpensslLib:x509_vfy.obj
 0005:000006b8       $unwind$idp_check_dp       0000000000088758     OpensslLib:x509_vfy.obj
 0005:000006d0       $unwind$crl_crldp_check    0000000000088770     OpensslLib:x509_vfy.obj
 0005:000006e8       $unwind$cert_crl           0000000000088788     OpensslLib:x509_vfy.obj
 0005:000006f8       $unwind$X509_cmp_time      0000000000088798     OpensslLib:x509_vfy.obj
 0005:00000708       $unwind$bn_mod_add_fixed_top 00000000000887a8     OpensslLib:bn_mod.obj
 0005:00000708       $unwind$dane_match         00000000000887a8     OpensslLib:x509_vfy.obj
 0005:00000724       $unwind$build_chain        00000000000887c4     OpensslLib:x509_vfy.obj
 0005:0000073c       $unwind$x509_cb            00000000000887dc     OpensslLib:x_x509.obj
 0005:00000750       $unwind$ctrl               00000000000887f0     OpensslLib:m_sha1.obj
 0005:00000760       $unwind$CRYPTO_gcm128_init 0000000000088800     OpensslLib:gcm128.obj
 0005:00000760       $unwind$OPENSSL_sk_deep_copy 0000000000088800     OpensslLib:stack.obj
 0005:00000774       $unwind$pkey_set_type      0000000000088814     OpensslLib:p_lib.obj
 0005:00000774       $unwind$internal_find      0000000000088814     OpensslLib:stack.obj
 0005:00000780       $unwind$ERR_STATE_free     0000000000088820     OpensslLib:err.obj
 0005:00000780       $unwind$OPENSSL_sk_pop_free 0000000000088820     OpensslLib:stack.obj
 0005:00000794       $unwind$bio_call_callback  0000000000088834     OpensslLib:bio_lib.obj
 0005:00000794       $unwind$aes_cfb8_cipher    0000000000088834     OpensslLib:e_aes.obj
 0005:00000794       $unwind$X509V3_get_value_bool 0000000000088834     OpensslLib:v3_utl.obj
 0005:000007a4       $unwind$BIO_ctrl           0000000000088844     OpensslLib:bio_lib.obj
 0005:000007a4       $unwind$bio_read_intern    0000000000088844     OpensslLib:bio_lib.obj
 0005:000007a4       $unwind$bio_write_intern   0000000000088844     OpensslLib:bio_lib.obj
 0005:000007a4       $unwind$rand_drbg_get_nonce 0000000000088844     OpensslLib:rand_lib.obj
 0005:000007a4       $unwind$a2i_IPADDRESS_NC   0000000000088844     OpensslLib:v3_utl.obj
 0005:000007b8       $unwind$BIO_puts           0000000000088858     OpensslLib:bio_lib.obj
 0005:000007c8       $unwind$BIO_callback_ctrl  0000000000088868     OpensslLib:bio_lib.obj
 0005:000007d0       $unwind$ASN1_STRING_free   0000000000088870     OpensslLib:asn1_lib.obj
 0005:000007d0       $unwind$BIO_free_all       0000000000088870     OpensslLib:bio_lib.obj
 0005:000007d0       $unwind$BN_free            0000000000088870     OpensslLib:bn_lib.obj
 0005:000007d0       $unwind$BUF_MEM_free       0000000000088870     OpensslLib:buffer.obj
 0005:000007d0       $unwind$HMAC_CTX_free      0000000000088870     OpensslLib:hmac.obj
 0005:000007d0       $unwind$rand_pool_free     0000000000088870     OpensslLib:rand_lib.obj
 0005:000007d0       $unwind$x509_name_ex_free  0000000000088870     OpensslLib:x_name.obj
 0005:000007d0       $unwind$i2v_AUTHORITY_KEYID 0000000000088870     OpensslLib:v3_akey.obj
 0005:000007d0       $unwind$i2v_ASN1_BIT_STRING 0000000000088870     OpensslLib:v3_bitst.obj
 0005:000007dc       $unwind$BN_div_recp        000000000008887c     OpensslLib:bn_recp.obj
 0005:000007dc       $unwind$PKCS7_verify       000000000008887c     OpensslLib:pk7_smime.obj
 0005:000007f4       $unwind$c2i_uint64_int     0000000000088894     OpensslLib:a_int.obj
 0005:000007f4       $unwind$OBJ_NAME_get       0000000000088894     OpensslLib:o_names.obj
 0005:000007f4       $unwind$drbg_ctr_instantiate 0000000000088894     OpensslLib:drbg_ctr.obj
 0005:000007f4       $unwind$equal_wildcard     0000000000088894     OpensslLib:v3_utl.obj
 0005:0000080c       $unwind$uint32_i2c         00000000000888ac     OpensslLib:x_int64.obj
 0005:0000080c       $unwind$X509_verify        00000000000888ac     OpensslLib:x_all.obj
 0005:0000081c       $unwind$asn1_time_from_tm  00000000000888bc     OpensslLib:a_time.obj
 0005:0000081c       $unwind$OBJ_add_object     00000000000888bc     OpensslLib:obj_dat.obj
 0005:00000834       $unwind$OBJ_nid2ln         00000000000888d4     OpensslLib:obj_dat.obj
 0005:00000834       $unwind$OBJ_nid2obj        00000000000888d4     OpensslLib:obj_dat.obj
 0005:00000834       $unwind$OBJ_nid2sn         00000000000888d4     OpensslLib:obj_dat.obj
 0005:0000083c       $unwind$OBJ_obj2nid        00000000000888dc     OpensslLib:obj_dat.obj
 0005:00000844       $unwind$OBJ_txt2obj        00000000000888e4     OpensslLib:obj_dat.obj
 0005:00000844       $unwind$sxnet_v2i          00000000000888e4     OpensslLib:v3_sxnet.obj
 0005:00000858       $unwind$CRYPTO_ccm128_decrypt_ccm64 00000000000888f8     OpensslLib:ccm128.obj
 0005:00000858       $unwind$CRYPTO_ccm128_encrypt_ccm64 00000000000888f8     OpensslLib:ccm128.obj
 0005:00000858       $unwind$OBJ_obj2txt        00000000000888f8     OpensslLib:obj_dat.obj
 0005:00000870       $unwind$OBJ_ln2nid         0000000000088910     OpensslLib:obj_dat.obj
 0005:00000870       $unwind$OBJ_sn2nid         0000000000088910     OpensslLib:obj_dat.obj
 0005:00000878       $unwind$x509_name_ex_d2i   0000000000088918     OpensslLib:x_name.obj
 0005:00000894       $unwind$x509_name_encode   0000000000088934     OpensslLib:x_name.obj
 0005:000008ac       $unwind$x509_name_canon    000000000008894c     OpensslLib:x_name.obj
 0005:000008c4       $unwind$asn1_string_canon  0000000000088964     OpensslLib:x_name.obj
 0005:000008d4       $unwind$BN_BLINDING_create_param 0000000000088974     OpensslLib:bn_blind.obj
 0005:000008d4       $unwind$aes_wrap_cipher    0000000000088974     OpensslLib:e_aes.obj
 0005:000008d4       $unwind$i2d_name_canon     0000000000088974     OpensslLib:x_name.obj
 0005:000008d4       $unwind$do_check_string    0000000000088974     OpensslLib:v3_utl.obj
 0005:000008e8       $unwind$X509_NAME_print    0000000000088988     OpensslLib:x_name.obj
 0005:00000900       $unwind$X509v3_get_ext_by_OBJ 00000000000889a0     OpensslLib:x509_v3.obj
 0005:00000900       $unwind$X509_NAME_get_index_by_OBJ 00000000000889a0     OpensslLib:x509name.obj
 0005:00000914       $unwind$CRYPTO_128_wrap_pad 00000000000889b4     OpensslLib:wrap128.obj
 0005:00000914       $unwind$RAND_DRBG_generate 00000000000889b4     OpensslLib:drbg_lib.obj
 0005:00000914       $unwind$X509_NAME_add_entry 00000000000889b4     OpensslLib:x509name.obj
 0005:00000930       $unwind$i2c_ibuf           00000000000889d0     OpensslLib:a_int.obj
 0005:00000930       $unwind$ASN1_put_object    00000000000889d0     OpensslLib:asn1_lib.obj
 0005:00000930       $unwind$make_kn            00000000000889d0     OpensslLib:cmac.obj
 0005:00000930       $unwind$gcm_gmult_4bit     00000000000889d0     OpensslLib:gcm128.obj
 0005:00000930       $unwind$julian_to_date     00000000000889d0     OpensslLib:o_time.obj
 0005:00000930       $unwind$SipHash_Final      00000000000889d0     OpensslLib:siphash.obj
 0005:00000940       $unwind$do_esc_char        00000000000889e0     OpensslLib:a_strex.obj
 0005:00000948       $unwind$do_buf             00000000000889e8     OpensslLib:a_strex.obj
 0005:00000960       $unwind$do_hex_dump        0000000000088a00     OpensslLib:a_strex.obj
 0005:00000974       $unwind$do_dump            0000000000088a14     OpensslLib:a_strex.obj
 0005:00000984       $unwind$do_print_ex        0000000000088a24     OpensslLib:a_strex.obj
 0005:0000099c       $unwind$do_indent          0000000000088a3c     OpensslLib:a_strex.obj
 0005:000009ac       $unwind$do_name_ex         0000000000088a4c     OpensslLib:a_strex.obj
 0005:000009c8       $unwind$ASN1_STRING_to_UTF8 0000000000088a68     OpensslLib:a_strex.obj
 0005:000009d0       $unwind$sha256_block_data_order 0000000000088a70     OpensslLib:sha256.obj
 0005:000009e8       $unwind$ASN1_item_d2i      0000000000088a88     OpensslLib:tasn_dec.obj
 0005:000009f0       $unwind$stbl_module_init   0000000000088a90     OpensslLib:asn_mstbl.obj
 0005:000009f0       $unwind$ASN1_item_ex_d2i   0000000000088a90     OpensslLib:tasn_dec.obj
 0005:00000a00       $unwind$asn1_item_embed_d2i 0000000000088aa0     OpensslLib:tasn_dec.obj
 0005:00000a18       $unwind$asn1_template_ex_d2i 0000000000088ab8     OpensslLib:tasn_dec.obj
 0005:00000a30       $unwind$asn1_template_noexp_d2i 0000000000088ad0     OpensslLib:tasn_dec.obj
 0005:00000a48       $unwind$asn1_d2i_ex_primitive 0000000000088ae8     OpensslLib:tasn_dec.obj
 0005:00000a68       $unwind$asn1_ex_c2i        0000000000088b08     OpensslLib:tasn_dec.obj
 0005:00000a68       $unwind$pkey_rsa_print     0000000000088b08     OpensslLib:rsa_ameth.obj
 0005:00000a84       $unwind$asn1_find_end      0000000000088b24     OpensslLib:tasn_dec.obj
 0005:00000a94       $unwind$asn1_collect       0000000000088b34     OpensslLib:tasn_dec.obj
 0005:00000aac       $unwind$asn1_primitive_new 0000000000088b4c     OpensslLib:tasn_new.obj
 0005:00000ac0       $unwind$c2i_ASN1_INTEGER   0000000000088b60     OpensslLib:a_int.obj
 0005:00000ac0       $unwind$dh_priv_encode     0000000000088b60     OpensslLib:dh_ameth.obj
 0005:00000ad4       $unwind$asn1_string_get_int64 0000000000088b74     OpensslLib:a_int.obj
 0005:00000ae4       $unwind$ASN1_buf_print     0000000000088b84     OpensslLib:t_pkey.obj
 0005:00000ae4       $unwind$X509at_get_attr_by_OBJ 0000000000088b84     OpensslLib:x509_att.obj
 0005:00000af8       $unwind$asn1_item_embed_free 0000000000088b98     OpensslLib:tasn_fre.obj
 0005:00000b10       $unwind$asn1_template_free 0000000000088bb0     OpensslLib:tasn_fre.obj
 0005:00000b24       $unwind$asn1_item_flags_i2d 0000000000088bc4     OpensslLib:tasn_enc.obj
 0005:00000b38       $unwind$ASN1_item_ex_i2d   0000000000088bd8     OpensslLib:tasn_enc.obj
 0005:00000b54       $unwind$asn1_template_ex_i2d 0000000000088bf4     OpensslLib:tasn_enc.obj
 0005:00000b70       $unwind$asn1_set_seq_out   0000000000088c10     OpensslLib:tasn_enc.obj
 0005:00000b70       $unwind$BN_generate_prime_ex 0000000000088c10     OpensslLib:bn_prime.obj
 0005:00000b70       $unwind$rsa_ossl_private_encrypt 0000000000088c10     OpensslLib:rsa_ossl.obj
 0005:00000b88       $unwind$asn1_i2d_ex_primitive 0000000000088c28     OpensslLib:tasn_enc.obj
 0005:00000ba0       $unwind$ERR_get_state      0000000000088c40     OpensslLib:err.obj
 0005:00000bb4       $unwind$ERR_add_error_data 0000000000088c54     OpensslLib:err.obj
 0005:00000bc8       $unwind$determine_days     0000000000088c68     OpensslLib:a_time.obj
 0005:00000bc8       $unwind$BN_rshift1         0000000000088c68     OpensslLib:bn_shift.obj
 0005:00000bc8       $unwind$int_x509_param_set1 0000000000088c68     OpensslLib:x509_vpm.obj
 0005:00000bdc       $unwind$X509_VERIFY_PARAM_lookup 0000000000088c7c     OpensslLib:x509_vpm.obj
 0005:00000be8       $unwind$crl_cb             0000000000088c88     OpensslLib:x_crl.obj
 0005:00000c00       $unwind$def_crl_lookup     0000000000088ca0     OpensslLib:x_crl.obj
 0005:00000c18       $unwind$get_and_lock       0000000000088cb8     OpensslLib:ex_data.obj
 0005:00000c20       $unwind$CRYPTO_new_ex_data 0000000000088cc0     OpensslLib:ex_data.obj
 0005:00000c38       $unwind$CRYPTO_free_ex_data 0000000000088cd8     OpensslLib:ex_data.obj
 0005:00000c54       $unwind$X509_TRUST_get_by_id 0000000000088cf4     OpensslLib:x509_trs.obj
 0005:00000c54       $unwind$X509_PURPOSE_get_by_id 0000000000088cf4     OpensslLib:v3_purp.obj
 0005:00000c5c       $unwind$x509v3_cache_extensions 0000000000088cfc     OpensslLib:v3_purp.obj
 0005:00000c74       $unwind$X509_NAME_oneline  0000000000088d14     OpensslLib:x509_obj.obj
 0005:00000c90       $unwind$asn1_time_to_tm    0000000000088d30     OpensslLib:a_time.obj
 0005:00000ca8       $unwind$ASN1_TIME_adj      0000000000088d48     OpensslLib:a_time.obj
 0005:00000cb0       $unwind$ASN1_TIME_diff     0000000000088d50     OpensslLib:a_time.obj
 0005:00000cc4       $unwind$ASN1_TIME_print    0000000000088d64     OpensslLib:a_time.obj
 0005:00000cdc       $unwind$s2i_ASN1_INTEGER   0000000000088d7c     OpensslLib:v3_utl.obj
 0005:00000cec       $unwind$bn_print           0000000000088d8c     OpensslLib:x_bignum.obj
 0005:00000cec       $unwind$X509V3_parse_list  0000000000088d8c     OpensslLib:v3_utl.obj
 0005:00000d04       $unwind$wildcard_match     0000000000088da4     OpensslLib:v3_utl.obj
 0005:00000d20       $unwind$BN_is_prime_fasttest_ex 0000000000088dc0     OpensslLib:bn_prime.obj
 0005:00000d20       $unwind$do_x509_check      0000000000088dc0     OpensslLib:v3_utl.obj
 0005:00000d38       $unwind$ipv4_from_asc      0000000000088dd8     OpensslLib:v3_utl.obj
 0005:00000d40       $unwind$ipv6_from_asc      0000000000088de0     OpensslLib:v3_utl.obj
 0005:00000d50       $unwind$RSA_check_key_ex   0000000000088df0     OpensslLib:rsa_chk.obj
 0005:00000d50       $unwind$tree_init          0000000000088df0     OpensslLib:pcy_tree.obj
 0005:00000d68       $unwind$rsa_ossl_public_encrypt 0000000000088e08     OpensslLib:rsa_ossl.obj
 0005:00000d68       $unwind$RSA_padding_add_PKCS1_PSS_mgf1 0000000000088e08     OpensslLib:rsa_pss.obj
 0005:00000d68       $unwind$tree_link_nodes    0000000000088e08     OpensslLib:pcy_tree.obj
 0005:00000d80       $unwind$CRYPTO_ccm128_decrypt 0000000000088e20     OpensslLib:ccm128.obj
 0005:00000d80       $unwind$tree_link_any      0000000000088e20     OpensslLib:pcy_tree.obj
 0005:00000d98       $unwind$c2i_ASN1_OBJECT    0000000000088e38     OpensslLib:a_object.obj
 0005:00000d98       $unwind$tree_calculate_user_set 0000000000088e38     OpensslLib:pcy_tree.obj
 0005:00000db4       $unwind$X509_policy_tree_free 0000000000088e54     OpensslLib:pcy_tree.obj
 0005:00000dc4       $unwind$X509_policy_check  0000000000088e64     OpensslLib:pcy_tree.obj
 0005:00000ddc       $unwind$v2i_NAME_CONSTRAINTS 0000000000088e7c     OpensslLib:v3_ncons.obj
 0005:00000df4       $unwind$NAME_CONSTRAINTS_check_CN 0000000000088e94     OpensslLib:v3_ncons.obj
 0005:00000e0c       $unwind$nc_match           0000000000088eac     OpensslLib:v3_ncons.obj
 0005:00000e24       $unwind$set_dist_point_name 0000000000088ec4     OpensslLib:v3_crld.obj
 0005:00000e3c       $unwind$c2i_ASN1_BIT_STRING 0000000000088edc     OpensslLib:a_bitstr.obj
 0005:00000e3c       $unwind$v2i_crld           0000000000088edc     OpensslLib:v3_crld.obj
 0005:00000e58       $unwind$ASN1_item_verify   0000000000088ef8     OpensslLib:a_verify.obj
 0005:00000e58       $unwind$ASN1_bn_print      0000000000088ef8     OpensslLib:t_pkey.obj
 0005:00000e58       $unwind$aes_cfb1_cipher    0000000000088ef8     OpensslLib:e_aes.obj
 0005:00000e58       $unwind$aria_128_ofb_cipher 0000000000088ef8     OpensslLib:e_aria.obj
 0005:00000e58       $unwind$aria_192_ofb_cipher 0000000000088ef8     OpensslLib:e_aria.obj
 0005:00000e58       $unwind$aria_256_ofb_cipher 0000000000088ef8     OpensslLib:e_aria.obj
 0005:00000e58       $unwind$sm4_ofb_cipher     0000000000088ef8     OpensslLib:e_sm4.obj
 0005:00000e58       $unwind$tls1_prf_alg       0000000000088ef8     OpensslLib:tls1_prf.obj
 0005:00000e58       $unwind$policy_cache_set_mapping 0000000000088ef8     OpensslLib:pcy_map.obj
 0005:00000e58       $unwind$policy_section     0000000000088ef8     OpensslLib:v3_cpols.obj
 0005:00000e58       $unwind$r2i_certpol        0000000000088ef8     OpensslLib:v3_cpols.obj
 0005:00000e58       $unwind$v2i_idp            0000000000088ef8     OpensslLib:v3_crld.obj
 0005:00000e58       $unwind$v2i_POLICY_MAPPINGS 0000000000088ef8     OpensslLib:v3_pmaps.obj
 0005:00000e58       $unwind$v2i_TLS_FEATURE    0000000000088ef8     OpensslLib:v3_tlsf.obj
 0005:00000e74       $unwind$print_distpoint    0000000000088f14     OpensslLib:v3_crld.obj
 0005:00000e7c       $unwind$DIST_POINT_set_dpname 0000000000088f1c     OpensslLib:v3_crld.obj
 0005:00000e7c       $unwind$RandGetBytes       0000000000088f1c     OpensslLib:rand_pool.obj
 0005:00000e90       $unwind$policy_cache_create 0000000000088f30     OpensslLib:pcy_cache.obj
 0005:00000eac       $unwind$policy_cache_new   0000000000088f4c     OpensslLib:pcy_cache.obj
 0005:00000ec0       $unwind$pkcs7_encode_rinfo 0000000000088f60     OpensslLib:pk7_doit.obj
 0005:00000edc       $unwind$PKCS7_dataInit     0000000000088f7c     OpensslLib:pk7_doit.obj
 0005:00000ef8       $unwind$do_pkcs7_signed_attrib 0000000000088f98     OpensslLib:pk7_doit.obj
 0005:00000f0c       $unwind$PKCS7_dataFinal    0000000000088fac     OpensslLib:pk7_doit.obj
 0005:00000f24       $unwind$PKCS7_SIGNER_INFO_sign 0000000000088fc4     OpensslLib:pk7_doit.obj
 0005:00000f38       $unwind$PKCS7_signatureVerify 0000000000088fd8     OpensslLib:pk7_doit.obj
 0005:00000f54       $unwind$ossl_init_get_thread_local 0000000000088ff4     OpensslLib:init.obj
 0005:00000f5c       $unwind$int_ctx_new        0000000000088ffc     OpensslLib:pmeth_lib.obj
 0005:00000f70       $unwind$OPENSSL_LH_insert  0000000000089010     OpensslLib:lhash.obj
 0005:00000f84       $unwind$ASN1_item_i2d_bio  0000000000089024     OpensslLib:a_i2d_fp.obj
 0005:00000f94       $unwind$RSA_new_method     0000000000089034     OpensslLib:rsa_lib.obj
 0005:00000fa0       $unwind$DH_free            0000000000089040     OpensslLib:dh_lib.obj
 0005:00000fa0       $unwind$RSA_free           0000000000089040     OpensslLib:rsa_lib.obj
 0005:00000fa8       $unwind$md5_block_data_order 0000000000089048     OpensslLib:md5_dgst.obj
 0005:00000fc0       $unwind$BN_dec2bn          0000000000089060     OpensslLib:bn_print.obj
 0005:00000fd8       $unwind$BN_consttime_swap  0000000000089078     OpensslLib:bn_lib.obj
 0005:00000fe4       $unwind$a2d_ASN1_OBJECT    0000000000089084     OpensslLib:a_object.obj
 0005:00000ffc       $unwind$i2a_ASN1_OBJECT    000000000008909c     OpensslLib:a_object.obj
 0005:00001010       $unwind$d2i_ASN1_OBJECT    00000000000890b0     OpensslLib:a_object.obj
 0005:00001018       $unwind$EVP_PKEY_asn1_find 00000000000890b8     OpensslLib:ameth_lib.obj
 0005:00001024       $unwind$CMAC_CTX_free      00000000000890c4     OpensslLib:cmac.obj
 0005:00001030       $unwind$CMAC_Init          00000000000890d0     OpensslLib:cmac.obj
 0005:00001048       $unwind$ASN1_STRING_set_by_NID 00000000000890e8     OpensslLib:a_strnid.obj
 0005:00001048       $unwind$aes_cfb_cipher     00000000000890e8     OpensslLib:e_aes.obj
 0005:00001048       $unwind$aes_ofb_cipher     00000000000890e8     OpensslLib:e_aes.obj
 0005:00001048       $unwind$aria_ctr_cipher    00000000000890e8     OpensslLib:e_aria.obj
 0005:00001048       $unwind$sm4_ctr_cipher     00000000000890e8     OpensslLib:e_sm4.obj
 0005:00001054       $unwind$ASN1_STRING_print  00000000000890f4     OpensslLib:a_print.obj
 0005:00001068       $unwind$UTF8_getc          0000000000089108     OpensslLib:a_utf8.obj
 0005:00001068       $unwind$bn_add_words       0000000000089108     OpensslLib:bn_asm.obj
 0005:00001068       $unwind$MOD_EXP_CTIME_COPY_TO_PREBUF 0000000000089108     OpensslLib:bn_exp.obj
 0005:00001068       $unwind$ctr_XOR            0000000000089108     OpensslLib:drbg_ctr.obj
 0005:00001070       $unwind$ASN1_mbstring_ncopy 0000000000089110     OpensslLib:a_mbstr.obj
 0005:00001088       $unwind$traverse_string    0000000000089128     OpensslLib:a_mbstr.obj
 0005:00001088       $unwind$md_read            0000000000089128     OpensslLib:bio_md.obj
 0005:0000109c       $unwind$uint32_c2i         000000000008913c     OpensslLib:x_int64.obj
 0005:000010b0       $unwind$ASN1_TYPE_set      0000000000089150     OpensslLib:a_type.obj
 0005:000010bc       $unwind$aria_128_cfb128_cipher 000000000008915c     OpensslLib:e_aria.obj
 0005:000010bc       $unwind$aria_192_cfb128_cipher 000000000008915c     OpensslLib:e_aria.obj
 0005:000010bc       $unwind$aria_256_cfb128_cipher 000000000008915c     OpensslLib:e_aria.obj
 0005:000010bc       $unwind$sm4_cfb128_cipher  000000000008915c     OpensslLib:e_sm4.obj
 0005:000010bc       $unwind$v2i_BASIC_CONSTRAINTS 000000000008915c     OpensslLib:v3_bcons.obj
 0005:000010bc       $unwind$v2i_POLICY_CONSTRAINTS 000000000008915c     OpensslLib:v3_pcons.obj
 0005:000010d0       $unwind$OPENSSL_gmtime_adj 0000000000089170     OpensslLib:o_time.obj
 0005:000010d8       $unwind$OPENSSL_gmtime_diff 0000000000089178     OpensslLib:o_time.obj
 0005:000010e8       $unwind$bn_sub_words       0000000000089188     OpensslLib:bn_asm.obj
 0005:000010e8       $unwind$julian_adj         0000000000089188     OpensslLib:o_time.obj
 0005:000010f4       $unwind$i2v_AUTHORITY_INFO_ACCESS 0000000000089194     OpensslLib:v3_info.obj
 0005:00001110       $unwind$v2i_AUTHORITY_INFO_ACCESS 00000000000891b0     OpensslLib:v3_info.obj
 0005:0000112c       $unwind$X509V3_EXT_get_nid 00000000000891cc     OpensslLib:v3_lib.obj
 0005:00001138       $unwind$i2v_GENERAL_NAME   00000000000891d8     OpensslLib:v3_alt.obj
 0005:00001148       $unwind$bn_div_fixed_top   00000000000891e8     OpensslLib:bn_div.obj
 0005:00001148       $unwind$notice_section     00000000000891e8     OpensslLib:v3_cpols.obj
 0005:00001160       $unwind$BN_gcd             0000000000089200     OpensslLib:bn_gcd.obj
 0005:00001160       $unwind$CRYPTO_ctr128_encrypt_ctr32 0000000000089200     OpensslLib:ctr128.obj
 0005:00001160       $unwind$print_qualifiers   0000000000089200     OpensslLib:v3_cpols.obj
 0005:00001178       $unwind$rand_drbg_get_entropy 0000000000089218     OpensslLib:rand_lib.obj
 0005:0000118c       $unwind$enc_read           000000000008922c     OpensslLib:bio_enc.obj
 0005:0000118c       $unwind$v2i_AUTHORITY_KEYID 000000000008922c     OpensslLib:v3_akey.obj
 0005:000011a4       $unwind$enc_ctrl           0000000000089244     OpensslLib:bio_enc.obj
 0005:000011a4       $unwind$rsa_pss_get_param  0000000000089244     OpensslLib:rsa_ameth.obj
 0005:000011bc       $unwind$do_sigver_init     000000000008925c     OpensslLib:m_sigver.obj
 0005:000011d0       $unwind$EVP_DigestSignFinal 0000000000089270     OpensslLib:m_sigver.obj
 0005:000011d0       $unwind$EVP_DigestVerifyFinal 0000000000089270     OpensslLib:m_sigver.obj
 0005:000011d0       $unwind$EVP_VerifyFinal    0000000000089270     OpensslLib:p_verify.obj
 0005:000011e8       $unwind$md_write           0000000000089288     OpensslLib:bio_md.obj
 0005:000011e8       $unwind$rsa_sig_print      0000000000089288     OpensslLib:rsa_ameth.obj
 0005:000011fc       $unwind$EVP_SignFinal      000000000008929c     OpensslLib:p_sign.obj
 0005:00001210       $unwind$RAND_DRBG_instantiate 00000000000892b0     OpensslLib:drbg_lib.obj
 0005:00001228       $unwind$RAND_DRBG_reseed   00000000000892c8     OpensslLib:drbg_lib.obj
 0005:00001240       $unwind$drbg_add           00000000000892e0     OpensslLib:drbg_lib.obj
 0005:00001250       $unwind$RAND_DRBG_get0_private 00000000000892f0     OpensslLib:drbg_lib.obj
 0005:00001260       $unwind$pkey_dh_ctrl_str   0000000000089300     OpensslLib:dh_pmeth.obj
 0005:00001274       $unwind$pkey_rsa_sign      0000000000089314     OpensslLib:rsa_pmeth.obj
 0005:00001274       $unwind$SXNET_add_id_INTEGER 0000000000089314     OpensslLib:v3_sxnet.obj
 0005:0000128c       $unwind$pkey_rsa_verifyrecover 000000000008932c     OpensslLib:rsa_pmeth.obj
 0005:000012a0       $unwind$pkey_rsa_verify    0000000000089340     OpensslLib:rsa_pmeth.obj
 0005:000012b4       $unwind$pkey_rsa_decrypt   0000000000089354     OpensslLib:rsa_pmeth.obj
 0005:000012c8       $unwind$pkey_rsa_ctrl_str  0000000000089368     OpensslLib:rsa_pmeth.obj
 0005:000012e0       $unwind$pkey_pss_init      0000000000089380     OpensslLib:rsa_pmeth.obj
 0005:000012f0       $unwind$tls1_prf_P_hash    0000000000089390     OpensslLib:tls1_prf.obj
 0005:0000130c       $unwind$pkey_hkdf_derive   00000000000893ac     OpensslLib:hkdf.obj
 0005:00001324       $unwind$HKDF_Extract       00000000000893c4     OpensslLib:hkdf.obj
 0005:0000133c       $unwind$HKDF_Expand        00000000000893dc     OpensslLib:hkdf.obj
 0005:00001354       $unwind$BIO_dump_indent_cb 00000000000893f4     OpensslLib:b_dump.obj
 0005:00001370       $unwind$rsa_ossl_private_decrypt 0000000000089410     OpensslLib:rsa_ossl.obj
 0005:00001388       $unwind$rsa_ossl_mod_exp   0000000000089428     OpensslLib:rsa_ossl.obj
 0005:000013a4       $unwind$bn_mul_add_words   0000000000089444     OpensslLib:bn_asm.obj
 0005:000013b8       $unwind$bn_mul_words       0000000000089458     OpensslLib:bn_asm.obj
 0005:000013d0       $unwind$bn_from_montgomery_word 0000000000089470     OpensslLib:bn_mont.obj
 0005:000013e8       $unwind$BN_MONT_CTX_set    0000000000089488     OpensslLib:bn_mont.obj
 0005:00001404       $unwind$compute_key        00000000000894a4     OpensslLib:dh_key.obj
 0005:0000141c       $unwind$dh_pub_decode      00000000000894bc     OpensslLib:dh_ameth.obj
 0005:0000141c       $unwind$rsa_pub_encode     00000000000894bc     OpensslLib:rsa_ameth.obj
 0005:0000142c       $unwind$FO                 00000000000894cc     OpensslLib:aria.obj
 0005:0000142c       $unwind$rsa_priv_decode    00000000000894cc     OpensslLib:rsa_ameth.obj
 0005:0000142c       $unwind$rsa_pub_decode     00000000000894cc     OpensslLib:rsa_ameth.obj
 0005:0000143c       $unwind$rsa_priv_encode    00000000000894dc     OpensslLib:rsa_ameth.obj
 0005:0000144c       $unwind$rsa_pss_decode     00000000000894ec     OpensslLib:rsa_ameth.obj
 0005:00001458       $unwind$rsa_pkey_ctrl      00000000000894f8     OpensslLib:rsa_ameth.obj
 0005:00001464       $unwind$rsa_md_to_mgf1     0000000000089504     OpensslLib:rsa_ameth.obj
 0005:00001474       $unwind$rsa_ctx_to_pss_string 0000000000089514     OpensslLib:rsa_ameth.obj
 0005:00001484       $unwind$rsa_pss_to_ctx     0000000000089524     OpensslLib:rsa_ameth.obj
 0005:0000149c       $unwind$rsa_item_sign      000000000008953c     OpensslLib:rsa_ameth.obj
 0005:000014ac       $unwind$rsa_sig_info_set   000000000008954c     OpensslLib:rsa_ameth.obj
 0005:000014bc       $unwind$i2d_dhp            000000000008955c     OpensslLib:dh_ameth.obj
 0005:000014c4       $unwind$dh_pub_encode      0000000000089564     OpensslLib:dh_ameth.obj
 0005:000014d8       $unwind$dh_priv_decode     0000000000089578     OpensslLib:dh_ameth.obj
 0005:000014e8       $unwind$do_dh_print        0000000000089588     OpensslLib:dh_ameth.obj
 0005:00001500       $unwind$dh_pkey_param_check 00000000000895a0     OpensslLib:dh_ameth.obj
 0005:00001514       $unwind$bn_mul_fixed_top   00000000000895b4     OpensslLib:bn_mul.obj
 0005:00001530       $unwind$BN_CTX_free        00000000000895d0     OpensslLib:bn_ctx.obj
 0005:00001540       $unwind$i2v_EXTENDED_KEY_USAGE 00000000000895e0     OpensslLib:v3_extku.obj
 0005:00001550       $unwind$v2i_ASN1_BIT_STRING 00000000000895f0     OpensslLib:v3_bitst.obj
 0005:0000156c       $unwind$i2r_ocsp_crlid     000000000008960c     OpensslLib:v3_ocsp.obj
 0005:00001580       $unwind$i2r_NAMING_AUTHORITY 0000000000089620     OpensslLib:v3_admis.obj
 0005:0000159c       $unwind$i2r_ADMISSION_SYNTAX 000000000008963c     OpensslLib:v3_admis.obj
 0005:000015bc       $unwind$s2i_skey_id        000000000008965c     OpensslLib:v3_skey.obj
 0005:000015cc       $unwind$i2v_POLICY_MAPPINGS 000000000008966c     OpensslLib:v3_pmaps.obj
 0005:000015e4       $unwind$ctr_update         0000000000089684     OpensslLib:drbg_ctr.obj
 0005:000015e4       $unwind$process_pci_value  0000000000089684     OpensslLib:v3_pci.obj
 0005:00001600       $unwind$r2i_pci            00000000000896a0     OpensslLib:v3_pci.obj
 0005:00001618       $unwind$i2v_TLS_FEATURE    00000000000896b8     OpensslLib:v3_tlsf.obj
 0005:0000162c       $unwind$generate_v3        00000000000896cc     OpensslLib:asn1_gen.obj
 0005:0000164c       $unwind$asn1_cb            00000000000896ec     OpensslLib:asn1_gen.obj
 0005:00001664       $unwind$asn1_str2type      0000000000089704     OpensslLib:asn1_gen.obj
 0005:00001678       $unwind$RandGetSeed128     0000000000089718     OpensslLib:rand_pool.obj
 0005:00001690       $unwind$HMAC_Init_ex       0000000000089730     OpensslLib:hmac.obj
 0005:000016b0       $unwind$HMAC_Final         0000000000089750     OpensslLib:hmac.obj
 0005:000016c0       $unwind$aes_gcm_ctrl       0000000000089760     OpensslLib:e_aes.obj
 0005:000016c0       $unwind$aria_gcm_ctrl      0000000000089760     OpensslLib:e_aria.obj
 0005:000016d8       $unwind$ctr_df             0000000000089778     OpensslLib:drbg_ctr.obj
 0005:000016d8       $unwind$Round              0000000000089778     OpensslLib:keccak1600.obj
 0005:000016f0       $unwind$drbg_ctr_generate  0000000000089790     OpensslLib:drbg_ctr.obj
 0005:00001708       $unwind$ctrl               00000000000897a8     OpensslLib:m_md5_sha1.obj
 0005:00001720       $unwind$dh_builtin_genparams 00000000000897c0     OpensslLib:dh_gen.obj
 0005:0000173c       $unwind$RSA_sign_ASN1_OCTET_STRING 00000000000897dc     OpensslLib:rsa_saos.obj
 0005:00001754       $unwind$RSA_padding_add_PKCS1_OAEP_mgf1 00000000000897f4     OpensslLib:rsa_oaep.obj
 0005:0000176c       $unwind$RSA_padding_check_PKCS1_OAEP_mgf1 000000000008980c     OpensslLib:rsa_oaep.obj
 0005:00001788       $unwind$PKCS1_MGF1         0000000000089828     OpensslLib:rsa_oaep.obj
 0005:000017a0       $unwind$rsa_builtin_keygen 0000000000089840     OpensslLib:rsa_gen.obj
 0005:000017bc       $unwind$encode_pkcs1       000000000008985c     OpensslLib:rsa_sign.obj
 0005:000017d0       $unwind$int_rsa_verify     0000000000089870     OpensslLib:rsa_sign.obj
 0005:000017ec       $unwind$RSA_verify_PKCS1_PSS_mgf1 000000000008988c     OpensslLib:rsa_pss.obj
 0005:00001808       $unwind$RSA_padding_check_PKCS1_type_2 00000000000898a8     OpensslLib:rsa_pk1.obj
 0005:00001824       $unwind$BN_mod_exp_recp    00000000000898c4     OpensslLib:bn_exp.obj
 0005:00001840       $unwind$BN_mod_exp_mont    00000000000898e0     OpensslLib:bn_exp.obj
 0005:00001860       $unwind$MOD_EXP_CTIME_COPY_FROM_PREBUF 0000000000089900     OpensslLib:bn_exp.obj
 0005:00001878       $unwind$BN_mod_exp_mont_consttime 0000000000089918     OpensslLib:bn_exp.obj
 0005:00001890       $unwind$BN_mod_exp_mont_word 0000000000089930     OpensslLib:bn_exp.obj
 0005:000018a8       $unwind$RSA_padding_check_SSLv23 0000000000089948     OpensslLib:rsa_ssl.obj
 0005:000018c4       $unwind$bn_mod_sub_fixed_top 0000000000089964     OpensslLib:bn_mod.obj
 0005:000018dc       $unwind$int_bn_mod_inverse 000000000008997c     OpensslLib:bn_gcd.obj
 0005:000018f4       $unwind$BN_mod_inverse_no_branch 0000000000089994     OpensslLib:bn_gcd.obj
 0005:0000190c       $unwind$bnrand             00000000000899ac     OpensslLib:bn_rand.obj
 0005:00001924       $unwind$bn_sqr_fixed_top   00000000000899c4     OpensslLib:bn_sqr.obj
 0005:00001944       $unwind$bn_sqr_normal      00000000000899e4     OpensslLib:bn_sqr.obj
 0005:0000195c       $unwind$X509_signature_dump 00000000000899fc     OpensslLib:t_x509.obj
 0005:00001978       $unwind$i2a_ASN1_INTEGER   0000000000089a18     OpensslLib:f_int.obj
 0005:0000198c       $unwind$i2a_ASN1_STRING    0000000000089a2c     OpensslLib:f_string.obj
 0005:000019a0       $unwind$AES_set_encrypt_key 0000000000089a40     OpensslLib:aes_core.obj
 0005:000019bc       $unwind$AES_decrypt        0000000000089a5c     OpensslLib:aes_core.obj
 0005:000019bc       $unwind$AES_encrypt        0000000000089a5c     OpensslLib:aes_core.obj
 0005:000019d8       $unwind$SM4_set_key        0000000000089a78     OpensslLib:sm4.obj
 0005:000019e8       $unwind$CRYPTO_cbc128_decrypt 0000000000089a88     OpensslLib:cbc128.obj
 0005:00001a00       $unwind$cfbr_encrypt_block 0000000000089aa0     OpensslLib:cfb128.obj
 0005:00001a18       $unwind$CRYPTO_cfb128_1_encrypt 0000000000089ab8     OpensslLib:cfb128.obj
 0005:00001a30       $unwind$CRYPTO_cfb128_8_encrypt 0000000000089ad0     OpensslLib:cfb128.obj
 0005:00001a4c       $unwind$CRYPTO_ccm128_encrypt 0000000000089aec     OpensslLib:ccm128.obj
 0005:00001a64       $unwind$rotnr              0000000000089b04     OpensslLib:aria.obj
 0005:00001a70       $unwind$aria_set_encrypt_key 0000000000089b10     OpensslLib:aria.obj
 0005:00001a94       $unwind$aria_set_decrypt_key 0000000000089b34     OpensslLib:aria.obj
 0005:00001aac       $unwind$CRYPTO_xts128_encrypt 0000000000089b4c     OpensslLib:xts128.obj
 0005:00001ac8       $unwind$CRYPTO_128_wrap    0000000000089b68     OpensslLib:wrap128.obj
 0005:00001ae4       $unwind$crypto_128_unwrap_raw 0000000000089b84     OpensslLib:wrap128.obj
 0005:00001afc       $unwind$CRYPTO_128_unwrap_pad 0000000000089b9c     OpensslLib:wrap128.obj
 0005:00001b14       $unwind$alg_module_init    0000000000089bb4     OpensslLib:evp_cnf.obj
 0005:00001b28       $unwind$do_tcreate         0000000000089bc8     OpensslLib:asn_mstbl.obj
 0005:00001b40       $unwind$ssl_module_init    0000000000089be0     OpensslLib:conf_ssl.obj
 0005:00001b58       $unwind$oid_module_init    0000000000089bf8     OpensslLib:asn_moid.obj
 0005:00001b74       $unwind$KeccakF1600        0000000000089c14     OpensslLib:keccak1600.obj
 0005:00001b84       $unwind$SHA3_squeeze       0000000000089c24     OpensslLib:keccak1600.obj
 0005:00001b98       $unwind$sm3_block_data_order 0000000000089c38     OpensslLib:sm3.obj
 0005:00001bb0       $unwind$probable_prime_dh  0000000000089c50     OpensslLib:bn_prime.obj
 0005:00001bc8       $unwind$QuickSortWorker    0000000000089c68     BaseCryptLib:CrtWrapper.obj
